
fs/serv.b：     文件格式 elf32-tradlittlemips
fs/serv.b


Disassembly of section .text:

00400000 <serve_init>:
serve_init():
/home/git/21373271/21373271/fs/serv.c:31
  400000:	27bdfff0 	addiu	sp,sp,-16
  400004:	afbe000c 	sw	s8,12(sp)
  400008:	03a0f025 	move	s8,sp
/home/git/21373271/21373271/fs/serv.c:36
  40000c:	3c026000 	lui	v0,0x6000
  400010:	afc20004 	sw	v0,4(s8)
/home/git/21373271/21373271/fs/serv.c:39
  400014:	afc00000 	sw	zero,0(s8)
  400018:	10000017 	b	400078 <serve_init+0x78>
  40001c:	00000000 	nop
/home/git/21373271/21373271/fs/serv.c:40 (discriminator 3)
  400020:	8fc30000 	lw	v1,0(s8)
  400024:	3c040041 	lui	a0,0x41
  400028:	8fc20000 	lw	v0,0(s8)
  40002c:	24849000 	addiu	a0,a0,-28672
  400030:	00021100 	sll	v0,v0,0x4
  400034:	00821021 	addu	v0,a0,v0
  400038:	ac430004 	sw	v1,4(v0)
/home/git/21373271/21373271/fs/serv.c:41 (discriminator 3)
  40003c:	8fc30004 	lw	v1,4(s8)
  400040:	3c040041 	lui	a0,0x41
  400044:	8fc20000 	lw	v0,0(s8)
  400048:	24849000 	addiu	a0,a0,-28672
  40004c:	00021100 	sll	v0,v0,0x4
  400050:	00821021 	addu	v0,a0,v0
  400054:	ac43000c 	sw	v1,12(v0)
/home/git/21373271/21373271/fs/serv.c:42 (discriminator 3)
  400058:	8fc20004 	lw	v0,4(s8)
  40005c:	00000000 	nop
  400060:	24421000 	addiu	v0,v0,4096
  400064:	afc20004 	sw	v0,4(s8)
/home/git/21373271/21373271/fs/serv.c:39 (discriminator 3)
  400068:	8fc20000 	lw	v0,0(s8)
  40006c:	00000000 	nop
  400070:	24420001 	addiu	v0,v0,1
  400074:	afc20000 	sw	v0,0(s8)
/home/git/21373271/21373271/fs/serv.c:39 (discriminator 1)
  400078:	8fc20000 	lw	v0,0(s8)
  40007c:	00000000 	nop
  400080:	28420400 	slti	v0,v0,1024
  400084:	1440ffe6 	bnez	v0,400020 <serve_init+0x20>
  400088:	00000000 	nop
	...
/home/git/21373271/21373271/fs/serv.c:44
  400094:	03c0e825 	move	sp,s8
  400098:	8fbe000c 	lw	s8,12(sp)
  40009c:	27bd0010 	addiu	sp,sp,16
  4000a0:	03e00008 	jr	ra
  4000a4:	00000000 	nop

004000a8 <open_alloc>:
open_alloc():
/home/git/21373271/21373271/fs/serv.c:48
  4000a8:	27bdffe0 	addiu	sp,sp,-32
  4000ac:	afbf001c 	sw	ra,28(sp)
  4000b0:	afbe0018 	sw	s8,24(sp)
  4000b4:	03a0f025 	move	s8,sp
  4000b8:	afc40020 	sw	a0,32(s8)
/home/git/21373271/21373271/fs/serv.c:52
  4000bc:	afc00010 	sw	zero,16(s8)
  4000c0:	10000052 	b	40020c <open_alloc+0x164>
  4000c4:	00000000 	nop
/home/git/21373271/21373271/fs/serv.c:53
  4000c8:	3c030041 	lui	v1,0x41
  4000cc:	8fc20010 	lw	v0,16(s8)
  4000d0:	24639000 	addiu	v1,v1,-28672
  4000d4:	00021100 	sll	v0,v0,0x4
  4000d8:	00621021 	addu	v0,v1,v0
  4000dc:	8c42000c 	lw	v0,12(v0)
  4000e0:	00000000 	nop
  4000e4:	00402025 	move	a0,v0
  4000e8:	0c1009b8 	jal	4026e0 <pageref>
  4000ec:	00000000 	nop
  4000f0:	10400006 	beqz	v0,40010c <open_alloc+0x64>
  4000f4:	00000000 	nop
  4000f8:	24030001 	li	v1,1
  4000fc:	10430016 	beq	v0,v1,400158 <open_alloc+0xb0>
  400100:	00000000 	nop
  400104:	1000003d 	b	4001fc <open_alloc+0x154>
  400108:	00000000 	nop
/home/git/21373271/21373271/fs/serv.c:55
  40010c:	3c030041 	lui	v1,0x41
  400110:	8fc20010 	lw	v0,16(s8)
  400114:	24639000 	addiu	v1,v1,-28672
  400118:	00021100 	sll	v0,v0,0x4
  40011c:	00621021 	addu	v0,v1,v0
  400120:	8c42000c 	lw	v0,12(v0)
  400124:	24060404 	li	a2,1028
  400128:	00402825 	move	a1,v0
  40012c:	00002025 	move	a0,zero
  400130:	0c100564 	jal	401590 <syscall_mem_alloc>
  400134:	00000000 	nop
  400138:	afc20014 	sw	v0,20(s8)
  40013c:	8fc20014 	lw	v0,20(s8)
  400140:	00000000 	nop
  400144:	04410004 	bgez	v0,400158 <open_alloc+0xb0>
  400148:	00000000 	nop
/home/git/21373271/21373271/fs/serv.c:56
  40014c:	8fc20014 	lw	v0,20(s8)
  400150:	10000034 	b	400224 <open_alloc+0x17c>
  400154:	00000000 	nop
/home/git/21373271/21373271/fs/serv.c:59
  400158:	3c030041 	lui	v1,0x41
  40015c:	8fc20010 	lw	v0,16(s8)
  400160:	24639000 	addiu	v1,v1,-28672
  400164:	00021100 	sll	v0,v0,0x4
  400168:	00621021 	addu	v0,v1,v0
  40016c:	8c420004 	lw	v0,4(v0)
  400170:	00000000 	nop
  400174:	24430400 	addiu	v1,v0,1024
  400178:	3c040041 	lui	a0,0x41
  40017c:	8fc20010 	lw	v0,16(s8)
  400180:	24849000 	addiu	a0,a0,-28672
  400184:	00021100 	sll	v0,v0,0x4
  400188:	00821021 	addu	v0,a0,v0
  40018c:	ac430004 	sw	v1,4(v0)
/home/git/21373271/21373271/fs/serv.c:60
  400190:	8fc20010 	lw	v0,16(s8)
  400194:	00000000 	nop
  400198:	00021900 	sll	v1,v0,0x4
  40019c:	3c020041 	lui	v0,0x41
  4001a0:	24429000 	addiu	v0,v0,-28672
  4001a4:	00621821 	addu	v1,v1,v0
  4001a8:	8fc20020 	lw	v0,32(s8)
  4001ac:	00000000 	nop
  4001b0:	ac430000 	sw	v1,0(v0)
/home/git/21373271/21373271/fs/serv.c:61
  4001b4:	3c030041 	lui	v1,0x41
  4001b8:	8fc20010 	lw	v0,16(s8)
  4001bc:	24639000 	addiu	v1,v1,-28672
  4001c0:	00021100 	sll	v0,v0,0x4
  4001c4:	00621021 	addu	v0,v1,v0
  4001c8:	8c42000c 	lw	v0,12(v0)
  4001cc:	24061000 	li	a2,4096
  4001d0:	00002825 	move	a1,zero
  4001d4:	00402025 	move	a0,v0
  4001d8:	0c1013f6 	jal	404fd8 <memset>
  4001dc:	00000000 	nop
/home/git/21373271/21373271/fs/serv.c:62
  4001e0:	8fc20020 	lw	v0,32(s8)
  4001e4:	00000000 	nop
  4001e8:	8c420000 	lw	v0,0(v0)
  4001ec:	00000000 	nop
  4001f0:	8c420004 	lw	v0,4(v0)
  4001f4:	1000000b 	b	400224 <open_alloc+0x17c>
  4001f8:	00000000 	nop
/home/git/21373271/21373271/fs/serv.c:52 (discriminator 2)
  4001fc:	8fc20010 	lw	v0,16(s8)
  400200:	00000000 	nop
  400204:	24420001 	addiu	v0,v0,1
  400208:	afc20010 	sw	v0,16(s8)
/home/git/21373271/21373271/fs/serv.c:52 (discriminator 1)
  40020c:	8fc20010 	lw	v0,16(s8)
  400210:	00000000 	nop
  400214:	28420400 	slti	v0,v0,1024
  400218:	1440ffab 	bnez	v0,4000c8 <open_alloc+0x20>
  40021c:	00000000 	nop
/home/git/21373271/21373271/fs/serv.c:66
  400220:	2402fff7 	li	v0,-9
/home/git/21373271/21373271/fs/serv.c:67
  400224:	03c0e825 	move	sp,s8
  400228:	8fbf001c 	lw	ra,28(sp)
  40022c:	8fbe0018 	lw	s8,24(sp)
  400230:	27bd0020 	addiu	sp,sp,32
  400234:	03e00008 	jr	ra
  400238:	00000000 	nop

0040023c <open_lookup>:
open_lookup():
/home/git/21373271/21373271/fs/serv.c:71
  40023c:	27bdffe0 	addiu	sp,sp,-32
  400240:	afbf001c 	sw	ra,28(sp)
  400244:	afbe0018 	sw	s8,24(sp)
  400248:	03a0f025 	move	s8,sp
  40024c:	afc40020 	sw	a0,32(s8)
  400250:	afc50024 	sw	a1,36(s8)
  400254:	afc60028 	sw	a2,40(s8)
/home/git/21373271/21373271/fs/serv.c:74
  400258:	8fc20024 	lw	v0,36(s8)
  40025c:	00000000 	nop
  400260:	304203ff 	andi	v0,v0,0x3ff
  400264:	00021900 	sll	v1,v0,0x4
  400268:	3c020041 	lui	v0,0x41
  40026c:	24429000 	addiu	v0,v0,-28672
  400270:	00621021 	addu	v0,v1,v0
  400274:	afc20010 	sw	v0,16(s8)
/home/git/21373271/21373271/fs/serv.c:76
  400278:	8fc20010 	lw	v0,16(s8)
  40027c:	00000000 	nop
  400280:	8c42000c 	lw	v0,12(v0)
  400284:	00000000 	nop
  400288:	00402025 	move	a0,v0
  40028c:	0c1009b8 	jal	4026e0 <pageref>
  400290:	00000000 	nop
  400294:	00401825 	move	v1,v0
  400298:	24020001 	li	v0,1
  40029c:	10620008 	beq	v1,v0,4002c0 <open_lookup+0x84>
  4002a0:	00000000 	nop
/home/git/21373271/21373271/fs/serv.c:76 (discriminator 1)
  4002a4:	8fc20010 	lw	v0,16(s8)
  4002a8:	00000000 	nop
  4002ac:	8c420004 	lw	v0,4(v0)
  4002b0:	8fc30024 	lw	v1,36(s8)
  4002b4:	00000000 	nop
  4002b8:	10620004 	beq	v1,v0,4002cc <open_lookup+0x90>
  4002bc:	00000000 	nop
/home/git/21373271/21373271/fs/serv.c:77
  4002c0:	2402fffd 	li	v0,-3
  4002c4:	10000006 	b	4002e0 <open_lookup+0xa4>
  4002c8:	00000000 	nop
/home/git/21373271/21373271/fs/serv.c:80
  4002cc:	8fc20028 	lw	v0,40(s8)
  4002d0:	8fc30010 	lw	v1,16(s8)
  4002d4:	00000000 	nop
  4002d8:	ac430000 	sw	v1,0(v0)
/home/git/21373271/21373271/fs/serv.c:81
  4002dc:	00001025 	move	v0,zero
/home/git/21373271/21373271/fs/serv.c:82
  4002e0:	03c0e825 	move	sp,s8
  4002e4:	8fbf001c 	lw	ra,28(sp)
  4002e8:	8fbe0018 	lw	s8,24(sp)
  4002ec:	27bd0020 	addiu	sp,sp,32
  4002f0:	03e00008 	jr	ra
  4002f4:	00000000 	nop

004002f8 <serve_open>:
serve_open():
/home/git/21373271/21373271/fs/serv.c:88
  4002f8:	27bdffd8 	addiu	sp,sp,-40
  4002fc:	afbf0024 	sw	ra,36(sp)
  400300:	afbe0020 	sw	s8,32(sp)
  400304:	03a0f025 	move	s8,sp
  400308:	afc40028 	sw	a0,40(s8)
  40030c:	afc5002c 	sw	a1,44(s8)
/home/git/21373271/21373271/fs/serv.c:95
  400310:	27c2001c 	addiu	v0,s8,28
  400314:	00402025 	move	a0,v0
  400318:	0c10002a 	jal	4000a8 <open_alloc>
  40031c:	00000000 	nop
  400320:	afc20010 	sw	v0,16(s8)
  400324:	8fc20010 	lw	v0,16(s8)
  400328:	00000000 	nop
  40032c:	04410008 	bgez	v0,400350 <serve_open+0x58>
  400330:	00000000 	nop
/home/git/21373271/21373271/fs/serv.c:96
  400334:	8fc20010 	lw	v0,16(s8)
  400338:	00003825 	move	a3,zero
  40033c:	00003025 	move	a2,zero
  400340:	00402825 	move	a1,v0
  400344:	8fc40028 	lw	a0,40(s8)
  400348:	0c100630 	jal	4018c0 <ipc_send>
  40034c:	00000000 	nop
/home/git/21373271/21373271/fs/serv.c:100
  400350:	8fc2002c 	lw	v0,44(s8)
  400354:	27c30018 	addiu	v1,s8,24
  400358:	00602825 	move	a1,v1
  40035c:	00402025 	move	a0,v0
  400360:	0c101b3a 	jal	406ce8 <file_open>
  400364:	00000000 	nop
  400368:	afc20010 	sw	v0,16(s8)
  40036c:	8fc20010 	lw	v0,16(s8)
  400370:	00000000 	nop
  400374:	0441000a 	bgez	v0,4003a0 <serve_open+0xa8>
  400378:	00000000 	nop
/home/git/21373271/21373271/fs/serv.c:101
  40037c:	8fc20010 	lw	v0,16(s8)
  400380:	00003825 	move	a3,zero
  400384:	00003025 	move	a2,zero
  400388:	00402825 	move	a1,v0
  40038c:	8fc40028 	lw	a0,40(s8)
  400390:	0c100630 	jal	4018c0 <ipc_send>
  400394:	00000000 	nop
  400398:	10000039 	b	400480 <serve_open+0x188>
  40039c:	00000000 	nop
/home/git/21373271/21373271/fs/serv.c:106
  4003a0:	8fc2001c 	lw	v0,28(s8)
  4003a4:	8fc30018 	lw	v1,24(s8)
  4003a8:	00000000 	nop
  4003ac:	ac430000 	sw	v1,0(v0)
/home/git/21373271/21373271/fs/serv.c:109
  4003b0:	8fc2001c 	lw	v0,28(s8)
  4003b4:	00000000 	nop
  4003b8:	8c42000c 	lw	v0,12(v0)
  4003bc:	00000000 	nop
  4003c0:	afc20014 	sw	v0,20(s8)
/home/git/21373271/21373271/fs/serv.c:110
  4003c4:	8fc30018 	lw	v1,24(s8)
  4003c8:	8fc20014 	lw	v0,20(s8)
  4003cc:	00000000 	nop
  4003d0:	24420010 	addiu	v0,v0,16
  4003d4:	00602025 	move	a0,v1
  4003d8:	24030100 	li	v1,256
  4003dc:	00603025 	move	a2,v1
  4003e0:	00802825 	move	a1,a0
  4003e4:	00402025 	move	a0,v0
  4003e8:	0c101384 	jal	404e10 <memcpy>
  4003ec:	00000000 	nop
/home/git/21373271/21373271/fs/serv.c:111
  4003f0:	8fc2001c 	lw	v0,28(s8)
  4003f4:	00000000 	nop
  4003f8:	8c430004 	lw	v1,4(v0)
  4003fc:	8fc20014 	lw	v0,20(s8)
  400400:	00000000 	nop
  400404:	ac43000c 	sw	v1,12(v0)
/home/git/21373271/21373271/fs/serv.c:112
  400408:	8fc2002c 	lw	v0,44(s8)
  40040c:	00000000 	nop
  400410:	8c430400 	lw	v1,1024(v0)
  400414:	8fc2001c 	lw	v0,28(s8)
  400418:	00000000 	nop
  40041c:	ac430008 	sw	v1,8(v0)
/home/git/21373271/21373271/fs/serv.c:113
  400420:	8fc2001c 	lw	v0,28(s8)
  400424:	00000000 	nop
  400428:	8c420008 	lw	v0,8(v0)
  40042c:	00000000 	nop
  400430:	00401825 	move	v1,v0
  400434:	8fc20014 	lw	v0,20(s8)
  400438:	00000000 	nop
  40043c:	ac430008 	sw	v1,8(v0)
/home/git/21373271/21373271/fs/serv.c:114
  400440:	3c020041 	lui	v0,0x41
  400444:	8c42d010 	lw	v0,-12272(v0)
  400448:	00000000 	nop
  40044c:	00401825 	move	v1,v0
  400450:	8fc20014 	lw	v0,20(s8)
  400454:	00000000 	nop
  400458:	ac430000 	sw	v1,0(v0)
/home/git/21373271/21373271/fs/serv.c:116
  40045c:	8fc2001c 	lw	v0,28(s8)
  400460:	00000000 	nop
  400464:	8c42000c 	lw	v0,12(v0)
  400468:	24070404 	li	a3,1028
  40046c:	00403025 	move	a2,v0
  400470:	00002825 	move	a1,zero
  400474:	8fc40028 	lw	a0,40(s8)
  400478:	0c100630 	jal	4018c0 <ipc_send>
  40047c:	00000000 	nop
/home/git/21373271/21373271/fs/serv.c:117
  400480:	03c0e825 	move	sp,s8
  400484:	8fbf0024 	lw	ra,36(sp)
  400488:	8fbe0020 	lw	s8,32(sp)
  40048c:	27bd0028 	addiu	sp,sp,40
  400490:	03e00008 	jr	ra
  400494:	00000000 	nop

00400498 <serve_map>:
serve_map():
/home/git/21373271/21373271/fs/serv.c:119
  400498:	27bdffd8 	addiu	sp,sp,-40
  40049c:	afbf0024 	sw	ra,36(sp)
  4004a0:	afbe0020 	sw	s8,32(sp)
  4004a4:	03a0f025 	move	s8,sp
  4004a8:	afc40028 	sw	a0,40(s8)
  4004ac:	afc5002c 	sw	a1,44(s8)
/home/git/21373271/21373271/fs/serv.c:125
  4004b0:	8fc2002c 	lw	v0,44(s8)
  4004b4:	00000000 	nop
  4004b8:	8c420000 	lw	v0,0(v0)
  4004bc:	27c30018 	addiu	v1,s8,24
  4004c0:	00603025 	move	a2,v1
  4004c4:	00402825 	move	a1,v0
  4004c8:	8fc40028 	lw	a0,40(s8)
  4004cc:	0c10008f 	jal	40023c <open_lookup>
  4004d0:	00000000 	nop
  4004d4:	afc20010 	sw	v0,16(s8)
  4004d8:	8fc20010 	lw	v0,16(s8)
  4004dc:	00000000 	nop
  4004e0:	0441000a 	bgez	v0,40050c <serve_map+0x74>
  4004e4:	00000000 	nop
/home/git/21373271/21373271/fs/serv.c:126
  4004e8:	8fc20010 	lw	v0,16(s8)
  4004ec:	00003825 	move	a3,zero
  4004f0:	00003025 	move	a2,zero
  4004f4:	00402825 	move	a1,v0
  4004f8:	8fc40028 	lw	a0,40(s8)
  4004fc:	0c100630 	jal	4018c0 <ipc_send>
  400500:	00000000 	nop
/home/git/21373271/21373271/fs/serv.c:127
  400504:	10000025 	b	40059c <serve_map+0x104>
  400508:	00000000 	nop
/home/git/21373271/21373271/fs/serv.c:130
  40050c:	8fc2002c 	lw	v0,44(s8)
  400510:	00000000 	nop
  400514:	8c420004 	lw	v0,4(v0)
  400518:	00000000 	nop
  40051c:	00021302 	srl	v0,v0,0xc
  400520:	afc20014 	sw	v0,20(s8)
/home/git/21373271/21373271/fs/serv.c:132
  400524:	8fc20018 	lw	v0,24(s8)
  400528:	00000000 	nop
  40052c:	8c420000 	lw	v0,0(v0)
  400530:	27c3001c 	addiu	v1,s8,28
  400534:	00603025 	move	a2,v1
  400538:	8fc50014 	lw	a1,20(s8)
  40053c:	00402025 	move	a0,v0
  400540:	0c101969 	jal	4065a4 <file_get_block>
  400544:	00000000 	nop
  400548:	afc20010 	sw	v0,16(s8)
  40054c:	8fc20010 	lw	v0,16(s8)
  400550:	00000000 	nop
  400554:	0441000a 	bgez	v0,400580 <serve_map+0xe8>
  400558:	00000000 	nop
/home/git/21373271/21373271/fs/serv.c:133
  40055c:	8fc20010 	lw	v0,16(s8)
  400560:	00003825 	move	a3,zero
  400564:	00003025 	move	a2,zero
  400568:	00402825 	move	a1,v0
  40056c:	8fc40028 	lw	a0,40(s8)
  400570:	0c100630 	jal	4018c0 <ipc_send>
  400574:	00000000 	nop
/home/git/21373271/21373271/fs/serv.c:134
  400578:	10000008 	b	40059c <serve_map+0x104>
  40057c:	00000000 	nop
/home/git/21373271/21373271/fs/serv.c:137
  400580:	8fc2001c 	lw	v0,28(s8)
  400584:	24070404 	li	a3,1028
  400588:	00403025 	move	a2,v0
  40058c:	00002825 	move	a1,zero
  400590:	8fc40028 	lw	a0,40(s8)
  400594:	0c100630 	jal	4018c0 <ipc_send>
  400598:	00000000 	nop
/home/git/21373271/21373271/fs/serv.c:138
  40059c:	03c0e825 	move	sp,s8
  4005a0:	8fbf0024 	lw	ra,36(sp)
  4005a4:	8fbe0020 	lw	s8,32(sp)
  4005a8:	27bd0028 	addiu	sp,sp,40
  4005ac:	03e00008 	jr	ra
  4005b0:	00000000 	nop

004005b4 <serve_set_size>:
serve_set_size():
/home/git/21373271/21373271/fs/serv.c:140
  4005b4:	27bdffe0 	addiu	sp,sp,-32
  4005b8:	afbf001c 	sw	ra,28(sp)
  4005bc:	afbe0018 	sw	s8,24(sp)
  4005c0:	03a0f025 	move	s8,sp
  4005c4:	afc40020 	sw	a0,32(s8)
  4005c8:	afc50024 	sw	a1,36(s8)
/home/git/21373271/21373271/fs/serv.c:143
  4005cc:	8fc20024 	lw	v0,36(s8)
  4005d0:	00000000 	nop
  4005d4:	8c420000 	lw	v0,0(v0)
  4005d8:	27c30014 	addiu	v1,s8,20
  4005dc:	00603025 	move	a2,v1
  4005e0:	00402825 	move	a1,v0
  4005e4:	8fc40020 	lw	a0,32(s8)
  4005e8:	0c10008f 	jal	40023c <open_lookup>
  4005ec:	00000000 	nop
  4005f0:	afc20010 	sw	v0,16(s8)
  4005f4:	8fc20010 	lw	v0,16(s8)
  4005f8:	00000000 	nop
  4005fc:	0441000a 	bgez	v0,400628 <serve_set_size+0x74>
  400600:	00000000 	nop
/home/git/21373271/21373271/fs/serv.c:144
  400604:	8fc20010 	lw	v0,16(s8)
  400608:	00003825 	move	a3,zero
  40060c:	00003025 	move	a2,zero
  400610:	00402825 	move	a1,v0
  400614:	8fc40020 	lw	a0,32(s8)
  400618:	0c100630 	jal	4018c0 <ipc_send>
  40061c:	00000000 	nop
/home/git/21373271/21373271/fs/serv.c:145
  400620:	10000020 	b	4006a4 <serve_set_size+0xf0>
  400624:	00000000 	nop
/home/git/21373271/21373271/fs/serv.c:148
  400628:	8fc20014 	lw	v0,20(s8)
  40062c:	00000000 	nop
  400630:	8c430000 	lw	v1,0(v0)
  400634:	8fc20024 	lw	v0,36(s8)
  400638:	00000000 	nop
  40063c:	8c420004 	lw	v0,4(v0)
  400640:	00000000 	nop
  400644:	00402825 	move	a1,v0
  400648:	00602025 	move	a0,v1
  40064c:	0c101be9 	jal	406fa4 <file_set_size>
  400650:	00000000 	nop
  400654:	afc20010 	sw	v0,16(s8)
  400658:	8fc20010 	lw	v0,16(s8)
  40065c:	00000000 	nop
  400660:	0441000a 	bgez	v0,40068c <serve_set_size+0xd8>
  400664:	00000000 	nop
/home/git/21373271/21373271/fs/serv.c:149
  400668:	8fc20010 	lw	v0,16(s8)
  40066c:	00003825 	move	a3,zero
  400670:	00003025 	move	a2,zero
  400674:	00402825 	move	a1,v0
  400678:	8fc40020 	lw	a0,32(s8)
  40067c:	0c100630 	jal	4018c0 <ipc_send>
  400680:	00000000 	nop
/home/git/21373271/21373271/fs/serv.c:150
  400684:	10000007 	b	4006a4 <serve_set_size+0xf0>
  400688:	00000000 	nop
/home/git/21373271/21373271/fs/serv.c:153
  40068c:	00003825 	move	a3,zero
  400690:	00003025 	move	a2,zero
  400694:	00002825 	move	a1,zero
  400698:	8fc40020 	lw	a0,32(s8)
  40069c:	0c100630 	jal	4018c0 <ipc_send>
  4006a0:	00000000 	nop
/home/git/21373271/21373271/fs/serv.c:154
  4006a4:	03c0e825 	move	sp,s8
  4006a8:	8fbf001c 	lw	ra,28(sp)
  4006ac:	8fbe0018 	lw	s8,24(sp)
  4006b0:	27bd0020 	addiu	sp,sp,32
  4006b4:	03e00008 	jr	ra
  4006b8:	00000000 	nop

004006bc <serve_close>:
serve_close():
/home/git/21373271/21373271/fs/serv.c:156
  4006bc:	27bdffe0 	addiu	sp,sp,-32
  4006c0:	afbf001c 	sw	ra,28(sp)
  4006c4:	afbe0018 	sw	s8,24(sp)
  4006c8:	03a0f025 	move	s8,sp
  4006cc:	afc40020 	sw	a0,32(s8)
  4006d0:	afc50024 	sw	a1,36(s8)
/home/git/21373271/21373271/fs/serv.c:161
  4006d4:	8fc20024 	lw	v0,36(s8)
  4006d8:	00000000 	nop
  4006dc:	8c420000 	lw	v0,0(v0)
  4006e0:	27c30014 	addiu	v1,s8,20
  4006e4:	00603025 	move	a2,v1
  4006e8:	00402825 	move	a1,v0
  4006ec:	8fc40020 	lw	a0,32(s8)
  4006f0:	0c10008f 	jal	40023c <open_lookup>
  4006f4:	00000000 	nop
  4006f8:	afc20010 	sw	v0,16(s8)
  4006fc:	8fc20010 	lw	v0,16(s8)
  400700:	00000000 	nop
  400704:	0441000a 	bgez	v0,400730 <serve_close+0x74>
  400708:	00000000 	nop
/home/git/21373271/21373271/fs/serv.c:162
  40070c:	8fc20010 	lw	v0,16(s8)
  400710:	00003825 	move	a3,zero
  400714:	00003025 	move	a2,zero
  400718:	00402825 	move	a1,v0
  40071c:	8fc40020 	lw	a0,32(s8)
  400720:	0c100630 	jal	4018c0 <ipc_send>
  400724:	00000000 	nop
  400728:	1000000e 	b	400764 <serve_close+0xa8>
  40072c:	00000000 	nop
/home/git/21373271/21373271/fs/serv.c:166
  400730:	8fc20014 	lw	v0,20(s8)
  400734:	00000000 	nop
  400738:	8c420000 	lw	v0,0(v0)
  40073c:	00000000 	nop
  400740:	00402025 	move	a0,v0
  400744:	0c101c77 	jal	4071dc <file_close>
  400748:	00000000 	nop
/home/git/21373271/21373271/fs/serv.c:167
  40074c:	00003825 	move	a3,zero
  400750:	00003025 	move	a2,zero
  400754:	00002825 	move	a1,zero
  400758:	8fc40020 	lw	a0,32(s8)
  40075c:	0c100630 	jal	4018c0 <ipc_send>
  400760:	00000000 	nop
/home/git/21373271/21373271/fs/serv.c:168
  400764:	03c0e825 	move	sp,s8
  400768:	8fbf001c 	lw	ra,28(sp)
  40076c:	8fbe0018 	lw	s8,24(sp)
  400770:	27bd0020 	addiu	sp,sp,32
  400774:	03e00008 	jr	ra
  400778:	00000000 	nop

0040077c <serve_remove>:
serve_remove():
/home/git/21373271/21373271/fs/serv.c:172
  40077c:	27bdffe0 	addiu	sp,sp,-32
  400780:	afbf001c 	sw	ra,28(sp)
  400784:	afbe0018 	sw	s8,24(sp)
  400788:	03a0f025 	move	s8,sp
  40078c:	afc40020 	sw	a0,32(s8)
  400790:	afc50024 	sw	a1,36(s8)
/home/git/21373271/21373271/fs/serv.c:176
  400794:	8fc20024 	lw	v0,36(s8)
  400798:	00000000 	nop
  40079c:	00402025 	move	a0,v0
  4007a0:	0c101c93 	jal	40724c <file_remove>
  4007a4:	00000000 	nop
  4007a8:	afc20010 	sw	v0,16(s8)
/home/git/21373271/21373271/fs/serv.c:179
  4007ac:	8fc20010 	lw	v0,16(s8)
  4007b0:	00003825 	move	a3,zero
  4007b4:	00003025 	move	a2,zero
  4007b8:	00402825 	move	a1,v0
  4007bc:	8fc40020 	lw	a0,32(s8)
  4007c0:	0c100630 	jal	4018c0 <ipc_send>
  4007c4:	00000000 	nop
/home/git/21373271/21373271/fs/serv.c:180
  4007c8:	00000000 	nop
  4007cc:	03c0e825 	move	sp,s8
  4007d0:	8fbf001c 	lw	ra,28(sp)
  4007d4:	8fbe0018 	lw	s8,24(sp)
  4007d8:	27bd0020 	addiu	sp,sp,32
  4007dc:	03e00008 	jr	ra
  4007e0:	00000000 	nop

004007e4 <serve_dirty>:
serve_dirty():
/home/git/21373271/21373271/fs/serv.c:182
  4007e4:	27bdffe0 	addiu	sp,sp,-32
  4007e8:	afbf001c 	sw	ra,28(sp)
  4007ec:	afbe0018 	sw	s8,24(sp)
  4007f0:	03a0f025 	move	s8,sp
  4007f4:	afc40020 	sw	a0,32(s8)
  4007f8:	afc50024 	sw	a1,36(s8)
/home/git/21373271/21373271/fs/serv.c:186
  4007fc:	8fc20024 	lw	v0,36(s8)
  400800:	00000000 	nop
  400804:	8c420000 	lw	v0,0(v0)
  400808:	27c30014 	addiu	v1,s8,20
  40080c:	00603025 	move	a2,v1
  400810:	00402825 	move	a1,v0
  400814:	8fc40020 	lw	a0,32(s8)
  400818:	0c10008f 	jal	40023c <open_lookup>
  40081c:	00000000 	nop
  400820:	afc20010 	sw	v0,16(s8)
  400824:	8fc20010 	lw	v0,16(s8)
  400828:	00000000 	nop
  40082c:	0441000a 	bgez	v0,400858 <serve_dirty+0x74>
  400830:	00000000 	nop
/home/git/21373271/21373271/fs/serv.c:187
  400834:	8fc20010 	lw	v0,16(s8)
  400838:	00003825 	move	a3,zero
  40083c:	00003025 	move	a2,zero
  400840:	00402825 	move	a1,v0
  400844:	8fc40020 	lw	a0,32(s8)
  400848:	0c100630 	jal	4018c0 <ipc_send>
  40084c:	00000000 	nop
/home/git/21373271/21373271/fs/serv.c:188
  400850:	10000020 	b	4008d4 <serve_dirty+0xf0>
  400854:	00000000 	nop
/home/git/21373271/21373271/fs/serv.c:191
  400858:	8fc20014 	lw	v0,20(s8)
  40085c:	00000000 	nop
  400860:	8c430000 	lw	v1,0(v0)
  400864:	8fc20024 	lw	v0,36(s8)
  400868:	00000000 	nop
  40086c:	8c420004 	lw	v0,4(v0)
  400870:	00000000 	nop
  400874:	00402825 	move	a1,v0
  400878:	00602025 	move	a0,v1
  40087c:	0c101995 	jal	406654 <file_dirty>
  400880:	00000000 	nop
  400884:	afc20010 	sw	v0,16(s8)
  400888:	8fc20010 	lw	v0,16(s8)
  40088c:	00000000 	nop
  400890:	0441000a 	bgez	v0,4008bc <serve_dirty+0xd8>
  400894:	00000000 	nop
/home/git/21373271/21373271/fs/serv.c:192
  400898:	8fc20010 	lw	v0,16(s8)
  40089c:	00003825 	move	a3,zero
  4008a0:	00003025 	move	a2,zero
  4008a4:	00402825 	move	a1,v0
  4008a8:	8fc40020 	lw	a0,32(s8)
  4008ac:	0c100630 	jal	4018c0 <ipc_send>
  4008b0:	00000000 	nop
/home/git/21373271/21373271/fs/serv.c:193
  4008b4:	10000007 	b	4008d4 <serve_dirty+0xf0>
  4008b8:	00000000 	nop
/home/git/21373271/21373271/fs/serv.c:196
  4008bc:	00003825 	move	a3,zero
  4008c0:	00003025 	move	a2,zero
  4008c4:	00002825 	move	a1,zero
  4008c8:	8fc40020 	lw	a0,32(s8)
  4008cc:	0c100630 	jal	4018c0 <ipc_send>
  4008d0:	00000000 	nop
/home/git/21373271/21373271/fs/serv.c:197
  4008d4:	03c0e825 	move	sp,s8
  4008d8:	8fbf001c 	lw	ra,28(sp)
  4008dc:	8fbe0018 	lw	s8,24(sp)
  4008e0:	27bd0020 	addiu	sp,sp,32
  4008e4:	03e00008 	jr	ra
  4008e8:	00000000 	nop

004008ec <serve_sync>:
serve_sync():
/home/git/21373271/21373271/fs/serv.c:199
  4008ec:	27bdffe8 	addiu	sp,sp,-24
  4008f0:	afbf0014 	sw	ra,20(sp)
  4008f4:	afbe0010 	sw	s8,16(sp)
  4008f8:	03a0f025 	move	s8,sp
  4008fc:	afc40018 	sw	a0,24(s8)
/home/git/21373271/21373271/fs/serv.c:200
  400900:	0c101c4f 	jal	40713c <fs_sync>
  400904:	00000000 	nop
/home/git/21373271/21373271/fs/serv.c:201
  400908:	00003825 	move	a3,zero
  40090c:	00003025 	move	a2,zero
  400910:	00002825 	move	a1,zero
  400914:	8fc40018 	lw	a0,24(s8)
  400918:	0c100630 	jal	4018c0 <ipc_send>
  40091c:	00000000 	nop
/home/git/21373271/21373271/fs/serv.c:202
  400920:	00000000 	nop
  400924:	03c0e825 	move	sp,s8
  400928:	8fbf0014 	lw	ra,20(sp)
  40092c:	8fbe0010 	lw	s8,16(sp)
  400930:	27bd0018 	addiu	sp,sp,24
  400934:	03e00008 	jr	ra
  400938:	00000000 	nop

0040093c <serve>:
serve():
/home/git/21373271/21373271/fs/serv.c:204
  40093c:	27bdffd8 	addiu	sp,sp,-40
  400940:	afbf0024 	sw	ra,36(sp)
  400944:	afbe0020 	sw	s8,32(sp)
  400948:	03a0f025 	move	s8,sp
/home/git/21373271/21373271/fs/serv.c:208
  40094c:	afc00018 	sw	zero,24(s8)
/home/git/21373271/21373271/fs/serv.c:210
  400950:	27c20018 	addiu	v0,s8,24
  400954:	27c30014 	addiu	v1,s8,20
  400958:	00403025 	move	a2,v0
  40095c:	3c020fff 	lui	v0,0xfff
  400960:	3445f000 	ori	a1,v0,0xf000
  400964:	00602025 	move	a0,v1
  400968:	0c10065b 	jal	40196c <ipc_recv>
  40096c:	00000000 	nop
  400970:	afc20010 	sw	v0,16(s8)
/home/git/21373271/21373271/fs/serv.c:213
  400974:	8fc20018 	lw	v0,24(s8)
  400978:	00000000 	nop
  40097c:	30420200 	andi	v0,v0,0x200
  400980:	1440000a 	bnez	v0,4009ac <serve+0x70>
  400984:	00000000 	nop
/home/git/21373271/21373271/fs/serv.c:214
  400988:	8fc20014 	lw	v0,20(s8)
  40098c:	00000000 	nop
  400990:	00402825 	move	a1,v0
  400994:	3c020040 	lui	v0,0x40
  400998:	24447890 	addiu	a0,v0,30864
  40099c:	0c10037c 	jal	400df0 <debugf>
  4009a0:	00000000 	nop
/home/git/21373271/21373271/fs/serv.c:215
  4009a4:	10000054 	b	400af8 <serve+0x1bc>
  4009a8:	00000000 	nop
/home/git/21373271/21373271/fs/serv.c:218
  4009ac:	8fc20010 	lw	v0,16(s8)
  4009b0:	00000000 	nop
  4009b4:	2c420008 	sltiu	v0,v0,8
  4009b8:	10400042 	beqz	v0,400ac4 <serve+0x188>
  4009bc:	00000000 	nop
  4009c0:	8fc20010 	lw	v0,16(s8)
  4009c4:	00000000 	nop
  4009c8:	00021880 	sll	v1,v0,0x2
  4009cc:	3c020040 	lui	v0,0x40
  4009d0:	244278e4 	addiu	v0,v0,30948
  4009d4:	00621021 	addu	v0,v1,v0
  4009d8:	8c420000 	lw	v0,0(v0)
  4009dc:	00000000 	nop
  4009e0:	00400008 	jr	v0
  4009e4:	00000000 	nop
/home/git/21373271/21373271/fs/serv.c:220
  4009e8:	8fc30014 	lw	v1,20(s8)
  4009ec:	3c020fff 	lui	v0,0xfff
  4009f0:	3445f000 	ori	a1,v0,0xf000
  4009f4:	00602025 	move	a0,v1
  4009f8:	0c1000be 	jal	4002f8 <serve_open>
  4009fc:	00000000 	nop
/home/git/21373271/21373271/fs/serv.c:221
  400a00:	10000038 	b	400ae4 <serve+0x1a8>
  400a04:	00000000 	nop
/home/git/21373271/21373271/fs/serv.c:224
  400a08:	8fc30014 	lw	v1,20(s8)
  400a0c:	3c020fff 	lui	v0,0xfff
  400a10:	3445f000 	ori	a1,v0,0xf000
  400a14:	00602025 	move	a0,v1
  400a18:	0c100126 	jal	400498 <serve_map>
  400a1c:	00000000 	nop
/home/git/21373271/21373271/fs/serv.c:225
  400a20:	10000030 	b	400ae4 <serve+0x1a8>
  400a24:	00000000 	nop
/home/git/21373271/21373271/fs/serv.c:228
  400a28:	8fc30014 	lw	v1,20(s8)
  400a2c:	3c020fff 	lui	v0,0xfff
  400a30:	3445f000 	ori	a1,v0,0xf000
  400a34:	00602025 	move	a0,v1
  400a38:	0c10016d 	jal	4005b4 <serve_set_size>
  400a3c:	00000000 	nop
/home/git/21373271/21373271/fs/serv.c:229
  400a40:	10000028 	b	400ae4 <serve+0x1a8>
  400a44:	00000000 	nop
/home/git/21373271/21373271/fs/serv.c:232
  400a48:	8fc30014 	lw	v1,20(s8)
  400a4c:	3c020fff 	lui	v0,0xfff
  400a50:	3445f000 	ori	a1,v0,0xf000
  400a54:	00602025 	move	a0,v1
  400a58:	0c1001af 	jal	4006bc <serve_close>
  400a5c:	00000000 	nop
/home/git/21373271/21373271/fs/serv.c:233
  400a60:	10000020 	b	400ae4 <serve+0x1a8>
  400a64:	00000000 	nop
/home/git/21373271/21373271/fs/serv.c:236
  400a68:	8fc30014 	lw	v1,20(s8)
  400a6c:	3c020fff 	lui	v0,0xfff
  400a70:	3445f000 	ori	a1,v0,0xf000
  400a74:	00602025 	move	a0,v1
  400a78:	0c1001f9 	jal	4007e4 <serve_dirty>
  400a7c:	00000000 	nop
/home/git/21373271/21373271/fs/serv.c:237
  400a80:	10000018 	b	400ae4 <serve+0x1a8>
  400a84:	00000000 	nop
/home/git/21373271/21373271/fs/serv.c:240
  400a88:	8fc30014 	lw	v1,20(s8)
  400a8c:	3c020fff 	lui	v0,0xfff
  400a90:	3445f000 	ori	a1,v0,0xf000
  400a94:	00602025 	move	a0,v1
  400a98:	0c1001df 	jal	40077c <serve_remove>
  400a9c:	00000000 	nop
/home/git/21373271/21373271/fs/serv.c:241
  400aa0:	10000010 	b	400ae4 <serve+0x1a8>
  400aa4:	00000000 	nop
/home/git/21373271/21373271/fs/serv.c:244
  400aa8:	8fc20014 	lw	v0,20(s8)
  400aac:	00000000 	nop
  400ab0:	00402025 	move	a0,v0
  400ab4:	0c10023b 	jal	4008ec <serve_sync>
  400ab8:	00000000 	nop
/home/git/21373271/21373271/fs/serv.c:245
  400abc:	10000009 	b	400ae4 <serve+0x1a8>
  400ac0:	00000000 	nop
/home/git/21373271/21373271/fs/serv.c:248
  400ac4:	8fc20014 	lw	v0,20(s8)
  400ac8:	8fc60010 	lw	a2,16(s8)
  400acc:	00402825 	move	a1,v0
  400ad0:	3c020040 	lui	v0,0x40
  400ad4:	244478c0 	addiu	a0,v0,30912
  400ad8:	0c10037c 	jal	400df0 <debugf>
  400adc:	00000000 	nop
/home/git/21373271/21373271/fs/serv.c:249
  400ae0:	00000000 	nop
/home/git/21373271/21373271/fs/serv.c:252
  400ae4:	3c020fff 	lui	v0,0xfff
  400ae8:	3445f000 	ori	a1,v0,0xf000
  400aec:	00002025 	move	a0,zero
  400af0:	0c100591 	jal	401644 <syscall_mem_unmap>
  400af4:	00000000 	nop
/home/git/21373271/21373271/fs/serv.c:208
  400af8:	1000ff94 	b	40094c <serve+0x10>
  400afc:	00000000 	nop

00400b00 <main>:
main():
/home/git/21373271/21373271/fs/serv.c:256
  400b00:	27bdffe8 	addiu	sp,sp,-24
  400b04:	afbf0014 	sw	ra,20(sp)
  400b08:	afbe0010 	sw	s8,16(sp)
  400b0c:	03a0f025 	move	s8,sp
/home/git/21373271/21373271/fs/serv.c:259
  400b10:	3c020040 	lui	v0,0x40
  400b14:	24447904 	addiu	a0,v0,30980
  400b18:	0c10037c 	jal	400df0 <debugf>
  400b1c:	00000000 	nop
/home/git/21373271/21373271/fs/serv.c:261
  400b20:	0c100000 	jal	400000 <serve_init>
  400b24:	00000000 	nop
/home/git/21373271/21373271/fs/serv.c:262
  400b28:	0c10188f 	jal	40623c <fs_init>
  400b2c:	00000000 	nop
/home/git/21373271/21373271/fs/serv.c:264
  400b30:	0c10024f 	jal	40093c <serve>
  400b34:	00000000 	nop
/home/git/21373271/21373271/fs/serv.c:265
  400b38:	00001025 	move	v0,zero
/home/git/21373271/21373271/fs/serv.c:266
  400b3c:	03c0e825 	move	sp,s8
  400b40:	8fbf0014 	lw	ra,20(sp)
  400b44:	8fbe0010 	lw	s8,16(sp)
  400b48:	27bd0018 	addiu	sp,sp,24
  400b4c:	03e00008 	jr	ra
  400b50:	00000000 	nop
	...

00400b60 <_start>:
_start():
/home/git/21373271/21373271/user/lib/entry.S:5
#include <asm/asm.h>

.text
EXPORT(_start)
	lw      a0, 0(sp)
  400b60:	8fa40000 	lw	a0,0(sp)
/home/git/21373271/21373271/user/lib/entry.S:6
	lw      a1, 4(sp)
  400b64:	8fa50004 	lw	a1,4(sp)
/home/git/21373271/21373271/user/lib/entry.S:7
	jal     libmain
  400b68:	0c1003e0 	jal	400f80 <libmain>
  400b6c:	00000000 	nop

00400b70 <msyscall>:
msyscall():
/home/git/21373271/21373271/user/lib/syscall_wrap.S:5
#include <asm/asm.h>

LEAF(msyscall)
	// Just use 'syscall' instruction and return.
	nop
  400b70:	00000000 	nop
/home/git/21373271/21373271/user/lib/syscall_wrap.S:6
	syscall
  400b74:	0000000c 	syscall
/home/git/21373271/21373271/user/lib/syscall_wrap.S:7
	nop
  400b78:	00000000 	nop
/home/git/21373271/21373271/user/lib/syscall_wrap.S:8
	jr ra
  400b7c:	03e00008 	jr	ra
  400b80:	00000000 	nop
	...

00400b90 <debug_flush>:
debug_flush():
/home/git/21373271/21373271/user/lib/debugf.c:11
struct debug_ctx {
	char buf[BUF_LEN];
	size_t pos;
};

static void debug_flush(struct debug_ctx *ctx) {
  400b90:	27bdffe0 	addiu	sp,sp,-32
  400b94:	afbf001c 	sw	ra,28(sp)
  400b98:	afbe0018 	sw	s8,24(sp)
  400b9c:	03a0f025 	move	s8,sp
  400ba0:	afc40020 	sw	a0,32(s8)
/home/git/21373271/21373271/user/lib/debugf.c:12
	if (ctx->pos == 0) {
  400ba4:	8fc20020 	lw	v0,32(s8)
  400ba8:	00000000 	nop
  400bac:	8c420400 	lw	v0,1024(v0)
  400bb0:	00000000 	nop
  400bb4:	1040001c 	beqz	v0,400c28 <debug_flush+0x98>
  400bb8:	00000000 	nop
/home/git/21373271/21373271/user/lib/debugf.c:16
		return;
	}
	int r;
	if ((r = syscall_print_cons(ctx->buf, ctx->pos)) != 0) {
  400bbc:	8fc30020 	lw	v1,32(s8)
  400bc0:	8fc20020 	lw	v0,32(s8)
  400bc4:	00000000 	nop
  400bc8:	8c420400 	lw	v0,1024(v0)
  400bcc:	00000000 	nop
  400bd0:	00402825 	move	a1,v0
  400bd4:	00602025 	move	a0,v1
  400bd8:	0c100518 	jal	401460 <syscall_print_cons>
  400bdc:	00000000 	nop
  400be0:	afc20010 	sw	v0,16(s8)
  400be4:	8fc20010 	lw	v0,16(s8)
  400be8:	00000000 	nop
  400bec:	10400009 	beqz	v0,400c14 <debug_flush+0x84>
  400bf0:	00000000 	nop
/home/git/21373271/21373271/user/lib/debugf.c:17
		user_panic("syscall_print_cons: %d", r);
  400bf4:	8fc70010 	lw	a3,16(s8)
  400bf8:	3c020040 	lui	v0,0x40
  400bfc:	24467920 	addiu	a2,v0,31008
  400c00:	24050011 	li	a1,17
  400c04:	3c020040 	lui	v0,0x40
  400c08:	24447938 	addiu	a0,v0,31032
  400c0c:	0c100393 	jal	400e4c <_user_panic>
  400c10:	00000000 	nop
/home/git/21373271/21373271/user/lib/debugf.c:19
	}
	ctx->pos = 0;
  400c14:	8fc20020 	lw	v0,32(s8)
  400c18:	00000000 	nop
  400c1c:	ac400400 	sw	zero,1024(v0)
  400c20:	10000002 	b	400c2c <debug_flush+0x9c>
  400c24:	00000000 	nop
/home/git/21373271/21373271/user/lib/debugf.c:13
		return;
  400c28:	00000000 	nop
/home/git/21373271/21373271/user/lib/debugf.c:20
}
  400c2c:	03c0e825 	move	sp,s8
  400c30:	8fbf001c 	lw	ra,28(sp)
  400c34:	8fbe0018 	lw	s8,24(sp)
  400c38:	27bd0020 	addiu	sp,sp,32
  400c3c:	03e00008 	jr	ra
  400c40:	00000000 	nop

00400c44 <debug_output>:
debug_output():
/home/git/21373271/21373271/user/lib/debugf.c:22

static void debug_output(void *data, const char *s, size_t l) {
  400c44:	27bdffe0 	addiu	sp,sp,-32
  400c48:	afbf001c 	sw	ra,28(sp)
  400c4c:	afbe0018 	sw	s8,24(sp)
  400c50:	03a0f025 	move	s8,sp
  400c54:	afc40020 	sw	a0,32(s8)
  400c58:	afc50024 	sw	a1,36(s8)
  400c5c:	afc60028 	sw	a2,40(s8)
/home/git/21373271/21373271/user/lib/debugf.c:23
	struct debug_ctx *ctx = (struct debug_ctx *)data;
  400c60:	8fc20020 	lw	v0,32(s8)
  400c64:	00000000 	nop
  400c68:	afc20010 	sw	v0,16(s8)
/home/git/21373271/21373271/user/lib/debugf.c:25

	while (ctx->pos + l > BUF_LEN) {
  400c6c:	10000022 	b	400cf8 <debug_output+0xb4>
  400c70:	00000000 	nop
/home/git/21373271/21373271/user/lib/debugf.c:26
		size_t n = BUF_LEN - ctx->pos;
  400c74:	8fc20010 	lw	v0,16(s8)
  400c78:	00000000 	nop
  400c7c:	8c420400 	lw	v0,1024(v0)
  400c80:	24030400 	li	v1,1024
  400c84:	00621023 	subu	v0,v1,v0
  400c88:	afc20014 	sw	v0,20(s8)
/home/git/21373271/21373271/user/lib/debugf.c:27
		memcpy(ctx->buf + ctx->pos, s, n);
  400c8c:	8fc30010 	lw	v1,16(s8)
  400c90:	8fc20010 	lw	v0,16(s8)
  400c94:	00000000 	nop
  400c98:	8c420400 	lw	v0,1024(v0)
  400c9c:	00000000 	nop
  400ca0:	00621021 	addu	v0,v1,v0
  400ca4:	8fc60014 	lw	a2,20(s8)
  400ca8:	8fc50024 	lw	a1,36(s8)
  400cac:	00402025 	move	a0,v0
  400cb0:	0c101384 	jal	404e10 <memcpy>
  400cb4:	00000000 	nop
/home/git/21373271/21373271/user/lib/debugf.c:28
		s += n;
  400cb8:	8fc30024 	lw	v1,36(s8)
  400cbc:	8fc20014 	lw	v0,20(s8)
  400cc0:	00000000 	nop
  400cc4:	00621021 	addu	v0,v1,v0
  400cc8:	afc20024 	sw	v0,36(s8)
/home/git/21373271/21373271/user/lib/debugf.c:29
		l -= n;
  400ccc:	8fc30028 	lw	v1,40(s8)
  400cd0:	8fc20014 	lw	v0,20(s8)
  400cd4:	00000000 	nop
  400cd8:	00621023 	subu	v0,v1,v0
  400cdc:	afc20028 	sw	v0,40(s8)
/home/git/21373271/21373271/user/lib/debugf.c:30
		ctx->pos = BUF_LEN;
  400ce0:	8fc20010 	lw	v0,16(s8)
  400ce4:	24030400 	li	v1,1024
  400ce8:	ac430400 	sw	v1,1024(v0)
/home/git/21373271/21373271/user/lib/debugf.c:31
		debug_flush(ctx);
  400cec:	8fc40010 	lw	a0,16(s8)
  400cf0:	0c1002e4 	jal	400b90 <debug_flush>
  400cf4:	00000000 	nop
/home/git/21373271/21373271/user/lib/debugf.c:25
	while (ctx->pos + l > BUF_LEN) {
  400cf8:	8fc20010 	lw	v0,16(s8)
  400cfc:	00000000 	nop
  400d00:	8c430400 	lw	v1,1024(v0)
  400d04:	8fc20028 	lw	v0,40(s8)
  400d08:	00000000 	nop
  400d0c:	00621021 	addu	v0,v1,v0
  400d10:	2c420401 	sltiu	v0,v0,1025
  400d14:	1040ffd7 	beqz	v0,400c74 <debug_output+0x30>
  400d18:	00000000 	nop
/home/git/21373271/21373271/user/lib/debugf.c:33
	}
	memcpy(ctx->buf + ctx->pos, s, l);
  400d1c:	8fc30010 	lw	v1,16(s8)
  400d20:	8fc20010 	lw	v0,16(s8)
  400d24:	00000000 	nop
  400d28:	8c420400 	lw	v0,1024(v0)
  400d2c:	00000000 	nop
  400d30:	00621021 	addu	v0,v1,v0
  400d34:	8fc60028 	lw	a2,40(s8)
  400d38:	8fc50024 	lw	a1,36(s8)
  400d3c:	00402025 	move	a0,v0
  400d40:	0c101384 	jal	404e10 <memcpy>
  400d44:	00000000 	nop
/home/git/21373271/21373271/user/lib/debugf.c:34
	ctx->pos += l;
  400d48:	8fc20010 	lw	v0,16(s8)
  400d4c:	00000000 	nop
  400d50:	8c430400 	lw	v1,1024(v0)
  400d54:	8fc20028 	lw	v0,40(s8)
  400d58:	00000000 	nop
  400d5c:	00621821 	addu	v1,v1,v0
  400d60:	8fc20010 	lw	v0,16(s8)
  400d64:	00000000 	nop
  400d68:	ac430400 	sw	v1,1024(v0)
/home/git/21373271/21373271/user/lib/debugf.c:35
}
  400d6c:	00000000 	nop
  400d70:	03c0e825 	move	sp,s8
  400d74:	8fbf001c 	lw	ra,28(sp)
  400d78:	8fbe0018 	lw	s8,24(sp)
  400d7c:	27bd0020 	addiu	sp,sp,32
  400d80:	03e00008 	jr	ra
  400d84:	00000000 	nop

00400d88 <vdebugf>:
vdebugf():
/home/git/21373271/21373271/user/lib/debugf.c:37

static void vdebugf(const char *fmt, va_list ap) {
  400d88:	27bdfbe0 	addiu	sp,sp,-1056
  400d8c:	afbf041c 	sw	ra,1052(sp)
  400d90:	afbe0418 	sw	s8,1048(sp)
  400d94:	03a0f025 	move	s8,sp
  400d98:	afc40420 	sw	a0,1056(s8)
  400d9c:	afc50424 	sw	a1,1060(s8)
/home/git/21373271/21373271/user/lib/debugf.c:39
	struct debug_ctx ctx;
	ctx.pos = 0;
  400da0:	afc00410 	sw	zero,1040(s8)
/home/git/21373271/21373271/user/lib/debugf.c:40
	vprintfmt(debug_output, &ctx, fmt, ap);
  400da4:	8fc70424 	lw	a3,1060(s8)
  400da8:	8fc60420 	lw	a2,1056(s8)
  400dac:	27c20010 	addiu	v0,s8,16
  400db0:	00402825 	move	a1,v0
  400db4:	3c020040 	lui	v0,0x40
  400db8:	24440c44 	addiu	a0,v0,3140
  400dbc:	0c100fe0 	jal	403f80 <vprintfmt>
  400dc0:	00000000 	nop
/home/git/21373271/21373271/user/lib/debugf.c:41
	debug_flush(&ctx);
  400dc4:	27c20010 	addiu	v0,s8,16
  400dc8:	00402025 	move	a0,v0
  400dcc:	0c1002e4 	jal	400b90 <debug_flush>
  400dd0:	00000000 	nop
/home/git/21373271/21373271/user/lib/debugf.c:42
}
  400dd4:	00000000 	nop
  400dd8:	03c0e825 	move	sp,s8
  400ddc:	8fbf041c 	lw	ra,1052(sp)
  400de0:	8fbe0418 	lw	s8,1048(sp)
  400de4:	27bd0420 	addiu	sp,sp,1056
  400de8:	03e00008 	jr	ra
  400dec:	00000000 	nop

00400df0 <debugf>:
debugf():
/home/git/21373271/21373271/user/lib/debugf.c:44

void debugf(const char *fmt, ...) {
  400df0:	27bdffe0 	addiu	sp,sp,-32
  400df4:	afbf001c 	sw	ra,28(sp)
  400df8:	afbe0018 	sw	s8,24(sp)
  400dfc:	03a0f025 	move	s8,sp
  400e00:	afc40020 	sw	a0,32(s8)
  400e04:	afc50024 	sw	a1,36(s8)
  400e08:	afc60028 	sw	a2,40(s8)
  400e0c:	afc7002c 	sw	a3,44(s8)
/home/git/21373271/21373271/user/lib/debugf.c:46
	va_list ap;
	va_start(ap, fmt);
  400e10:	27c20024 	addiu	v0,s8,36
  400e14:	afc20010 	sw	v0,16(s8)
/home/git/21373271/21373271/user/lib/debugf.c:47
	vdebugf(fmt, ap);
  400e18:	8fc20010 	lw	v0,16(s8)
  400e1c:	00000000 	nop
  400e20:	00402825 	move	a1,v0
  400e24:	8fc40020 	lw	a0,32(s8)
  400e28:	0c100362 	jal	400d88 <vdebugf>
  400e2c:	00000000 	nop
/home/git/21373271/21373271/user/lib/debugf.c:49
	va_end(ap);
}
  400e30:	00000000 	nop
  400e34:	03c0e825 	move	sp,s8
  400e38:	8fbf001c 	lw	ra,28(sp)
  400e3c:	8fbe0018 	lw	s8,24(sp)
  400e40:	27bd0020 	addiu	sp,sp,32
  400e44:	03e00008 	jr	ra
  400e48:	00000000 	nop

00400e4c <_user_panic>:
_user_panic():
/home/git/21373271/21373271/user/lib/debugf.c:51

void _user_panic(const char *file, int line, const char *fmt, ...) {
  400e4c:	27bdffe0 	addiu	sp,sp,-32
  400e50:	afbf001c 	sw	ra,28(sp)
  400e54:	afbe0018 	sw	s8,24(sp)
  400e58:	03a0f025 	move	s8,sp
  400e5c:	afc40020 	sw	a0,32(s8)
  400e60:	afc50024 	sw	a1,36(s8)
  400e64:	afc60028 	sw	a2,40(s8)
  400e68:	afc7002c 	sw	a3,44(s8)
/home/git/21373271/21373271/user/lib/debugf.c:52
	debugf("panic at %s:%d: ", file, line);
  400e6c:	8fc60024 	lw	a2,36(s8)
  400e70:	8fc50020 	lw	a1,32(s8)
  400e74:	3c020040 	lui	v0,0x40
  400e78:	24447948 	addiu	a0,v0,31048
  400e7c:	0c10037c 	jal	400df0 <debugf>
  400e80:	00000000 	nop
/home/git/21373271/21373271/user/lib/debugf.c:54
	va_list ap;
	va_start(ap, fmt);
  400e84:	27c2002c 	addiu	v0,s8,44
  400e88:	afc20010 	sw	v0,16(s8)
/home/git/21373271/21373271/user/lib/debugf.c:55
	vdebugf(fmt, ap);
  400e8c:	8fc20010 	lw	v0,16(s8)
  400e90:	00000000 	nop
  400e94:	00402825 	move	a1,v0
  400e98:	8fc40028 	lw	a0,40(s8)
  400e9c:	0c100362 	jal	400d88 <vdebugf>
  400ea0:	00000000 	nop
/home/git/21373271/21373271/user/lib/debugf.c:57
	va_end(ap);
	debugf("\n");
  400ea4:	3c020040 	lui	v0,0x40
  400ea8:	2444795c 	addiu	a0,v0,31068
  400eac:	0c10037c 	jal	400df0 <debugf>
  400eb0:	00000000 	nop
/home/git/21373271/21373271/user/lib/debugf.c:58
	exit();
  400eb4:	0c1003d0 	jal	400f40 <exit>
  400eb8:	00000000 	nop

00400ebc <_user_halt>:
_user_halt():
/home/git/21373271/21373271/user/lib/debugf.c:61
}

void _user_halt(const char *file, int line, const char *fmt, ...) {
  400ebc:	27bdffe0 	addiu	sp,sp,-32
  400ec0:	afbf001c 	sw	ra,28(sp)
  400ec4:	afbe0018 	sw	s8,24(sp)
  400ec8:	03a0f025 	move	s8,sp
  400ecc:	afc40020 	sw	a0,32(s8)
  400ed0:	afc50024 	sw	a1,36(s8)
  400ed4:	afc60028 	sw	a2,40(s8)
  400ed8:	afc7002c 	sw	a3,44(s8)
/home/git/21373271/21373271/user/lib/debugf.c:62
	debugf("halt at %s:%d: ", file, line);
  400edc:	8fc60024 	lw	a2,36(s8)
  400ee0:	8fc50020 	lw	a1,32(s8)
  400ee4:	3c020040 	lui	v0,0x40
  400ee8:	24447960 	addiu	a0,v0,31072
  400eec:	0c10037c 	jal	400df0 <debugf>
  400ef0:	00000000 	nop
/home/git/21373271/21373271/user/lib/debugf.c:64
	va_list ap;
	va_start(ap, fmt);
  400ef4:	27c2002c 	addiu	v0,s8,44
  400ef8:	afc20010 	sw	v0,16(s8)
/home/git/21373271/21373271/user/lib/debugf.c:65
	vdebugf(fmt, ap);
  400efc:	8fc20010 	lw	v0,16(s8)
  400f00:	00000000 	nop
  400f04:	00402825 	move	a1,v0
  400f08:	8fc40028 	lw	a0,40(s8)
  400f0c:	0c100362 	jal	400d88 <vdebugf>
  400f10:	00000000 	nop
/home/git/21373271/21373271/user/lib/debugf.c:67
	va_end(ap);
	debugf("\n");
  400f14:	3c020040 	lui	v0,0x40
  400f18:	2444795c 	addiu	a0,v0,31068
  400f1c:	0c10037c 	jal	400df0 <debugf>
  400f20:	00000000 	nop
/home/git/21373271/21373271/user/lib/debugf.c:68
	syscall_panic("user halt");
  400f24:	3c020040 	lui	v0,0x40
  400f28:	24447970 	addiu	a0,v0,31088
  400f2c:	0c1005c4 	jal	401710 <syscall_panic>
  400f30:	00000000 	nop
	...

00400f40 <exit>:
exit():
/home/git/21373271/21373271/user/lib/libos.c:5
#include <env.h>
#include <lib.h>
#include <mmu.h>

void exit(void) {
  400f40:	27bdffe8 	addiu	sp,sp,-24
  400f44:	afbf0014 	sw	ra,20(sp)
  400f48:	afbe0010 	sw	s8,16(sp)
  400f4c:	03a0f025 	move	s8,sp
/home/git/21373271/21373271/user/lib/libos.c:8
	// After fs is ready (lab5), all our open files should be closed before dying.
#if !defined(LAB) || LAB >= 5
	close_all();
  400f50:	0c1007b2 	jal	401ec8 <close_all>
  400f54:	00000000 	nop
/home/git/21373271/21373271/user/lib/libos.c:11
#endif

	syscall_env_destroy(0);
  400f58:	00002025 	move	a0,zero
  400f5c:	0c100544 	jal	401510 <syscall_env_destroy>
  400f60:	00000000 	nop
/home/git/21373271/21373271/user/lib/libos.c:12
	user_panic("unreachable code");
  400f64:	3c020040 	lui	v0,0x40
  400f68:	24467980 	addiu	a2,v0,31104
  400f6c:	2405000c 	li	a1,12
  400f70:	3c020040 	lui	v0,0x40
  400f74:	24447994 	addiu	a0,v0,31124
  400f78:	0c100393 	jal	400e4c <_user_panic>
  400f7c:	00000000 	nop

00400f80 <libmain>:
libmain():
/home/git/21373271/21373271/user/lib/libos.c:18
}

volatile struct Env *env;
extern int main(int, char **);

void libmain(int argc, char **argv) {
  400f80:	27bdffe8 	addiu	sp,sp,-24
  400f84:	afbf0014 	sw	ra,20(sp)
  400f88:	afbe0010 	sw	s8,16(sp)
  400f8c:	03a0f025 	move	s8,sp
  400f90:	afc40018 	sw	a0,24(s8)
  400f94:	afc5001c 	sw	a1,28(s8)
/home/git/21373271/21373271/user/lib/libos.c:20
	// set env to point at our env structure in envs[].
	env = &envs[ENVX(syscall_getenvid())];
  400f98:	0c100529 	jal	4014a4 <syscall_getenvid>
  400f9c:	00000000 	nop
  400fa0:	304303ff 	andi	v1,v0,0x3ff
  400fa4:	00601025 	move	v0,v1
  400fa8:	000210c0 	sll	v0,v0,0x3
  400fac:	00431023 	subu	v0,v0,v1
  400fb0:	000210c0 	sll	v0,v0,0x3
  400fb4:	00431023 	subu	v0,v0,v1
  400fb8:	00021080 	sll	v0,v0,0x2
  400fbc:	00401825 	move	v1,v0
  400fc0:	3c027f40 	lui	v0,0x7f40
  400fc4:	00621821 	addu	v1,v1,v0
  400fc8:	3c020041 	lui	v0,0x41
  400fcc:	ac43e000 	sw	v1,-8192(v0)
/home/git/21373271/21373271/user/lib/libos.c:23

	// call user main routine
	main(argc, argv);
  400fd0:	8fc5001c 	lw	a1,28(s8)
  400fd4:	8fc40018 	lw	a0,24(s8)
  400fd8:	0c1002c0 	jal	400b00 <main>
  400fdc:	00000000 	nop
/home/git/21373271/21373271/user/lib/libos.c:26

	// exit gracefully
	exit();
  400fe0:	0c1003d0 	jal	400f40 <exit>
  400fe4:	00000000 	nop
	...

00400ff0 <cow_entry>:
cow_entry():
/home/git/21373271/21373271/user/lib/fork.c:16
 * Post-Condition:
 *  - Launch a 'user_panic' if 'va' is not a copy-on-write page.
 *  - Otherwise, this handler should map a private writable copy of
 *    the faulting page at the same address.
 */
static void __attribute__((noreturn)) cow_entry(struct Trapframe *tf) {
  400ff0:	27bdffd0 	addiu	sp,sp,-48
  400ff4:	afbf002c 	sw	ra,44(sp)
  400ff8:	afbe0028 	sw	s8,40(sp)
  400ffc:	03a0f025 	move	s8,sp
  401000:	afc40030 	sw	a0,48(s8)
/home/git/21373271/21373271/user/lib/fork.c:17
	u_int va = tf->cp0_badvaddr;
  401004:	8fc20030 	lw	v0,48(s8)
  401008:	00000000 	nop
  40100c:	8c42008c 	lw	v0,140(v0)
  401010:	00000000 	nop
  401014:	afc20018 	sw	v0,24(s8)
/home/git/21373271/21373271/user/lib/fork.c:24

	/* Step 1: Find the 'perm' in which the faulting address 'va' is mapped. */
	/* Hint: Use 'vpt' and 'VPN' to find the page table entry. If the 'perm' doesn't have
	 * 'PTE_COW', launch a 'user_panic'. */
	/* Exercise 4.13: Your code here. (1/6) */
	perm = *(vpt+VPN(va)) & 0xfff;
  401018:	8fc20018 	lw	v0,24(s8)
  40101c:	00000000 	nop
  401020:	00021302 	srl	v0,v0,0xc
  401024:	00021880 	sll	v1,v0,0x2
  401028:	3c027fc0 	lui	v0,0x7fc0
  40102c:	00621021 	addu	v0,v1,v0
  401030:	8c420000 	lw	v0,0(v0)
  401034:	00000000 	nop
  401038:	30420fff 	andi	v0,v0,0xfff
  40103c:	afc2001c 	sw	v0,28(s8)
/home/git/21373271/21373271/user/lib/fork.c:26
	//debugf("perm:%d",perm);
	if ( (perm & PTE_COW) == 0) 
  401040:	8fc2001c 	lw	v0,28(s8)
  401044:	00000000 	nop
  401048:	30420001 	andi	v0,v0,0x1
  40104c:	14400008 	bnez	v0,401070 <cow_entry+0x80>
  401050:	00000000 	nop
/home/git/21373271/21373271/user/lib/fork.c:28
	{
		user_panic("pgfault err: COW not found");
  401054:	3c020040 	lui	v0,0x40
  401058:	244679a0 	addiu	a2,v0,31136
  40105c:	2405001c 	li	a1,28
  401060:	3c020040 	lui	v0,0x40
  401064:	244479bc 	addiu	a0,v0,31164
  401068:	0c100393 	jal	400e4c <_user_panic>
  40106c:	00000000 	nop
/home/git/21373271/21373271/user/lib/fork.c:33
	}
	/* Step 2: Remove 'PTE_COW' from the 'perm', and add 'PTE_D' to it. */
	/* Exercise 4.13: Your code here. (2/6) */
	//debugf("perm赋值\n");
	perm = (perm & ~PTE_COW) | PTE_D;
  401070:	8fc3001c 	lw	v1,28(s8)
  401074:	2402fbfe 	li	v0,-1026
  401078:	00621024 	and	v0,v1,v0
  40107c:	34420400 	ori	v0,v0,0x400
  401080:	afc2001c 	sw	v0,28(s8)
/home/git/21373271/21373271/user/lib/fork.c:37
	/* Step 3: Allocate a new page at 'UCOW'. */
	/* Exercise 4.13: Your code here. (3/6) */
	//debugf("syscall_mem_alloc\n");
	syscall_mem_alloc(0,(void*)UCOW,perm);
  401084:	8fc6001c 	lw	a2,28(s8)
  401088:	3c02003f 	lui	v0,0x3f
  40108c:	3445f000 	ori	a1,v0,0xf000
  401090:	00002025 	move	a0,zero
  401094:	0c100564 	jal	401590 <syscall_mem_alloc>
  401098:	00000000 	nop
/home/git/21373271/21373271/user/lib/fork.c:42
	/* Step 4: Copy the content of the faulting page at 'va' to 'UCOW'. */
	/* Hint: 'va' may not be aligned to a page! */
	/* Exercise 4.13: Your code here. (4/6) */
	//debugf("memcpy\n");
	memcpy((void*)UCOW,(void*)ROUNDDOWN(va,BY2PG),BY2PG);
  40109c:	8fc30018 	lw	v1,24(s8)
  4010a0:	2402f000 	li	v0,-4096
  4010a4:	00621024 	and	v0,v1,v0
  4010a8:	24061000 	li	a2,4096
  4010ac:	00402825 	move	a1,v0
  4010b0:	3c02003f 	lui	v0,0x3f
  4010b4:	3444f000 	ori	a0,v0,0xf000
  4010b8:	0c101384 	jal	404e10 <memcpy>
  4010bc:	00000000 	nop
/home/git/21373271/21373271/user/lib/fork.c:46
	// Step 5: Map the page at 'UCOW' to 'va' with the new 'perm'.
	/* Exercise 4.13: Your code here. (5/6) */
	//debugf("syscall_mem_map\n");
	syscall_mem_map(0,(void*)UCOW,0,(void*)va,perm);
  4010c0:	8fc30018 	lw	v1,24(s8)
  4010c4:	8fc2001c 	lw	v0,28(s8)
  4010c8:	00000000 	nop
  4010cc:	afa20010 	sw	v0,16(sp)
  4010d0:	00603825 	move	a3,v1
  4010d4:	00003025 	move	a2,zero
  4010d8:	3c02003f 	lui	v0,0x3f
  4010dc:	3445f000 	ori	a1,v0,0xf000
  4010e0:	00002025 	move	a0,zero
  4010e4:	0c100577 	jal	4015dc <syscall_mem_map>
  4010e8:	00000000 	nop
/home/git/21373271/21373271/user/lib/fork.c:50
	// Step 6: Unmap the page at 'UCOW'.
	/* Exercise 4.13: Your code here. (6/6) */
	//debugf("syscall_mem_unmap\n");
	syscall_mem_unmap(0,(void*)UCOW);
  4010ec:	3c02003f 	lui	v0,0x3f
  4010f0:	3445f000 	ori	a1,v0,0xf000
  4010f4:	00002025 	move	a0,zero
  4010f8:	0c100591 	jal	401644 <syscall_mem_unmap>
  4010fc:	00000000 	nop
/home/git/21373271/21373271/user/lib/fork.c:52
	// Step 7: Return to the faulting routine.
	int r = syscall_set_trapframe(0, tf);
  401100:	8fc50030 	lw	a1,48(s8)
  401104:	00002025 	move	a0,zero
  401108:	0c1005b3 	jal	4016cc <syscall_set_trapframe>
  40110c:	00000000 	nop
  401110:	afc20020 	sw	v0,32(s8)
/home/git/21373271/21373271/user/lib/fork.c:53
	user_panic("syscall_set_trapframe returned %d", r);
  401114:	8fc70020 	lw	a3,32(s8)
  401118:	3c020040 	lui	v0,0x40
  40111c:	244679c8 	addiu	a2,v0,31176
  401120:	24050035 	li	a1,53
  401124:	3c020040 	lui	v0,0x40
  401128:	244479bc 	addiu	a0,v0,31164
  40112c:	0c100393 	jal	400e4c <_user_panic>
  401130:	00000000 	nop

00401134 <duppage>:
duppage():
/home/git/21373271/21373271/user/lib/fork.c:78
 *   - You can pass '0' as an 'envid' in arguments of 'syscall_*' to indicate current env because
 *     kernel 'envid2env' converts '0' to 'curenv').
 *   - You should use 'syscall_mem_map', the user space wrapper around 'msyscall' to invoke
 *     'sys_mem_map' in kernel.
 */
static void duppage(u_int envid, u_int vpn) {
  401134:	27bdffd0 	addiu	sp,sp,-48
  401138:	afbf002c 	sw	ra,44(sp)
  40113c:	afbe0028 	sw	s8,40(sp)
  401140:	03a0f025 	move	s8,sp
  401144:	afc40030 	sw	a0,48(s8)
  401148:	afc50034 	sw	a1,52(s8)
/home/git/21373271/21373271/user/lib/fork.c:85
	u_int perm;

	/* Step 1: Get the permission of the page. */
	/* Hint: Use 'vpt' to find the page table entry. */
	/* Exercise 4.10: Your code here. (1/2) */
	addr = vpn << PGSHIFT;
  40114c:	8fc20034 	lw	v0,52(s8)
  401150:	00000000 	nop
  401154:	00021300 	sll	v0,v0,0xc
  401158:	afc20020 	sw	v0,32(s8)
/home/git/21373271/21373271/user/lib/fork.c:86
	perm = *(vpt + vpn) & 0xfff;
  40115c:	8fc20034 	lw	v0,52(s8)
  401160:	00000000 	nop
  401164:	00021880 	sll	v1,v0,0x2
  401168:	3c027fc0 	lui	v0,0x7fc0
  40116c:	00621021 	addu	v0,v1,v0
  401170:	8c420000 	lw	v0,0(v0)
  401174:	00000000 	nop
  401178:	30420fff 	andi	v0,v0,0xfff
  40117c:	afc20018 	sw	v0,24(s8)
/home/git/21373271/21373271/user/lib/fork.c:92
	/* Step 2: If the page is writable, and not shared with children, and not marked as COW yet,
	 * then map it as copy-on-write, both in the parent (0) and the child (envid). */
	/* Hint: The page should be first mapped to the child before remapped in the parent. (Why?)
	 */
	/* Exercise 4.10: Your code here. (2/2) */
	int flag = 0;
  401180:	afc0001c 	sw	zero,28(s8)
/home/git/21373271/21373271/user/lib/fork.c:93
	if ( (perm & PTE_D) && !(perm & PTE_LIBRARY) && !(perm & PTE_COW) )
  401184:	8fc20018 	lw	v0,24(s8)
  401188:	00000000 	nop
  40118c:	30420400 	andi	v0,v0,0x400
  401190:	10400012 	beqz	v0,4011dc <duppage+0xa8>
  401194:	00000000 	nop
/home/git/21373271/21373271/user/lib/fork.c:93 (discriminator 1)
  401198:	8fc20018 	lw	v0,24(s8)
  40119c:	00000000 	nop
  4011a0:	30420004 	andi	v0,v0,0x4
  4011a4:	1440000d 	bnez	v0,4011dc <duppage+0xa8>
  4011a8:	00000000 	nop
/home/git/21373271/21373271/user/lib/fork.c:93 (discriminator 2)
  4011ac:	8fc20018 	lw	v0,24(s8)
  4011b0:	00000000 	nop
  4011b4:	30420001 	andi	v0,v0,0x1
  4011b8:	14400008 	bnez	v0,4011dc <duppage+0xa8>
  4011bc:	00000000 	nop
/home/git/21373271/21373271/user/lib/fork.c:95
	{
		perm = (perm | PTE_COW) & ~PTE_D;
  4011c0:	8fc30018 	lw	v1,24(s8)
  4011c4:	2402fbfe 	li	v0,-1026
  4011c8:	00621024 	and	v0,v1,v0
  4011cc:	34420001 	ori	v0,v0,0x1
  4011d0:	afc20018 	sw	v0,24(s8)
/home/git/21373271/21373271/user/lib/fork.c:96
		flag = 1;
  4011d4:	24020001 	li	v0,1
  4011d8:	afc2001c 	sw	v0,28(s8)
/home/git/21373271/21373271/user/lib/fork.c:98
	}
	syscall_mem_map(0,(void*)addr,envid,(void*)addr,perm);
  4011dc:	8fc30020 	lw	v1,32(s8)
  4011e0:	8fc40020 	lw	a0,32(s8)
  4011e4:	8fc20018 	lw	v0,24(s8)
  4011e8:	00000000 	nop
  4011ec:	afa20010 	sw	v0,16(sp)
  4011f0:	00803825 	move	a3,a0
  4011f4:	8fc60030 	lw	a2,48(s8)
  4011f8:	00602825 	move	a1,v1
  4011fc:	00002025 	move	a0,zero
  401200:	0c100577 	jal	4015dc <syscall_mem_map>
  401204:	00000000 	nop
/home/git/21373271/21373271/user/lib/fork.c:99
	if (flag)
  401208:	8fc2001c 	lw	v0,28(s8)
  40120c:	00000000 	nop
  401210:	1040000c 	beqz	v0,401244 <duppage+0x110>
  401214:	00000000 	nop
/home/git/21373271/21373271/user/lib/fork.c:101
	{
		syscall_mem_map(0,(void*)addr,0,(void*)addr,perm);
  401218:	8fc30020 	lw	v1,32(s8)
  40121c:	8fc40020 	lw	a0,32(s8)
  401220:	8fc20018 	lw	v0,24(s8)
  401224:	00000000 	nop
  401228:	afa20010 	sw	v0,16(sp)
  40122c:	00803825 	move	a3,a0
  401230:	00003025 	move	a2,zero
  401234:	00602825 	move	a1,v1
  401238:	00002025 	move	a0,zero
  40123c:	0c100577 	jal	4015dc <syscall_mem_map>
  401240:	00000000 	nop
/home/git/21373271/21373271/user/lib/fork.c:103
	}
}
  401244:	00000000 	nop
  401248:	03c0e825 	move	sp,s8
  40124c:	8fbf002c 	lw	ra,44(sp)
  401250:	8fbe0028 	lw	s8,40(sp)
  401254:	27bd0030 	addiu	sp,sp,48
  401258:	03e00008 	jr	ra
  40125c:	00000000 	nop

00401260 <fork>:
fork():
/home/git/21373271/21373271/user/lib/fork.c:116
 *
 * Hint:
 *   Use global symbols 'env', 'vpt' and 'vpd'.
 *   Use 'syscall_set_tlb_mod_entry', 'syscall_getenvid', 'syscall_exofork',  and 'duppage'.
 */
int fork(void) {
  401260:	27bdffd0 	addiu	sp,sp,-48
  401264:	afbf002c 	sw	ra,44(sp)
  401268:	afbe0028 	sw	s8,40(sp)
  40126c:	03a0f025 	move	s8,sp
/home/git/21373271/21373271/user/lib/fork.c:122
	u_int child;
	u_int i;
	extern volatile struct Env *env;
	//debugf("我进来了！\n");
	/* step 1: Set our TLB Mod user exception entry to 'cow_entry' if not done yet. */
	if (env->env_user_tlb_mod_entry != (u_int)cow_entry) 
  401270:	3c020041 	lui	v0,0x41
  401274:	8c42e000 	lw	v0,-8192(v0)
  401278:	00000000 	nop
  40127c:	8c4300d4 	lw	v1,212(v0)
  401280:	3c020040 	lui	v0,0x40
  401284:	24420ff0 	addiu	v0,v0,4080
  401288:	1062000e 	beq	v1,v0,4012c4 <fork+0x64>
  40128c:	00000000 	nop
/home/git/21373271/21373271/user/lib/fork.c:125
	{	
		//debugf("我尝试了\n");
		try(syscall_set_tlb_mod_entry(0, cow_entry));
  401290:	3c020040 	lui	v0,0x40
  401294:	24450ff0 	addiu	a1,v0,4080
  401298:	00002025 	move	a0,zero
  40129c:	0c100553 	jal	40154c <syscall_set_tlb_mod_entry>
  4012a0:	00000000 	nop
  4012a4:	afc2001c 	sw	v0,28(s8)
  4012a8:	8fc2001c 	lw	v0,28(s8)
  4012ac:	00000000 	nop
  4012b0:	10400004 	beqz	v0,4012c4 <fork+0x64>
  4012b4:	00000000 	nop
/home/git/21373271/21373271/user/lib/fork.c:125 (discriminator 1)
  4012b8:	8fc2001c 	lw	v0,28(s8)
  4012bc:	10000050 	b	401400 <fork+0x1a0>
  4012c0:	00000000 	nop
syscall_exofork():
/home/git/21373271/21373271/user/include/lib.h:60
int syscall_env_destroy(u_int envid);
int syscall_set_tlb_mod_entry(u_int envid, void (*func)(struct Trapframe *));
int syscall_mem_alloc(u_int envid, void *va, u_int perm);
int syscall_mem_map(u_int srcid, void *srcva, u_int dstid, void *dstva, u_int perm);
int syscall_mem_unmap(u_int envid, void *va);

  4012c4:	afa00014 	sw	zero,20(sp)
  4012c8:	afa00010 	sw	zero,16(sp)
  4012cc:	00003825 	move	a3,zero
  4012d0:	00003025 	move	a2,zero
  4012d4:	00002825 	move	a1,zero
  4012d8:	24040009 	li	a0,9
  4012dc:	0c1002dc 	jal	400b70 <msyscall>
  4012e0:	00000000 	nop
fork():
/home/git/21373271/21373271/user/lib/fork.c:132

	/* Step 2: Create a child env that's not ready to be scheduled. */
	// Hint: 'env' should always point to the current env itself, so we should fix it to the
	// correct value.
	//debugf("%d\n",child);
	child = syscall_exofork();
  4012e4:	afc20020 	sw	v0,32(s8)
/home/git/21373271/21373271/user/lib/fork.c:134
	//debugf("%d\n",child);
	if (child == 0) {
  4012e8:	8fc20020 	lw	v0,32(s8)
  4012ec:	00000000 	nop
  4012f0:	14400012 	bnez	v0,40133c <fork+0xdc>
  4012f4:	00000000 	nop
/home/git/21373271/21373271/user/lib/fork.c:135
		env = envs + ENVX(syscall_getenvid());
  4012f8:	0c100529 	jal	4014a4 <syscall_getenvid>
  4012fc:	00000000 	nop
  401300:	304303ff 	andi	v1,v0,0x3ff
  401304:	00601025 	move	v0,v1
  401308:	000210c0 	sll	v0,v0,0x3
  40130c:	00431023 	subu	v0,v0,v1
  401310:	000210c0 	sll	v0,v0,0x3
  401314:	00431023 	subu	v0,v0,v1
  401318:	00021080 	sll	v0,v0,0x2
  40131c:	00401825 	move	v1,v0
  401320:	3c027f40 	lui	v0,0x7f40
  401324:	00621821 	addu	v1,v1,v0
  401328:	3c020041 	lui	v0,0x41
  40132c:	ac43e000 	sw	v1,-8192(v0)
/home/git/21373271/21373271/user/lib/fork.c:136
		return 0;
  401330:	00001025 	move	v0,zero
  401334:	10000032 	b	401400 <fork+0x1a0>
  401338:	00000000 	nop
/home/git/21373271/21373271/user/lib/fork.c:142
	}

	/* Step 3: Map all mapped pages below 'USTACKTOP' into the child's address space. */
	// Hint: You should use 'duppage'.
	/* Exercise 4.15: Your code here. (1/2) */
	for (i = 0 ; i < VPN(USTACKTOP) ; i++ )
  40133c:	afc00018 	sw	zero,24(s8)
  401340:	1000001f 	b	4013c0 <fork+0x160>
  401344:	00000000 	nop
/home/git/21373271/21373271/user/lib/fork.c:144
	{
		if ( (*(vpd+(i>>10)) & PTE_V) && (*(vpt+i) & PTE_V) )
  401348:	8fc20018 	lw	v0,24(s8)
  40134c:	00000000 	nop
  401350:	00021282 	srl	v0,v0,0xa
  401354:	00021880 	sll	v1,v0,0x2
  401358:	3c027fdf 	lui	v0,0x7fdf
  40135c:	3442f000 	ori	v0,v0,0xf000
  401360:	00621021 	addu	v0,v1,v0
  401364:	8c420000 	lw	v0,0(v0)
  401368:	00000000 	nop
  40136c:	30420200 	andi	v0,v0,0x200
  401370:	1040000f 	beqz	v0,4013b0 <fork+0x150>
  401374:	00000000 	nop
/home/git/21373271/21373271/user/lib/fork.c:144 (discriminator 1)
  401378:	8fc20018 	lw	v0,24(s8)
  40137c:	00000000 	nop
  401380:	00021880 	sll	v1,v0,0x2
  401384:	3c027fc0 	lui	v0,0x7fc0
  401388:	00621021 	addu	v0,v1,v0
  40138c:	8c420000 	lw	v0,0(v0)
  401390:	00000000 	nop
  401394:	30420200 	andi	v0,v0,0x200
  401398:	10400005 	beqz	v0,4013b0 <fork+0x150>
  40139c:	00000000 	nop
/home/git/21373271/21373271/user/lib/fork.c:146
		{
			duppage(child,i);
  4013a0:	8fc50018 	lw	a1,24(s8)
  4013a4:	8fc40020 	lw	a0,32(s8)
  4013a8:	0c10044d 	jal	401134 <duppage>
  4013ac:	00000000 	nop
/home/git/21373271/21373271/user/lib/fork.c:142 (discriminator 2)
	for (i = 0 ; i < VPN(USTACKTOP) ; i++ )
  4013b0:	8fc20018 	lw	v0,24(s8)
  4013b4:	00000000 	nop
  4013b8:	24420001 	addiu	v0,v0,1
  4013bc:	afc20018 	sw	v0,24(s8)
/home/git/21373271/21373271/user/lib/fork.c:142 (discriminator 1)
  4013c0:	8fc30018 	lw	v1,24(s8)
  4013c4:	3c020007 	lui	v0,0x7
  4013c8:	3442f3fe 	ori	v0,v0,0xf3fe
  4013cc:	0062102b 	sltu	v0,v1,v0
  4013d0:	1440ffdd 	bnez	v0,401348 <fork+0xe8>
  4013d4:	00000000 	nop
/home/git/21373271/21373271/user/lib/fork.c:156
	/* Hint:
	 *   You may use 'syscall_set_tlb_mod_entry' and 'syscall_set_env_status'
	 *   Child's TLB Mod user exception entry should handle COW, so set it to 'cow_entry'
	 */
	/* Exercise 4.15: Your code here. (2/2) */
	syscall_set_tlb_mod_entry(child,cow_entry);
  4013d8:	3c020040 	lui	v0,0x40
  4013dc:	24450ff0 	addiu	a1,v0,4080
  4013e0:	8fc40020 	lw	a0,32(s8)
  4013e4:	0c100553 	jal	40154c <syscall_set_tlb_mod_entry>
  4013e8:	00000000 	nop
/home/git/21373271/21373271/user/lib/fork.c:157
	syscall_set_env_status(child,ENV_RUNNABLE);
  4013ec:	24050001 	li	a1,1
  4013f0:	8fc40020 	lw	a0,32(s8)
  4013f4:	0c1005a2 	jal	401688 <syscall_set_env_status>
  4013f8:	00000000 	nop
/home/git/21373271/21373271/user/lib/fork.c:158
	return child;
  4013fc:	8fc20020 	lw	v0,32(s8)
/home/git/21373271/21373271/user/lib/fork.c:159
}
  401400:	03c0e825 	move	sp,s8
  401404:	8fbf002c 	lw	ra,44(sp)
  401408:	8fbe0028 	lw	s8,40(sp)
  40140c:	27bd0030 	addiu	sp,sp,48
  401410:	03e00008 	jr	ra
  401414:	00000000 	nop
	...

00401420 <syscall_putchar>:
syscall_putchar():
/home/git/21373271/21373271/user/lib/syscall_lib.c:7
#include <lib.h>
#include <mmu.h>
#include <syscall.h>
#include <trap.h>

void syscall_putchar(int ch) {
  401420:	27bdffe8 	addiu	sp,sp,-24
  401424:	afbf0014 	sw	ra,20(sp)
  401428:	afbe0010 	sw	s8,16(sp)
  40142c:	03a0f025 	move	s8,sp
  401430:	afc40018 	sw	a0,24(s8)
/home/git/21373271/21373271/user/lib/syscall_lib.c:8
	msyscall(SYS_putchar, ch);
  401434:	8fc50018 	lw	a1,24(s8)
  401438:	00002025 	move	a0,zero
  40143c:	0c1002dc 	jal	400b70 <msyscall>
  401440:	00000000 	nop
/home/git/21373271/21373271/user/lib/syscall_lib.c:9
}
  401444:	00000000 	nop
  401448:	03c0e825 	move	sp,s8
  40144c:	8fbf0014 	lw	ra,20(sp)
  401450:	8fbe0010 	lw	s8,16(sp)
  401454:	27bd0018 	addiu	sp,sp,24
  401458:	03e00008 	jr	ra
  40145c:	00000000 	nop

00401460 <syscall_print_cons>:
syscall_print_cons():
/home/git/21373271/21373271/user/lib/syscall_lib.c:11

int syscall_print_cons(const void *str, u_int num) {
  401460:	27bdffe8 	addiu	sp,sp,-24
  401464:	afbf0014 	sw	ra,20(sp)
  401468:	afbe0010 	sw	s8,16(sp)
  40146c:	03a0f025 	move	s8,sp
  401470:	afc40018 	sw	a0,24(s8)
  401474:	afc5001c 	sw	a1,28(s8)
/home/git/21373271/21373271/user/lib/syscall_lib.c:12
	return msyscall(SYS_print_cons, str, num);
  401478:	8fc6001c 	lw	a2,28(s8)
  40147c:	8fc50018 	lw	a1,24(s8)
  401480:	24040001 	li	a0,1
  401484:	0c1002dc 	jal	400b70 <msyscall>
  401488:	00000000 	nop
/home/git/21373271/21373271/user/lib/syscall_lib.c:13
}
  40148c:	03c0e825 	move	sp,s8
  401490:	8fbf0014 	lw	ra,20(sp)
  401494:	8fbe0010 	lw	s8,16(sp)
  401498:	27bd0018 	addiu	sp,sp,24
  40149c:	03e00008 	jr	ra
  4014a0:	00000000 	nop

004014a4 <syscall_getenvid>:
syscall_getenvid():
/home/git/21373271/21373271/user/lib/syscall_lib.c:15

u_int syscall_getenvid(void) {
  4014a4:	27bdffe8 	addiu	sp,sp,-24
  4014a8:	afbf0014 	sw	ra,20(sp)
  4014ac:	afbe0010 	sw	s8,16(sp)
  4014b0:	03a0f025 	move	s8,sp
/home/git/21373271/21373271/user/lib/syscall_lib.c:16
	return msyscall(SYS_getenvid);
  4014b4:	24040002 	li	a0,2
  4014b8:	0c1002dc 	jal	400b70 <msyscall>
  4014bc:	00000000 	nop
/home/git/21373271/21373271/user/lib/syscall_lib.c:17
}
  4014c0:	03c0e825 	move	sp,s8
  4014c4:	8fbf0014 	lw	ra,20(sp)
  4014c8:	8fbe0010 	lw	s8,16(sp)
  4014cc:	27bd0018 	addiu	sp,sp,24
  4014d0:	03e00008 	jr	ra
  4014d4:	00000000 	nop

004014d8 <syscall_yield>:
syscall_yield():
/home/git/21373271/21373271/user/lib/syscall_lib.c:19

void syscall_yield(void) {
  4014d8:	27bdffe8 	addiu	sp,sp,-24
  4014dc:	afbf0014 	sw	ra,20(sp)
  4014e0:	afbe0010 	sw	s8,16(sp)
  4014e4:	03a0f025 	move	s8,sp
/home/git/21373271/21373271/user/lib/syscall_lib.c:20
	msyscall(SYS_yield);
  4014e8:	24040003 	li	a0,3
  4014ec:	0c1002dc 	jal	400b70 <msyscall>
  4014f0:	00000000 	nop
/home/git/21373271/21373271/user/lib/syscall_lib.c:21
}
  4014f4:	00000000 	nop
  4014f8:	03c0e825 	move	sp,s8
  4014fc:	8fbf0014 	lw	ra,20(sp)
  401500:	8fbe0010 	lw	s8,16(sp)
  401504:	27bd0018 	addiu	sp,sp,24
  401508:	03e00008 	jr	ra
  40150c:	00000000 	nop

00401510 <syscall_env_destroy>:
syscall_env_destroy():
/home/git/21373271/21373271/user/lib/syscall_lib.c:23

int syscall_env_destroy(u_int envid) {
  401510:	27bdffe8 	addiu	sp,sp,-24
  401514:	afbf0014 	sw	ra,20(sp)
  401518:	afbe0010 	sw	s8,16(sp)
  40151c:	03a0f025 	move	s8,sp
  401520:	afc40018 	sw	a0,24(s8)
/home/git/21373271/21373271/user/lib/syscall_lib.c:24
	return msyscall(SYS_env_destroy, envid);
  401524:	8fc50018 	lw	a1,24(s8)
  401528:	24040004 	li	a0,4
  40152c:	0c1002dc 	jal	400b70 <msyscall>
  401530:	00000000 	nop
/home/git/21373271/21373271/user/lib/syscall_lib.c:25
}
  401534:	03c0e825 	move	sp,s8
  401538:	8fbf0014 	lw	ra,20(sp)
  40153c:	8fbe0010 	lw	s8,16(sp)
  401540:	27bd0018 	addiu	sp,sp,24
  401544:	03e00008 	jr	ra
  401548:	00000000 	nop

0040154c <syscall_set_tlb_mod_entry>:
syscall_set_tlb_mod_entry():
/home/git/21373271/21373271/user/lib/syscall_lib.c:27

int syscall_set_tlb_mod_entry(u_int envid, void (*func)(struct Trapframe *)) {
  40154c:	27bdffe8 	addiu	sp,sp,-24
  401550:	afbf0014 	sw	ra,20(sp)
  401554:	afbe0010 	sw	s8,16(sp)
  401558:	03a0f025 	move	s8,sp
  40155c:	afc40018 	sw	a0,24(s8)
  401560:	afc5001c 	sw	a1,28(s8)
/home/git/21373271/21373271/user/lib/syscall_lib.c:28
	return msyscall(SYS_set_tlb_mod_entry, envid, func);
  401564:	8fc6001c 	lw	a2,28(s8)
  401568:	8fc50018 	lw	a1,24(s8)
  40156c:	24040005 	li	a0,5
  401570:	0c1002dc 	jal	400b70 <msyscall>
  401574:	00000000 	nop
/home/git/21373271/21373271/user/lib/syscall_lib.c:29
}
  401578:	03c0e825 	move	sp,s8
  40157c:	8fbf0014 	lw	ra,20(sp)
  401580:	8fbe0010 	lw	s8,16(sp)
  401584:	27bd0018 	addiu	sp,sp,24
  401588:	03e00008 	jr	ra
  40158c:	00000000 	nop

00401590 <syscall_mem_alloc>:
syscall_mem_alloc():
/home/git/21373271/21373271/user/lib/syscall_lib.c:31

int syscall_mem_alloc(u_int envid, void *va, u_int perm) {
  401590:	27bdffe8 	addiu	sp,sp,-24
  401594:	afbf0014 	sw	ra,20(sp)
  401598:	afbe0010 	sw	s8,16(sp)
  40159c:	03a0f025 	move	s8,sp
  4015a0:	afc40018 	sw	a0,24(s8)
  4015a4:	afc5001c 	sw	a1,28(s8)
  4015a8:	afc60020 	sw	a2,32(s8)
/home/git/21373271/21373271/user/lib/syscall_lib.c:32
	return msyscall(SYS_mem_alloc, envid, va, perm);
  4015ac:	8fc70020 	lw	a3,32(s8)
  4015b0:	8fc6001c 	lw	a2,28(s8)
  4015b4:	8fc50018 	lw	a1,24(s8)
  4015b8:	24040006 	li	a0,6
  4015bc:	0c1002dc 	jal	400b70 <msyscall>
  4015c0:	00000000 	nop
/home/git/21373271/21373271/user/lib/syscall_lib.c:33
}
  4015c4:	03c0e825 	move	sp,s8
  4015c8:	8fbf0014 	lw	ra,20(sp)
  4015cc:	8fbe0010 	lw	s8,16(sp)
  4015d0:	27bd0018 	addiu	sp,sp,24
  4015d4:	03e00008 	jr	ra
  4015d8:	00000000 	nop

004015dc <syscall_mem_map>:
syscall_mem_map():
/home/git/21373271/21373271/user/lib/syscall_lib.c:35

int syscall_mem_map(u_int srcid, void *srcva, u_int dstid, void *dstva, u_int perm) {
  4015dc:	27bdffe0 	addiu	sp,sp,-32
  4015e0:	afbf001c 	sw	ra,28(sp)
  4015e4:	afbe0018 	sw	s8,24(sp)
  4015e8:	03a0f025 	move	s8,sp
  4015ec:	afc40020 	sw	a0,32(s8)
  4015f0:	afc50024 	sw	a1,36(s8)
  4015f4:	afc60028 	sw	a2,40(s8)
  4015f8:	afc7002c 	sw	a3,44(s8)
/home/git/21373271/21373271/user/lib/syscall_lib.c:36
	return msyscall(SYS_mem_map, srcid, srcva, dstid, dstva, perm);
  4015fc:	8fc20030 	lw	v0,48(s8)
  401600:	00000000 	nop
  401604:	afa20014 	sw	v0,20(sp)
  401608:	8fc2002c 	lw	v0,44(s8)
  40160c:	00000000 	nop
  401610:	afa20010 	sw	v0,16(sp)
  401614:	8fc70028 	lw	a3,40(s8)
  401618:	8fc60024 	lw	a2,36(s8)
  40161c:	8fc50020 	lw	a1,32(s8)
  401620:	24040007 	li	a0,7
  401624:	0c1002dc 	jal	400b70 <msyscall>
  401628:	00000000 	nop
/home/git/21373271/21373271/user/lib/syscall_lib.c:37
}
  40162c:	03c0e825 	move	sp,s8
  401630:	8fbf001c 	lw	ra,28(sp)
  401634:	8fbe0018 	lw	s8,24(sp)
  401638:	27bd0020 	addiu	sp,sp,32
  40163c:	03e00008 	jr	ra
  401640:	00000000 	nop

00401644 <syscall_mem_unmap>:
syscall_mem_unmap():
/home/git/21373271/21373271/user/lib/syscall_lib.c:39

int syscall_mem_unmap(u_int envid, void *va) {
  401644:	27bdffe8 	addiu	sp,sp,-24
  401648:	afbf0014 	sw	ra,20(sp)
  40164c:	afbe0010 	sw	s8,16(sp)
  401650:	03a0f025 	move	s8,sp
  401654:	afc40018 	sw	a0,24(s8)
  401658:	afc5001c 	sw	a1,28(s8)
/home/git/21373271/21373271/user/lib/syscall_lib.c:40
	return msyscall(SYS_mem_unmap, envid, va);
  40165c:	8fc6001c 	lw	a2,28(s8)
  401660:	8fc50018 	lw	a1,24(s8)
  401664:	24040008 	li	a0,8
  401668:	0c1002dc 	jal	400b70 <msyscall>
  40166c:	00000000 	nop
/home/git/21373271/21373271/user/lib/syscall_lib.c:41
}
  401670:	03c0e825 	move	sp,s8
  401674:	8fbf0014 	lw	ra,20(sp)
  401678:	8fbe0010 	lw	s8,16(sp)
  40167c:	27bd0018 	addiu	sp,sp,24
  401680:	03e00008 	jr	ra
  401684:	00000000 	nop

00401688 <syscall_set_env_status>:
syscall_set_env_status():
/home/git/21373271/21373271/user/lib/syscall_lib.c:43

int syscall_set_env_status(u_int envid, u_int status) {
  401688:	27bdffe8 	addiu	sp,sp,-24
  40168c:	afbf0014 	sw	ra,20(sp)
  401690:	afbe0010 	sw	s8,16(sp)
  401694:	03a0f025 	move	s8,sp
  401698:	afc40018 	sw	a0,24(s8)
  40169c:	afc5001c 	sw	a1,28(s8)
/home/git/21373271/21373271/user/lib/syscall_lib.c:44
	return msyscall(SYS_set_env_status, envid, status);
  4016a0:	8fc6001c 	lw	a2,28(s8)
  4016a4:	8fc50018 	lw	a1,24(s8)
  4016a8:	2404000a 	li	a0,10
  4016ac:	0c1002dc 	jal	400b70 <msyscall>
  4016b0:	00000000 	nop
/home/git/21373271/21373271/user/lib/syscall_lib.c:45
}
  4016b4:	03c0e825 	move	sp,s8
  4016b8:	8fbf0014 	lw	ra,20(sp)
  4016bc:	8fbe0010 	lw	s8,16(sp)
  4016c0:	27bd0018 	addiu	sp,sp,24
  4016c4:	03e00008 	jr	ra
  4016c8:	00000000 	nop

004016cc <syscall_set_trapframe>:
syscall_set_trapframe():
/home/git/21373271/21373271/user/lib/syscall_lib.c:47

int syscall_set_trapframe(u_int envid, struct Trapframe *tf) {
  4016cc:	27bdffe8 	addiu	sp,sp,-24
  4016d0:	afbf0014 	sw	ra,20(sp)
  4016d4:	afbe0010 	sw	s8,16(sp)
  4016d8:	03a0f025 	move	s8,sp
  4016dc:	afc40018 	sw	a0,24(s8)
  4016e0:	afc5001c 	sw	a1,28(s8)
/home/git/21373271/21373271/user/lib/syscall_lib.c:48
	return msyscall(SYS_set_trapframe, envid, tf);
  4016e4:	8fc6001c 	lw	a2,28(s8)
  4016e8:	8fc50018 	lw	a1,24(s8)
  4016ec:	2404000b 	li	a0,11
  4016f0:	0c1002dc 	jal	400b70 <msyscall>
  4016f4:	00000000 	nop
/home/git/21373271/21373271/user/lib/syscall_lib.c:49
}
  4016f8:	03c0e825 	move	sp,s8
  4016fc:	8fbf0014 	lw	ra,20(sp)
  401700:	8fbe0010 	lw	s8,16(sp)
  401704:	27bd0018 	addiu	sp,sp,24
  401708:	03e00008 	jr	ra
  40170c:	00000000 	nop

00401710 <syscall_panic>:
syscall_panic():
/home/git/21373271/21373271/user/lib/syscall_lib.c:51

void syscall_panic(const char *msg) {
  401710:	27bdffe0 	addiu	sp,sp,-32
  401714:	afbf001c 	sw	ra,28(sp)
  401718:	afbe0018 	sw	s8,24(sp)
  40171c:	03a0f025 	move	s8,sp
  401720:	afc40020 	sw	a0,32(s8)
/home/git/21373271/21373271/user/lib/syscall_lib.c:52
	int r = msyscall(SYS_panic, msg);
  401724:	8fc50020 	lw	a1,32(s8)
  401728:	2404000c 	li	a0,12
  40172c:	0c1002dc 	jal	400b70 <msyscall>
  401730:	00000000 	nop
  401734:	afc20010 	sw	v0,16(s8)
/home/git/21373271/21373271/user/lib/syscall_lib.c:53
	user_panic("SYS_panic returned %d", r);
  401738:	8fc70010 	lw	a3,16(s8)
  40173c:	3c020040 	lui	v0,0x40
  401740:	244679f0 	addiu	a2,v0,31216
  401744:	24050035 	li	a1,53
  401748:	3c020040 	lui	v0,0x40
  40174c:	24447a08 	addiu	a0,v0,31240
  401750:	0c100393 	jal	400e4c <_user_panic>
  401754:	00000000 	nop

00401758 <syscall_ipc_try_send>:
syscall_ipc_try_send():
/home/git/21373271/21373271/user/lib/syscall_lib.c:56
}

int syscall_ipc_try_send(u_int envid, u_int value, const void *srcva, u_int perm) {
  401758:	27bdffe0 	addiu	sp,sp,-32
  40175c:	afbf001c 	sw	ra,28(sp)
  401760:	afbe0018 	sw	s8,24(sp)
  401764:	03a0f025 	move	s8,sp
  401768:	afc40020 	sw	a0,32(s8)
  40176c:	afc50024 	sw	a1,36(s8)
  401770:	afc60028 	sw	a2,40(s8)
  401774:	afc7002c 	sw	a3,44(s8)
/home/git/21373271/21373271/user/lib/syscall_lib.c:57
	return msyscall(SYS_ipc_try_send, envid, value, srcva, perm);
  401778:	8fc2002c 	lw	v0,44(s8)
  40177c:	00000000 	nop
  401780:	afa20010 	sw	v0,16(sp)
  401784:	8fc70028 	lw	a3,40(s8)
  401788:	8fc60024 	lw	a2,36(s8)
  40178c:	8fc50020 	lw	a1,32(s8)
  401790:	2404000d 	li	a0,13
  401794:	0c1002dc 	jal	400b70 <msyscall>
  401798:	00000000 	nop
/home/git/21373271/21373271/user/lib/syscall_lib.c:58
}
  40179c:	03c0e825 	move	sp,s8
  4017a0:	8fbf001c 	lw	ra,28(sp)
  4017a4:	8fbe0018 	lw	s8,24(sp)
  4017a8:	27bd0020 	addiu	sp,sp,32
  4017ac:	03e00008 	jr	ra
  4017b0:	00000000 	nop

004017b4 <syscall_ipc_recv>:
syscall_ipc_recv():
/home/git/21373271/21373271/user/lib/syscall_lib.c:60

int syscall_ipc_recv(void *dstva) {
  4017b4:	27bdffe8 	addiu	sp,sp,-24
  4017b8:	afbf0014 	sw	ra,20(sp)
  4017bc:	afbe0010 	sw	s8,16(sp)
  4017c0:	03a0f025 	move	s8,sp
  4017c4:	afc40018 	sw	a0,24(s8)
/home/git/21373271/21373271/user/lib/syscall_lib.c:61
	return msyscall(SYS_ipc_recv, dstva);
  4017c8:	8fc50018 	lw	a1,24(s8)
  4017cc:	2404000e 	li	a0,14
  4017d0:	0c1002dc 	jal	400b70 <msyscall>
  4017d4:	00000000 	nop
/home/git/21373271/21373271/user/lib/syscall_lib.c:62
}
  4017d8:	03c0e825 	move	sp,s8
  4017dc:	8fbf0014 	lw	ra,20(sp)
  4017e0:	8fbe0010 	lw	s8,16(sp)
  4017e4:	27bd0018 	addiu	sp,sp,24
  4017e8:	03e00008 	jr	ra
  4017ec:	00000000 	nop

004017f0 <syscall_cgetc>:
syscall_cgetc():
/home/git/21373271/21373271/user/lib/syscall_lib.c:64

int syscall_cgetc() {
  4017f0:	27bdffe8 	addiu	sp,sp,-24
  4017f4:	afbf0014 	sw	ra,20(sp)
  4017f8:	afbe0010 	sw	s8,16(sp)
  4017fc:	03a0f025 	move	s8,sp
/home/git/21373271/21373271/user/lib/syscall_lib.c:65
	return msyscall(SYS_cgetc);
  401800:	2404000f 	li	a0,15
  401804:	0c1002dc 	jal	400b70 <msyscall>
  401808:	00000000 	nop
/home/git/21373271/21373271/user/lib/syscall_lib.c:66
}
  40180c:	03c0e825 	move	sp,s8
  401810:	8fbf0014 	lw	ra,20(sp)
  401814:	8fbe0010 	lw	s8,16(sp)
  401818:	27bd0018 	addiu	sp,sp,24
  40181c:	03e00008 	jr	ra
  401820:	00000000 	nop

00401824 <syscall_write_dev>:
syscall_write_dev():
/home/git/21373271/21373271/user/lib/syscall_lib.c:68

int syscall_write_dev(void *va, u_int dev, u_int len) {
  401824:	27bdffe8 	addiu	sp,sp,-24
  401828:	afbf0014 	sw	ra,20(sp)
  40182c:	afbe0010 	sw	s8,16(sp)
  401830:	03a0f025 	move	s8,sp
  401834:	afc40018 	sw	a0,24(s8)
  401838:	afc5001c 	sw	a1,28(s8)
  40183c:	afc60020 	sw	a2,32(s8)
/home/git/21373271/21373271/user/lib/syscall_lib.c:70
	/* Exercise 5.2: Your code here. (1/2) */

  401840:	8fc70020 	lw	a3,32(s8)
  401844:	8fc6001c 	lw	a2,28(s8)
  401848:	8fc50018 	lw	a1,24(s8)
  40184c:	24040010 	li	a0,16
  401850:	0c1002dc 	jal	400b70 <msyscall>
  401854:	00000000 	nop
/home/git/21373271/21373271/user/lib/syscall_lib.c:71
}
  401858:	03c0e825 	move	sp,s8
  40185c:	8fbf0014 	lw	ra,20(sp)
  401860:	8fbe0010 	lw	s8,16(sp)
  401864:	27bd0018 	addiu	sp,sp,24
  401868:	03e00008 	jr	ra
  40186c:	00000000 	nop

00401870 <syscall_read_dev>:
syscall_read_dev():
/home/git/21373271/21373271/user/lib/syscall_lib.c:73

int syscall_read_dev(void *va, u_int dev, u_int len) {
  401870:	27bdffe8 	addiu	sp,sp,-24
  401874:	afbf0014 	sw	ra,20(sp)
  401878:	afbe0010 	sw	s8,16(sp)
  40187c:	03a0f025 	move	s8,sp
  401880:	afc40018 	sw	a0,24(s8)
  401884:	afc5001c 	sw	a1,28(s8)
  401888:	afc60020 	sw	a2,32(s8)
/home/git/21373271/21373271/user/lib/syscall_lib.c:75
	/* Exercise 5.2: Your code here. (2/2) */

  40188c:	8fc70020 	lw	a3,32(s8)
  401890:	8fc6001c 	lw	a2,28(s8)
  401894:	8fc50018 	lw	a1,24(s8)
  401898:	24040011 	li	a0,17
  40189c:	0c1002dc 	jal	400b70 <msyscall>
  4018a0:	00000000 	nop
/home/git/21373271/21373271/user/lib/syscall_lib.c:76
}
  4018a4:	03c0e825 	move	sp,s8
  4018a8:	8fbf0014 	lw	ra,20(sp)
  4018ac:	8fbe0010 	lw	s8,16(sp)
  4018b0:	27bd0018 	addiu	sp,sp,24
  4018b4:	03e00008 	jr	ra
  4018b8:	00000000 	nop
  4018bc:	00000000 	nop

004018c0 <ipc_send>:
ipc_send():
/home/git/21373271/21373271/user/lib/ipc.c:12




void ipc_broadcast(u_int val, void * srcva, u_int perm)
{
  4018c0:	27bdffe0 	addiu	sp,sp,-32
  4018c4:	afbf001c 	sw	ra,28(sp)
  4018c8:	afbe0018 	sw	s8,24(sp)
  4018cc:	03a0f025 	move	s8,sp
  4018d0:	afc40020 	sw	a0,32(s8)
  4018d4:	afc50024 	sw	a1,36(s8)
  4018d8:	afc60028 	sw	a2,40(s8)
  4018dc:	afc7002c 	sw	a3,44(s8)
/home/git/21373271/21373271/user/lib/ipc.c:14
	int r;
	while ((r = syscall_ipc_try_send_father(val, srcva, perm)) == -E_IPC_NOT_RECV) {
  4018e0:	10000003 	b	4018f0 <ipc_send+0x30>
  4018e4:	00000000 	nop
/home/git/21373271/21373271/user/lib/ipc.c:15
		syscall_yield();
  4018e8:	0c100536 	jal	4014d8 <syscall_yield>
  4018ec:	00000000 	nop
/home/git/21373271/21373271/user/lib/ipc.c:14
	while ((r = syscall_ipc_try_send_father(val, srcva, perm)) == -E_IPC_NOT_RECV) {
  4018f0:	8fc7002c 	lw	a3,44(s8)
  4018f4:	8fc60028 	lw	a2,40(s8)
  4018f8:	8fc50024 	lw	a1,36(s8)
  4018fc:	8fc40020 	lw	a0,32(s8)
  401900:	0c1005d6 	jal	401758 <syscall_ipc_try_send>
  401904:	00000000 	nop
  401908:	afc20010 	sw	v0,16(s8)
  40190c:	8fc30010 	lw	v1,16(s8)
  401910:	2402fff9 	li	v0,-7
  401914:	1062fff4 	beq	v1,v0,4018e8 <ipc_send+0x28>
  401918:	00000000 	nop
/home/git/21373271/21373271/user/lib/ipc.c:17
	}
	user_assert(r == 0);
  40191c:	8fc20010 	lw	v0,16(s8)
  401920:	00000000 	nop
  401924:	1040000a 	beqz	v0,401950 <ipc_send+0x90>
  401928:	00000000 	nop
/home/git/21373271/21373271/user/lib/ipc.c:17 (discriminator 1)
  40192c:	3c020040 	lui	v0,0x40
  401930:	24477a20 	addiu	a3,v0,31264
  401934:	3c020040 	lui	v0,0x40
  401938:	24467a28 	addiu	a2,v0,31272
  40193c:	24050011 	li	a1,17
  401940:	3c020040 	lui	v0,0x40
  401944:	24447a40 	addiu	a0,v0,31296
  401948:	0c100393 	jal	400e4c <_user_panic>
  40194c:	00000000 	nop
/home/git/21373271/21373271/user/lib/ipc.c:18
}
  401950:	00000000 	nop
  401954:	03c0e825 	move	sp,s8
  401958:	8fbf001c 	lw	ra,28(sp)
  40195c:	8fbe0018 	lw	s8,24(sp)
  401960:	27bd0020 	addiu	sp,sp,32
  401964:	03e00008 	jr	ra
  401968:	00000000 	nop

0040196c <ipc_recv>:
ipc_recv():
/home/git/21373271/21373271/user/lib/ipc.c:24

// Send val to whom.  This function keeps trying until
// it succeeds.  It should panic() on any error other than
// -E_IPC_NOT_RECV.
//
// Hint: use syscall_yield() to be CPU-friendly.
  40196c:	27bdffe0 	addiu	sp,sp,-32
  401970:	afbf001c 	sw	ra,28(sp)
  401974:	afbe0018 	sw	s8,24(sp)
  401978:	03a0f025 	move	s8,sp
  40197c:	afc40020 	sw	a0,32(s8)
  401980:	afc50024 	sw	a1,36(s8)
  401984:	afc60028 	sw	a2,40(s8)
/home/git/21373271/21373271/user/lib/ipc.c:25
void ipc_send(u_int whom, u_int val, const void *srcva, u_int perm) {
  401988:	8fc40024 	lw	a0,36(s8)
  40198c:	0c1005ed 	jal	4017b4 <syscall_ipc_recv>
  401990:	00000000 	nop
  401994:	afc20010 	sw	v0,16(s8)
/home/git/21373271/21373271/user/lib/ipc.c:26
	int r;
  401998:	8fc20010 	lw	v0,16(s8)
  40199c:	00000000 	nop
  4019a0:	10400009 	beqz	v0,4019c8 <ipc_recv+0x5c>
  4019a4:	00000000 	nop
/home/git/21373271/21373271/user/lib/ipc.c:27
	while ((r = syscall_ipc_try_send(whom, val, srcva, perm)) == -E_IPC_NOT_RECV) {
  4019a8:	8fc70010 	lw	a3,16(s8)
  4019ac:	3c020040 	lui	v0,0x40
  4019b0:	24467a4c 	addiu	a2,v0,31308
  4019b4:	2405001b 	li	a1,27
  4019b8:	3c020040 	lui	v0,0x40
  4019bc:	24447a40 	addiu	a0,v0,31296
  4019c0:	0c100393 	jal	400e4c <_user_panic>
  4019c4:	00000000 	nop
/home/git/21373271/21373271/user/lib/ipc.c:30
		syscall_yield();
	}
	user_assert(r == 0);
  4019c8:	8fc20020 	lw	v0,32(s8)
  4019cc:	00000000 	nop
  4019d0:	10400008 	beqz	v0,4019f4 <ipc_recv+0x88>
  4019d4:	00000000 	nop
/home/git/21373271/21373271/user/lib/ipc.c:31
}
  4019d8:	3c020041 	lui	v0,0x41
  4019dc:	8c42e000 	lw	v0,-8192(v0)
  4019e0:	00000000 	nop
  4019e4:	8c4300c4 	lw	v1,196(v0)
  4019e8:	8fc20020 	lw	v0,32(s8)
  4019ec:	00000000 	nop
  4019f0:	ac430000 	sw	v1,0(v0)
/home/git/21373271/21373271/user/lib/ipc.c:34

// Receive a value.  Return the value and store the caller's envid
// in *whom.
  4019f4:	8fc20028 	lw	v0,40(s8)
  4019f8:	00000000 	nop
  4019fc:	10400008 	beqz	v0,401a20 <ipc_recv+0xb4>
  401a00:	00000000 	nop
/home/git/21373271/21373271/user/lib/ipc.c:35
//
  401a04:	3c020041 	lui	v0,0x41
  401a08:	8c42e000 	lw	v0,-8192(v0)
  401a0c:	00000000 	nop
  401a10:	8c4300d0 	lw	v1,208(v0)
  401a14:	8fc20028 	lw	v0,40(s8)
  401a18:	00000000 	nop
  401a1c:	ac430000 	sw	v1,0(v0)
/home/git/21373271/21373271/user/lib/ipc.c:38
// Hint: use env to discover the value and who sent it.
u_int ipc_recv(u_int *whom, void *dstva, u_int *perm) {
	int r = syscall_ipc_recv(dstva);
  401a20:	3c020041 	lui	v0,0x41
  401a24:	8c42e000 	lw	v0,-8192(v0)
  401a28:	00000000 	nop
  401a2c:	8c4200c0 	lw	v0,192(v0)
/home/git/21373271/21373271/user/lib/ipc.c:39
	if (r != 0) {
  401a30:	03c0e825 	move	sp,s8
  401a34:	8fbf001c 	lw	ra,28(sp)
  401a38:	8fbe0018 	lw	s8,24(sp)
  401a3c:	27bd0020 	addiu	sp,sp,32
  401a40:	03e00008 	jr	ra
  401a44:	00000000 	nop
	...

00401a50 <dev_lookup>:
dev_lookup():
/home/git/21373271/21373271/user/lib/fd.c:12
  401a50:	27bdffe0 	addiu	sp,sp,-32
  401a54:	afbf001c 	sw	ra,28(sp)
  401a58:	afbe0018 	sw	s8,24(sp)
  401a5c:	03a0f025 	move	s8,sp
  401a60:	afc40020 	sw	a0,32(s8)
  401a64:	afc50024 	sw	a1,36(s8)
/home/git/21373271/21373271/user/lib/fd.c:13
  401a68:	afc00010 	sw	zero,16(s8)
  401a6c:	1000001f 	b	401aec <dev_lookup+0x9c>
  401a70:	00000000 	nop
/home/git/21373271/21373271/user/lib/fd.c:14
  401a74:	3c020041 	lui	v0,0x41
  401a78:	8fc30010 	lw	v1,16(s8)
  401a7c:	00000000 	nop
  401a80:	00031880 	sll	v1,v1,0x2
  401a84:	2442d000 	addiu	v0,v0,-12288
  401a88:	00621021 	addu	v0,v1,v0
  401a8c:	8c420000 	lw	v0,0(v0)
  401a90:	00000000 	nop
  401a94:	8c420000 	lw	v0,0(v0)
  401a98:	8fc30020 	lw	v1,32(s8)
  401a9c:	00000000 	nop
  401aa0:	1462000e 	bne	v1,v0,401adc <dev_lookup+0x8c>
  401aa4:	00000000 	nop
/home/git/21373271/21373271/user/lib/fd.c:15
  401aa8:	3c020041 	lui	v0,0x41
  401aac:	8fc30010 	lw	v1,16(s8)
  401ab0:	00000000 	nop
  401ab4:	00031880 	sll	v1,v1,0x2
  401ab8:	2442d000 	addiu	v0,v0,-12288
  401abc:	00621021 	addu	v0,v1,v0
  401ac0:	8c430000 	lw	v1,0(v0)
  401ac4:	8fc20024 	lw	v0,36(s8)
  401ac8:	00000000 	nop
  401acc:	ac430000 	sw	v1,0(v0)
/home/git/21373271/21373271/user/lib/fd.c:16
  401ad0:	00001025 	move	v0,zero
  401ad4:	1000001a 	b	401b40 <dev_lookup+0xf0>
  401ad8:	00000000 	nop
/home/git/21373271/21373271/user/lib/fd.c:13 (discriminator 2)
  401adc:	8fc20010 	lw	v0,16(s8)
  401ae0:	00000000 	nop
  401ae4:	24420001 	addiu	v0,v0,1
  401ae8:	afc20010 	sw	v0,16(s8)
/home/git/21373271/21373271/user/lib/fd.c:13 (discriminator 1)
  401aec:	3c020041 	lui	v0,0x41
  401af0:	8fc30010 	lw	v1,16(s8)
  401af4:	00000000 	nop
  401af8:	00031880 	sll	v1,v1,0x2
  401afc:	2442d000 	addiu	v0,v0,-12288
  401b00:	00621021 	addu	v0,v1,v0
  401b04:	8c420000 	lw	v0,0(v0)
  401b08:	00000000 	nop
  401b0c:	1440ffd9 	bnez	v0,401a74 <dev_lookup+0x24>
  401b10:	00000000 	nop
/home/git/21373271/21373271/user/lib/fd.c:20
  401b14:	3c020041 	lui	v0,0x41
  401b18:	8c42e000 	lw	v0,-8192(v0)
  401b1c:	00000000 	nop
  401b20:	8c4200a0 	lw	v0,160(v0)
  401b24:	8fc60020 	lw	a2,32(s8)
  401b28:	00402825 	move	a1,v0
  401b2c:	3c020040 	lui	v0,0x40
  401b30:	24447a70 	addiu	a0,v0,31344
  401b34:	0c10037c 	jal	400df0 <debugf>
  401b38:	00000000 	nop
/home/git/21373271/21373271/user/lib/fd.c:21
  401b3c:	2402fffd 	li	v0,-3
/home/git/21373271/21373271/user/lib/fd.c:22
  401b40:	03c0e825 	move	sp,s8
  401b44:	8fbf001c 	lw	ra,28(sp)
  401b48:	8fbe0018 	lw	s8,24(sp)
  401b4c:	27bd0020 	addiu	sp,sp,32
  401b50:	03e00008 	jr	ra
  401b54:	00000000 	nop

00401b58 <fd_alloc>:
fd_alloc():
/home/git/21373271/21373271/user/lib/fd.c:34
  401b58:	27bdfff0 	addiu	sp,sp,-16
  401b5c:	afbe000c 	sw	s8,12(sp)
  401b60:	03a0f025 	move	s8,sp
  401b64:	afc40010 	sw	a0,16(s8)
/home/git/21373271/21373271/user/lib/fd.c:38
  401b68:	afc00000 	sw	zero,0(s8)
  401b6c:	10000030 	b	401c30 <fd_alloc+0xd8>
  401b70:	00000000 	nop
/home/git/21373271/21373271/user/lib/fd.c:39
  401b74:	8fc30000 	lw	v1,0(s8)
  401b78:	3c020005 	lui	v0,0x5
  401b7c:	3442fc00 	ori	v0,v0,0xfc00
  401b80:	00621021 	addu	v0,v1,v0
  401b84:	00021300 	sll	v0,v0,0xc
  401b88:	afc20004 	sw	v0,4(s8)
/home/git/21373271/21373271/user/lib/fd.c:41
  401b8c:	8fc20004 	lw	v0,4(s8)
  401b90:	00000000 	nop
  401b94:	00021582 	srl	v0,v0,0x16
  401b98:	00021880 	sll	v1,v0,0x2
  401b9c:	3c027fdf 	lui	v0,0x7fdf
  401ba0:	3442f000 	ori	v0,v0,0xf000
  401ba4:	00621021 	addu	v0,v1,v0
  401ba8:	8c420000 	lw	v0,0(v0)
  401bac:	00000000 	nop
  401bb0:	30420200 	andi	v0,v0,0x200
  401bb4:	14400008 	bnez	v0,401bd8 <fd_alloc+0x80>
  401bb8:	00000000 	nop
/home/git/21373271/21373271/user/lib/fd.c:42
  401bbc:	8fc30004 	lw	v1,4(s8)
  401bc0:	8fc20010 	lw	v0,16(s8)
  401bc4:	00000000 	nop
  401bc8:	ac430000 	sw	v1,0(v0)
/home/git/21373271/21373271/user/lib/fd.c:43
  401bcc:	00001025 	move	v0,zero
  401bd0:	1000001d 	b	401c48 <fd_alloc+0xf0>
  401bd4:	00000000 	nop
/home/git/21373271/21373271/user/lib/fd.c:46
  401bd8:	8fc20004 	lw	v0,4(s8)
  401bdc:	00000000 	nop
  401be0:	00021302 	srl	v0,v0,0xc
  401be4:	00021880 	sll	v1,v0,0x2
  401be8:	3c027fc0 	lui	v0,0x7fc0
  401bec:	00621021 	addu	v0,v1,v0
  401bf0:	8c420000 	lw	v0,0(v0)
  401bf4:	00000000 	nop
  401bf8:	30420200 	andi	v0,v0,0x200
  401bfc:	14400008 	bnez	v0,401c20 <fd_alloc+0xc8>
  401c00:	00000000 	nop
/home/git/21373271/21373271/user/lib/fd.c:47
  401c04:	8fc30004 	lw	v1,4(s8)
  401c08:	8fc20010 	lw	v0,16(s8)
  401c0c:	00000000 	nop
  401c10:	ac430000 	sw	v1,0(v0)
/home/git/21373271/21373271/user/lib/fd.c:48
  401c14:	00001025 	move	v0,zero
  401c18:	1000000b 	b	401c48 <fd_alloc+0xf0>
  401c1c:	00000000 	nop
/home/git/21373271/21373271/user/lib/fd.c:38 (discriminator 2)
  401c20:	8fc20000 	lw	v0,0(s8)
  401c24:	00000000 	nop
  401c28:	24420001 	addiu	v0,v0,1
  401c2c:	afc20000 	sw	v0,0(s8)
/home/git/21373271/21373271/user/lib/fd.c:38 (discriminator 1)
  401c30:	8fc20000 	lw	v0,0(s8)
  401c34:	00000000 	nop
  401c38:	2c42001f 	sltiu	v0,v0,31
  401c3c:	1440ffcd 	bnez	v0,401b74 <fd_alloc+0x1c>
  401c40:	00000000 	nop
/home/git/21373271/21373271/user/lib/fd.c:52
  401c44:	2402fff7 	li	v0,-9
/home/git/21373271/21373271/user/lib/fd.c:53
  401c48:	03c0e825 	move	sp,s8
  401c4c:	8fbe000c 	lw	s8,12(sp)
  401c50:	27bd0010 	addiu	sp,sp,16
  401c54:	03e00008 	jr	ra
  401c58:	00000000 	nop

00401c5c <fd_close>:
fd_close():
/home/git/21373271/21373271/user/lib/fd.c:55
  401c5c:	27bdffe8 	addiu	sp,sp,-24
  401c60:	afbf0014 	sw	ra,20(sp)
  401c64:	afbe0010 	sw	s8,16(sp)
  401c68:	03a0f025 	move	s8,sp
  401c6c:	afc40018 	sw	a0,24(s8)
/home/git/21373271/21373271/user/lib/fd.c:56
  401c70:	8fc50018 	lw	a1,24(s8)
  401c74:	00002025 	move	a0,zero
  401c78:	0c100591 	jal	401644 <syscall_mem_unmap>
  401c7c:	00000000 	nop
/home/git/21373271/21373271/user/lib/fd.c:57
  401c80:	00000000 	nop
  401c84:	03c0e825 	move	sp,s8
  401c88:	8fbf0014 	lw	ra,20(sp)
  401c8c:	8fbe0010 	lw	s8,16(sp)
  401c90:	27bd0018 	addiu	sp,sp,24
  401c94:	03e00008 	jr	ra
  401c98:	00000000 	nop

00401c9c <fd_lookup>:
fd_lookup():
/home/git/21373271/21373271/user/lib/fd.c:65
  401c9c:	27bdfff0 	addiu	sp,sp,-16
  401ca0:	afbe000c 	sw	s8,12(sp)
  401ca4:	03a0f025 	move	s8,sp
  401ca8:	afc40010 	sw	a0,16(s8)
  401cac:	afc50014 	sw	a1,20(s8)
/home/git/21373271/21373271/user/lib/fd.c:68
  401cb0:	8fc20010 	lw	v0,16(s8)
  401cb4:	00000000 	nop
  401cb8:	28420020 	slti	v0,v0,32
  401cbc:	14400004 	bnez	v0,401cd0 <fd_lookup+0x34>
  401cc0:	00000000 	nop
/home/git/21373271/21373271/user/lib/fd.c:69
  401cc4:	2402fffd 	li	v0,-3
  401cc8:	1000001a 	b	401d34 <fd_lookup+0x98>
  401ccc:	00000000 	nop
/home/git/21373271/21373271/user/lib/fd.c:72
  401cd0:	8fc30010 	lw	v1,16(s8)
  401cd4:	3c020005 	lui	v0,0x5
  401cd8:	3442fc00 	ori	v0,v0,0xfc00
  401cdc:	00621021 	addu	v0,v1,v0
  401ce0:	00021300 	sll	v0,v0,0xc
  401ce4:	afc20000 	sw	v0,0(s8)
/home/git/21373271/21373271/user/lib/fd.c:74
  401ce8:	8fc20000 	lw	v0,0(s8)
  401cec:	00000000 	nop
  401cf0:	00021302 	srl	v0,v0,0xc
  401cf4:	00021880 	sll	v1,v0,0x2
  401cf8:	3c027fc0 	lui	v0,0x7fc0
  401cfc:	00621021 	addu	v0,v1,v0
  401d00:	8c420000 	lw	v0,0(v0)
  401d04:	00000000 	nop
  401d08:	30420200 	andi	v0,v0,0x200
  401d0c:	10400008 	beqz	v0,401d30 <fd_lookup+0x94>
  401d10:	00000000 	nop
/home/git/21373271/21373271/user/lib/fd.c:75
  401d14:	8fc30000 	lw	v1,0(s8)
  401d18:	8fc20014 	lw	v0,20(s8)
  401d1c:	00000000 	nop
  401d20:	ac430000 	sw	v1,0(v0)
/home/git/21373271/21373271/user/lib/fd.c:76
  401d24:	00001025 	move	v0,zero
  401d28:	10000002 	b	401d34 <fd_lookup+0x98>
  401d2c:	00000000 	nop
/home/git/21373271/21373271/user/lib/fd.c:79
  401d30:	2402fffd 	li	v0,-3
/home/git/21373271/21373271/user/lib/fd.c:80
  401d34:	03c0e825 	move	sp,s8
  401d38:	8fbe000c 	lw	s8,12(sp)
  401d3c:	27bd0010 	addiu	sp,sp,16
  401d40:	03e00008 	jr	ra
  401d44:	00000000 	nop

00401d48 <fd2data>:
fd2data():
/home/git/21373271/21373271/user/lib/fd.c:82
  401d48:	27bdffe8 	addiu	sp,sp,-24
  401d4c:	afbf0014 	sw	ra,20(sp)
  401d50:	afbe0010 	sw	s8,16(sp)
  401d54:	03a0f025 	move	s8,sp
  401d58:	afc40018 	sw	a0,24(s8)
/home/git/21373271/21373271/user/lib/fd.c:83
  401d5c:	8fc40018 	lw	a0,24(s8)
  401d60:	0c100762 	jal	401d88 <fd2num>
  401d64:	00000000 	nop
  401d68:	24420180 	addiu	v0,v0,384
  401d6c:	00021580 	sll	v0,v0,0x16
/home/git/21373271/21373271/user/lib/fd.c:84
  401d70:	03c0e825 	move	sp,s8
  401d74:	8fbf0014 	lw	ra,20(sp)
  401d78:	8fbe0010 	lw	s8,16(sp)
  401d7c:	27bd0018 	addiu	sp,sp,24
  401d80:	03e00008 	jr	ra
  401d84:	00000000 	nop

00401d88 <fd2num>:
fd2num():
/home/git/21373271/21373271/user/lib/fd.c:86
  401d88:	27bdfff8 	addiu	sp,sp,-8
  401d8c:	afbe0004 	sw	s8,4(sp)
  401d90:	03a0f025 	move	s8,sp
  401d94:	afc40008 	sw	a0,8(s8)
/home/git/21373271/21373271/user/lib/fd.c:87
  401d98:	8fc30008 	lw	v1,8(s8)
  401d9c:	3c02a040 	lui	v0,0xa040
  401da0:	00621021 	addu	v0,v1,v0
  401da4:	00021302 	srl	v0,v0,0xc
/home/git/21373271/21373271/user/lib/fd.c:88
  401da8:	03c0e825 	move	sp,s8
  401dac:	8fbe0004 	lw	s8,4(sp)
  401db0:	27bd0008 	addiu	sp,sp,8
  401db4:	03e00008 	jr	ra
  401db8:	00000000 	nop

00401dbc <num2fd>:
num2fd():
/home/git/21373271/21373271/user/lib/fd.c:90
  401dbc:	27bdfff8 	addiu	sp,sp,-8
  401dc0:	afbe0004 	sw	s8,4(sp)
  401dc4:	03a0f025 	move	s8,sp
  401dc8:	afc40008 	sw	a0,8(s8)
/home/git/21373271/21373271/user/lib/fd.c:91
  401dcc:	8fc30008 	lw	v1,8(s8)
  401dd0:	3c020005 	lui	v0,0x5
  401dd4:	3442fc00 	ori	v0,v0,0xfc00
  401dd8:	00621021 	addu	v0,v1,v0
  401ddc:	00021300 	sll	v0,v0,0xc
/home/git/21373271/21373271/user/lib/fd.c:92
  401de0:	03c0e825 	move	sp,s8
  401de4:	8fbe0004 	lw	s8,4(sp)
  401de8:	27bd0008 	addiu	sp,sp,8
  401dec:	03e00008 	jr	ra
  401df0:	00000000 	nop

00401df4 <close>:
close():
/home/git/21373271/21373271/user/lib/fd.c:94
  401df4:	27bdffd8 	addiu	sp,sp,-40
  401df8:	afbf0024 	sw	ra,36(sp)
  401dfc:	afbe0020 	sw	s8,32(sp)
  401e00:	03a0f025 	move	s8,sp
  401e04:	afc40028 	sw	a0,40(s8)
/home/git/21373271/21373271/user/lib/fd.c:96
  401e08:	afc00014 	sw	zero,20(s8)
/home/git/21373271/21373271/user/lib/fd.c:99
  401e0c:	27c20018 	addiu	v0,s8,24
  401e10:	00402825 	move	a1,v0
  401e14:	8fc40028 	lw	a0,40(s8)
  401e18:	0c100727 	jal	401c9c <fd_lookup>
  401e1c:	00000000 	nop
  401e20:	afc20010 	sw	v0,16(s8)
  401e24:	8fc20010 	lw	v0,16(s8)
  401e28:	00000000 	nop
  401e2c:	0440000e 	bltz	v0,401e68 <close+0x74>
  401e30:	00000000 	nop
/home/git/21373271/21373271/user/lib/fd.c:99 (discriminator 1)
  401e34:	8fc20018 	lw	v0,24(s8)
  401e38:	00000000 	nop
  401e3c:	8c420000 	lw	v0,0(v0)
  401e40:	27c30014 	addiu	v1,s8,20
  401e44:	00602825 	move	a1,v1
  401e48:	00402025 	move	a0,v0
  401e4c:	0c100694 	jal	401a50 <dev_lookup>
  401e50:	00000000 	nop
  401e54:	afc20010 	sw	v0,16(s8)
  401e58:	8fc20010 	lw	v0,16(s8)
  401e5c:	00000000 	nop
  401e60:	04410004 	bgez	v0,401e74 <close+0x80>
  401e64:	00000000 	nop
/home/git/21373271/21373271/user/lib/fd.c:100
  401e68:	8fc20010 	lw	v0,16(s8)
  401e6c:	10000010 	b	401eb0 <close+0xbc>
  401e70:	00000000 	nop
/home/git/21373271/21373271/user/lib/fd.c:103
  401e74:	8fc20014 	lw	v0,20(s8)
  401e78:	00000000 	nop
  401e7c:	8c420010 	lw	v0,16(v0)
  401e80:	8fc30018 	lw	v1,24(s8)
  401e84:	00000000 	nop
  401e88:	00602025 	move	a0,v1
  401e8c:	0040f809 	jalr	v0
  401e90:	00000000 	nop
  401e94:	afc20010 	sw	v0,16(s8)
/home/git/21373271/21373271/user/lib/fd.c:104
  401e98:	8fc20018 	lw	v0,24(s8)
  401e9c:	00000000 	nop
  401ea0:	00402025 	move	a0,v0
  401ea4:	0c100717 	jal	401c5c <fd_close>
  401ea8:	00000000 	nop
/home/git/21373271/21373271/user/lib/fd.c:105
  401eac:	8fc20010 	lw	v0,16(s8)
/home/git/21373271/21373271/user/lib/fd.c:106 (discriminator 1)
  401eb0:	03c0e825 	move	sp,s8
  401eb4:	8fbf0024 	lw	ra,36(sp)
  401eb8:	8fbe0020 	lw	s8,32(sp)
  401ebc:	27bd0028 	addiu	sp,sp,40
  401ec0:	03e00008 	jr	ra
  401ec4:	00000000 	nop

00401ec8 <close_all>:
close_all():
/home/git/21373271/21373271/user/lib/fd.c:108
  401ec8:	27bdffe0 	addiu	sp,sp,-32
  401ecc:	afbf001c 	sw	ra,28(sp)
  401ed0:	afbe0018 	sw	s8,24(sp)
  401ed4:	03a0f025 	move	s8,sp
/home/git/21373271/21373271/user/lib/fd.c:111
  401ed8:	afc00010 	sw	zero,16(s8)
  401edc:	10000008 	b	401f00 <close_all+0x38>
  401ee0:	00000000 	nop
/home/git/21373271/21373271/user/lib/fd.c:112 (discriminator 3)
  401ee4:	8fc40010 	lw	a0,16(s8)
  401ee8:	0c10077d 	jal	401df4 <close>
  401eec:	00000000 	nop
/home/git/21373271/21373271/user/lib/fd.c:111 (discriminator 3)
  401ef0:	8fc20010 	lw	v0,16(s8)
  401ef4:	00000000 	nop
  401ef8:	24420001 	addiu	v0,v0,1
  401efc:	afc20010 	sw	v0,16(s8)
/home/git/21373271/21373271/user/lib/fd.c:111 (discriminator 1)
  401f00:	8fc20010 	lw	v0,16(s8)
  401f04:	00000000 	nop
  401f08:	28420020 	slti	v0,v0,32
  401f0c:	1440fff5 	bnez	v0,401ee4 <close_all+0x1c>
  401f10:	00000000 	nop
	...
/home/git/21373271/21373271/user/lib/fd.c:114
  401f1c:	03c0e825 	move	sp,s8
  401f20:	8fbf001c 	lw	ra,28(sp)
  401f24:	8fbe0018 	lw	s8,24(sp)
  401f28:	27bd0020 	addiu	sp,sp,32
  401f2c:	03e00008 	jr	ra
  401f30:	00000000 	nop

00401f34 <dup>:
dup():
/home/git/21373271/21373271/user/lib/fd.c:116
  401f34:	27bdffc0 	addiu	sp,sp,-64
  401f38:	afbf003c 	sw	ra,60(sp)
  401f3c:	afbe0038 	sw	s8,56(sp)
  401f40:	03a0f025 	move	s8,sp
  401f44:	afc40040 	sw	a0,64(s8)
  401f48:	afc50044 	sw	a1,68(s8)
/home/git/21373271/21373271/user/lib/fd.c:122
  401f4c:	27c20030 	addiu	v0,s8,48
  401f50:	00402825 	move	a1,v0
  401f54:	8fc40040 	lw	a0,64(s8)
  401f58:	0c100727 	jal	401c9c <fd_lookup>
  401f5c:	00000000 	nop
  401f60:	afc2001c 	sw	v0,28(s8)
  401f64:	8fc2001c 	lw	v0,28(s8)
  401f68:	00000000 	nop
  401f6c:	04410004 	bgez	v0,401f80 <dup+0x4c>
  401f70:	00000000 	nop
/home/git/21373271/21373271/user/lib/fd.c:123
  401f74:	8fc2001c 	lw	v0,28(s8)
  401f78:	10000088 	b	40219c <dup+0x268>
  401f7c:	00000000 	nop
/home/git/21373271/21373271/user/lib/fd.c:126
  401f80:	8fc40044 	lw	a0,68(s8)
  401f84:	0c10077d 	jal	401df4 <close>
  401f88:	00000000 	nop
/home/git/21373271/21373271/user/lib/fd.c:127
  401f8c:	8fc30044 	lw	v1,68(s8)
  401f90:	3c020005 	lui	v0,0x5
  401f94:	3442fc00 	ori	v0,v0,0xfc00
  401f98:	00621021 	addu	v0,v1,v0
  401f9c:	00021300 	sll	v0,v0,0xc
  401fa0:	afc20020 	sw	v0,32(s8)
/home/git/21373271/21373271/user/lib/fd.c:128
  401fa4:	8fc20030 	lw	v0,48(s8)
  401fa8:	00000000 	nop
  401fac:	00402025 	move	a0,v0
  401fb0:	0c100752 	jal	401d48 <fd2data>
  401fb4:	00000000 	nop
  401fb8:	afc20024 	sw	v0,36(s8)
/home/git/21373271/21373271/user/lib/fd.c:129
  401fbc:	8fc40020 	lw	a0,32(s8)
  401fc0:	0c100752 	jal	401d48 <fd2data>
  401fc4:	00000000 	nop
  401fc8:	afc20028 	sw	v0,40(s8)
/home/git/21373271/21373271/user/lib/fd.c:130
  401fcc:	8fc40030 	lw	a0,48(s8)
  401fd0:	8fc20030 	lw	v0,48(s8)
  401fd4:	00000000 	nop
  401fd8:	00021302 	srl	v0,v0,0xc
  401fdc:	00021880 	sll	v1,v0,0x2
  401fe0:	3c027fc0 	lui	v0,0x7fc0
  401fe4:	00621021 	addu	v0,v1,v0
  401fe8:	8c420000 	lw	v0,0(v0)
  401fec:	00000000 	nop
  401ff0:	30420404 	andi	v0,v0,0x404
  401ff4:	afa20010 	sw	v0,16(sp)
  401ff8:	8fc70020 	lw	a3,32(s8)
  401ffc:	00003025 	move	a2,zero
  402000:	00802825 	move	a1,a0
  402004:	00002025 	move	a0,zero
  402008:	0c100577 	jal	4015dc <syscall_mem_map>
  40200c:	00000000 	nop
  402010:	afc2001c 	sw	v0,28(s8)
  402014:	8fc2001c 	lw	v0,28(s8)
  402018:	00000000 	nop
  40201c:	04400042 	bltz	v0,402128 <dup+0x1f4>
  402020:	00000000 	nop
/home/git/21373271/21373271/user/lib/fd.c:135
  402024:	8fc20024 	lw	v0,36(s8)
  402028:	00000000 	nop
  40202c:	00021582 	srl	v0,v0,0x16
  402030:	00021880 	sll	v1,v0,0x2
  402034:	3c027fdf 	lui	v0,0x7fdf
  402038:	3442f000 	ori	v0,v0,0xf000
  40203c:	00621021 	addu	v0,v1,v0
  402040:	8c420000 	lw	v0,0(v0)
  402044:	00000000 	nop
  402048:	10400034 	beqz	v0,40211c <dup+0x1e8>
  40204c:	00000000 	nop
/home/git/21373271/21373271/user/lib/fd.c:136
  402050:	afc00018 	sw	zero,24(s8)
  402054:	1000002c 	b	402108 <dup+0x1d4>
  402058:	00000000 	nop
/home/git/21373271/21373271/user/lib/fd.c:137
  40205c:	8fc20018 	lw	v0,24(s8)
  402060:	8fc30024 	lw	v1,36(s8)
  402064:	00000000 	nop
  402068:	00621021 	addu	v0,v1,v0
  40206c:	00021302 	srl	v0,v0,0xc
  402070:	00021880 	sll	v1,v0,0x2
  402074:	3c027fc0 	lui	v0,0x7fc0
  402078:	00621021 	addu	v0,v1,v0
  40207c:	8c420000 	lw	v0,0(v0)
  402080:	00000000 	nop
  402084:	afc2002c 	sw	v0,44(s8)
/home/git/21373271/21373271/user/lib/fd.c:139
  402088:	8fc2002c 	lw	v0,44(s8)
  40208c:	00000000 	nop
  402090:	30420200 	andi	v0,v0,0x200
  402094:	10400018 	beqz	v0,4020f8 <dup+0x1c4>
  402098:	00000000 	nop
/home/git/21373271/21373271/user/lib/fd.c:141
  40209c:	8fc20018 	lw	v0,24(s8)
  4020a0:	8fc30024 	lw	v1,36(s8)
  4020a4:	00000000 	nop
  4020a8:	00622021 	addu	a0,v1,v0
  4020ac:	8fc20018 	lw	v0,24(s8)
  4020b0:	8fc30028 	lw	v1,40(s8)
  4020b4:	00000000 	nop
  4020b8:	00621821 	addu	v1,v1,v0
  4020bc:	8fc2002c 	lw	v0,44(s8)
  4020c0:	00000000 	nop
  4020c4:	30420404 	andi	v0,v0,0x404
  4020c8:	afa20010 	sw	v0,16(sp)
  4020cc:	00603825 	move	a3,v1
  4020d0:	00003025 	move	a2,zero
  4020d4:	00802825 	move	a1,a0
  4020d8:	00002025 	move	a0,zero
  4020dc:	0c100577 	jal	4015dc <syscall_mem_map>
  4020e0:	00000000 	nop
  4020e4:	afc2001c 	sw	v0,28(s8)
  4020e8:	8fc2001c 	lw	v0,28(s8)
  4020ec:	00000000 	nop
  4020f0:	04400010 	bltz	v0,402134 <dup+0x200>
  4020f4:	00000000 	nop
/home/git/21373271/21373271/user/lib/fd.c:136 (discriminator 2)
  4020f8:	8fc20018 	lw	v0,24(s8)
  4020fc:	00000000 	nop
  402100:	24421000 	addiu	v0,v0,4096
  402104:	afc20018 	sw	v0,24(s8)
/home/git/21373271/21373271/user/lib/fd.c:136 (discriminator 1)
  402108:	8fc30018 	lw	v1,24(s8)
  40210c:	3c020040 	lui	v0,0x40
  402110:	0062102a 	slt	v0,v1,v0
  402114:	1440ffd1 	bnez	v0,40205c <dup+0x128>
  402118:	00000000 	nop
/home/git/21373271/21373271/user/lib/fd.c:149
  40211c:	8fc20044 	lw	v0,68(s8)
  402120:	1000001e 	b	40219c <dup+0x268>
  402124:	00000000 	nop
/home/git/21373271/21373271/user/lib/fd.c:132
  402128:	00000000 	nop
  40212c:	10000002 	b	402138 <dup+0x204>
  402130:	00000000 	nop
/home/git/21373271/21373271/user/lib/fd.c:143
  402134:	00000000 	nop
/home/git/21373271/21373271/user/lib/fd.c:152
  402138:	8fc50020 	lw	a1,32(s8)
  40213c:	00002025 	move	a0,zero
  402140:	0c100591 	jal	401644 <syscall_mem_unmap>
  402144:	00000000 	nop
/home/git/21373271/21373271/user/lib/fd.c:154
  402148:	afc00018 	sw	zero,24(s8)
  40214c:	1000000d 	b	402184 <dup+0x250>
  402150:	00000000 	nop
/home/git/21373271/21373271/user/lib/fd.c:155 (discriminator 3)
  402154:	8fc20018 	lw	v0,24(s8)
  402158:	8fc30028 	lw	v1,40(s8)
  40215c:	00000000 	nop
  402160:	00621021 	addu	v0,v1,v0
  402164:	00402825 	move	a1,v0
  402168:	00002025 	move	a0,zero
  40216c:	0c100591 	jal	401644 <syscall_mem_unmap>
  402170:	00000000 	nop
/home/git/21373271/21373271/user/lib/fd.c:154 (discriminator 3)
  402174:	8fc20018 	lw	v0,24(s8)
  402178:	00000000 	nop
  40217c:	24421000 	addiu	v0,v0,4096
  402180:	afc20018 	sw	v0,24(s8)
/home/git/21373271/21373271/user/lib/fd.c:154 (discriminator 1)
  402184:	8fc30018 	lw	v1,24(s8)
  402188:	3c020040 	lui	v0,0x40
  40218c:	0062102a 	slt	v0,v1,v0
  402190:	1440fff0 	bnez	v0,402154 <dup+0x220>
  402194:	00000000 	nop
/home/git/21373271/21373271/user/lib/fd.c:158
  402198:	8fc2001c 	lw	v0,28(s8)
/home/git/21373271/21373271/user/lib/fd.c:159 (discriminator 1)
  40219c:	03c0e825 	move	sp,s8
  4021a0:	8fbf003c 	lw	ra,60(sp)
  4021a4:	8fbe0038 	lw	s8,56(sp)
  4021a8:	27bd0040 	addiu	sp,sp,64
  4021ac:	03e00008 	jr	ra
  4021b0:	00000000 	nop

004021b4 <read>:
read():
/home/git/21373271/21373271/user/lib/fd.c:168
  4021b4:	27bdffd8 	addiu	sp,sp,-40
  4021b8:	afbf0024 	sw	ra,36(sp)
  4021bc:	afbe0020 	sw	s8,32(sp)
  4021c0:	03a0f025 	move	s8,sp
  4021c4:	afc40028 	sw	a0,40(s8)
  4021c8:	afc5002c 	sw	a1,44(s8)
  4021cc:	afc60030 	sw	a2,48(s8)
/home/git/21373271/21373271/user/lib/fd.c:176
  4021d0:	27c20018 	addiu	v0,s8,24
  4021d4:	00402825 	move	a1,v0
  4021d8:	8fc40028 	lw	a0,40(s8)
  4021dc:	0c100727 	jal	401c9c <fd_lookup>
  4021e0:	00000000 	nop
  4021e4:	afc20010 	sw	v0,16(s8)
  4021e8:	8fc20010 	lw	v0,16(s8)
  4021ec:	00000000 	nop
  4021f0:	0440000e 	bltz	v0,40222c <read+0x78>
  4021f4:	00000000 	nop
/home/git/21373271/21373271/user/lib/fd.c:176 (discriminator 1)
  4021f8:	8fc20018 	lw	v0,24(s8)
  4021fc:	00000000 	nop
  402200:	8c420000 	lw	v0,0(v0)
  402204:	27c30014 	addiu	v1,s8,20
  402208:	00602825 	move	a1,v1
  40220c:	00402025 	move	a0,v0
  402210:	0c100694 	jal	401a50 <dev_lookup>
  402214:	00000000 	nop
  402218:	afc20010 	sw	v0,16(s8)
  40221c:	8fc20010 	lw	v0,16(s8)
  402220:	00000000 	nop
  402224:	04410004 	bgez	v0,402238 <read+0x84>
  402228:	00000000 	nop
/home/git/21373271/21373271/user/lib/fd.c:177
  40222c:	8fc20010 	lw	v0,16(s8)
  402230:	10000026 	b	4022cc <read+0x118>
  402234:	00000000 	nop
/home/git/21373271/21373271/user/lib/fd.c:182
  402238:	8fc20018 	lw	v0,24(s8)
  40223c:	00000000 	nop
  402240:	8c420008 	lw	v0,8(v0)
  402244:	00000000 	nop
  402248:	30430003 	andi	v1,v0,0x3
  40224c:	24020001 	li	v0,1
  402250:	14620004 	bne	v1,v0,402264 <read+0xb0>
  402254:	00000000 	nop
/home/git/21373271/21373271/user/lib/fd.c:183
  402258:	2402fffd 	li	v0,-3
  40225c:	1000001b 	b	4022cc <read+0x118>
  402260:	00000000 	nop
/home/git/21373271/21373271/user/lib/fd.c:187
  402264:	8fc20014 	lw	v0,20(s8)
  402268:	00000000 	nop
  40226c:	8c420008 	lw	v0,8(v0)
  402270:	8fc40018 	lw	a0,24(s8)
  402274:	8fc30018 	lw	v1,24(s8)
  402278:	00000000 	nop
  40227c:	8c630004 	lw	v1,4(v1)
  402280:	00000000 	nop
  402284:	00603825 	move	a3,v1
  402288:	8fc60030 	lw	a2,48(s8)
  40228c:	8fc5002c 	lw	a1,44(s8)
  402290:	0040f809 	jalr	v0
  402294:	00000000 	nop
  402298:	afc20010 	sw	v0,16(s8)
/home/git/21373271/21373271/user/lib/fd.c:193
  40229c:	8fc20010 	lw	v0,16(s8)
  4022a0:	00000000 	nop
  4022a4:	18400008 	blez	v0,4022c8 <read+0x114>
  4022a8:	00000000 	nop
/home/git/21373271/21373271/user/lib/fd.c:194
  4022ac:	8fc20018 	lw	v0,24(s8)
  4022b0:	00000000 	nop
  4022b4:	8c440004 	lw	a0,4(v0)
  4022b8:	8fc30010 	lw	v1,16(s8)
  4022bc:	8fc20018 	lw	v0,24(s8)
  4022c0:	00831821 	addu	v1,a0,v1
  4022c4:	ac430004 	sw	v1,4(v0)
/home/git/21373271/21373271/user/lib/fd.c:196
  4022c8:	8fc20010 	lw	v0,16(s8)
/home/git/21373271/21373271/user/lib/fd.c:197 (discriminator 1)
  4022cc:	03c0e825 	move	sp,s8
  4022d0:	8fbf0024 	lw	ra,36(sp)
  4022d4:	8fbe0020 	lw	s8,32(sp)
  4022d8:	27bd0028 	addiu	sp,sp,40
  4022dc:	03e00008 	jr	ra
  4022e0:	00000000 	nop

004022e4 <readn>:
readn():
/home/git/21373271/21373271/user/lib/fd.c:199
  4022e4:	27bdffe0 	addiu	sp,sp,-32
  4022e8:	afbf001c 	sw	ra,28(sp)
  4022ec:	afbe0018 	sw	s8,24(sp)
  4022f0:	03a0f025 	move	s8,sp
  4022f4:	afc40020 	sw	a0,32(s8)
  4022f8:	afc50024 	sw	a1,36(s8)
  4022fc:	afc60028 	sw	a2,40(s8)
/home/git/21373271/21373271/user/lib/fd.c:202
  402300:	afc00010 	sw	zero,16(s8)
  402304:	1000001f 	b	402384 <readn+0xa0>
  402308:	00000000 	nop
/home/git/21373271/21373271/user/lib/fd.c:203
  40230c:	8fc20010 	lw	v0,16(s8)
  402310:	8fc30024 	lw	v1,36(s8)
  402314:	00000000 	nop
  402318:	00622021 	addu	a0,v1,v0
  40231c:	8fc20010 	lw	v0,16(s8)
  402320:	8fc30028 	lw	v1,40(s8)
  402324:	00000000 	nop
  402328:	00621023 	subu	v0,v1,v0
  40232c:	00403025 	move	a2,v0
  402330:	00802825 	move	a1,a0
  402334:	8fc40020 	lw	a0,32(s8)
  402338:	0c10086d 	jal	4021b4 <read>
  40233c:	00000000 	nop
  402340:	afc20014 	sw	v0,20(s8)
/home/git/21373271/21373271/user/lib/fd.c:205
  402344:	8fc20014 	lw	v0,20(s8)
  402348:	00000000 	nop
  40234c:	04410004 	bgez	v0,402360 <readn+0x7c>
  402350:	00000000 	nop
/home/git/21373271/21373271/user/lib/fd.c:206
  402354:	8fc20014 	lw	v0,20(s8)
  402358:	10000014 	b	4023ac <readn+0xc8>
  40235c:	00000000 	nop
/home/git/21373271/21373271/user/lib/fd.c:209
  402360:	8fc20014 	lw	v0,20(s8)
  402364:	00000000 	nop
  402368:	1040000e 	beqz	v0,4023a4 <readn+0xc0>
  40236c:	00000000 	nop
/home/git/21373271/21373271/user/lib/fd.c:202 (discriminator 2)
  402370:	8fc30010 	lw	v1,16(s8)
  402374:	8fc20014 	lw	v0,20(s8)
  402378:	00000000 	nop
  40237c:	00621021 	addu	v0,v1,v0
  402380:	afc20010 	sw	v0,16(s8)
/home/git/21373271/21373271/user/lib/fd.c:202 (discriminator 1)
  402384:	8fc20010 	lw	v0,16(s8)
  402388:	8fc30028 	lw	v1,40(s8)
  40238c:	00000000 	nop
  402390:	0043102b 	sltu	v0,v0,v1
  402394:	1440ffdd 	bnez	v0,40230c <readn+0x28>
  402398:	00000000 	nop
  40239c:	10000002 	b	4023a8 <readn+0xc4>
  4023a0:	00000000 	nop
/home/git/21373271/21373271/user/lib/fd.c:210
  4023a4:	00000000 	nop
/home/git/21373271/21373271/user/lib/fd.c:214
  4023a8:	8fc20010 	lw	v0,16(s8)
/home/git/21373271/21373271/user/lib/fd.c:215
  4023ac:	03c0e825 	move	sp,s8
  4023b0:	8fbf001c 	lw	ra,28(sp)
  4023b4:	8fbe0018 	lw	s8,24(sp)
  4023b8:	27bd0020 	addiu	sp,sp,32
  4023bc:	03e00008 	jr	ra
  4023c0:	00000000 	nop

004023c4 <write>:
write():
/home/git/21373271/21373271/user/lib/fd.c:217
  4023c4:	27bdffd8 	addiu	sp,sp,-40
  4023c8:	afbf0024 	sw	ra,36(sp)
  4023cc:	afbe0020 	sw	s8,32(sp)
  4023d0:	03a0f025 	move	s8,sp
  4023d4:	afc40028 	sw	a0,40(s8)
  4023d8:	afc5002c 	sw	a1,44(s8)
  4023dc:	afc60030 	sw	a2,48(s8)
/home/git/21373271/21373271/user/lib/fd.c:222
  4023e0:	27c20018 	addiu	v0,s8,24
  4023e4:	00402825 	move	a1,v0
  4023e8:	8fc40028 	lw	a0,40(s8)
  4023ec:	0c100727 	jal	401c9c <fd_lookup>
  4023f0:	00000000 	nop
  4023f4:	afc20010 	sw	v0,16(s8)
  4023f8:	8fc20010 	lw	v0,16(s8)
  4023fc:	00000000 	nop
  402400:	0440000e 	bltz	v0,40243c <write+0x78>
  402404:	00000000 	nop
/home/git/21373271/21373271/user/lib/fd.c:222 (discriminator 1)
  402408:	8fc20018 	lw	v0,24(s8)
  40240c:	00000000 	nop
  402410:	8c420000 	lw	v0,0(v0)
  402414:	27c30014 	addiu	v1,s8,20
  402418:	00602825 	move	a1,v1
  40241c:	00402025 	move	a0,v0
  402420:	0c100694 	jal	401a50 <dev_lookup>
  402424:	00000000 	nop
  402428:	afc20010 	sw	v0,16(s8)
  40242c:	8fc20010 	lw	v0,16(s8)
  402430:	00000000 	nop
  402434:	04410004 	bgez	v0,402448 <write+0x84>
  402438:	00000000 	nop
/home/git/21373271/21373271/user/lib/fd.c:223
  40243c:	8fc20010 	lw	v0,16(s8)
  402440:	10000025 	b	4024d8 <write+0x114>
  402444:	00000000 	nop
/home/git/21373271/21373271/user/lib/fd.c:226
  402448:	8fc20018 	lw	v0,24(s8)
  40244c:	00000000 	nop
  402450:	8c420008 	lw	v0,8(v0)
  402454:	00000000 	nop
  402458:	30420003 	andi	v0,v0,0x3
  40245c:	14400004 	bnez	v0,402470 <write+0xac>
  402460:	00000000 	nop
/home/git/21373271/21373271/user/lib/fd.c:227
  402464:	2402fffd 	li	v0,-3
  402468:	1000001b 	b	4024d8 <write+0x114>
  40246c:	00000000 	nop
/home/git/21373271/21373271/user/lib/fd.c:230
  402470:	8fc20014 	lw	v0,20(s8)
  402474:	00000000 	nop
  402478:	8c42000c 	lw	v0,12(v0)
  40247c:	8fc40018 	lw	a0,24(s8)
  402480:	8fc30018 	lw	v1,24(s8)
  402484:	00000000 	nop
  402488:	8c630004 	lw	v1,4(v1)
  40248c:	00000000 	nop
  402490:	00603825 	move	a3,v1
  402494:	8fc60030 	lw	a2,48(s8)
  402498:	8fc5002c 	lw	a1,44(s8)
  40249c:	0040f809 	jalr	v0
  4024a0:	00000000 	nop
  4024a4:	afc20010 	sw	v0,16(s8)
/home/git/21373271/21373271/user/lib/fd.c:231
  4024a8:	8fc20010 	lw	v0,16(s8)
  4024ac:	00000000 	nop
  4024b0:	18400008 	blez	v0,4024d4 <write+0x110>
  4024b4:	00000000 	nop
/home/git/21373271/21373271/user/lib/fd.c:232
  4024b8:	8fc20018 	lw	v0,24(s8)
  4024bc:	00000000 	nop
  4024c0:	8c440004 	lw	a0,4(v0)
  4024c4:	8fc30010 	lw	v1,16(s8)
  4024c8:	8fc20018 	lw	v0,24(s8)
  4024cc:	00831821 	addu	v1,a0,v1
  4024d0:	ac430004 	sw	v1,4(v0)
/home/git/21373271/21373271/user/lib/fd.c:235
  4024d4:	8fc20010 	lw	v0,16(s8)
/home/git/21373271/21373271/user/lib/fd.c:236 (discriminator 1)
  4024d8:	03c0e825 	move	sp,s8
  4024dc:	8fbf0024 	lw	ra,36(sp)
  4024e0:	8fbe0020 	lw	s8,32(sp)
  4024e4:	27bd0028 	addiu	sp,sp,40
  4024e8:	03e00008 	jr	ra
  4024ec:	00000000 	nop

004024f0 <seek>:
seek():
/home/git/21373271/21373271/user/lib/fd.c:238
  4024f0:	27bdffe0 	addiu	sp,sp,-32
  4024f4:	afbf001c 	sw	ra,28(sp)
  4024f8:	afbe0018 	sw	s8,24(sp)
  4024fc:	03a0f025 	move	s8,sp
  402500:	afc40020 	sw	a0,32(s8)
  402504:	afc50024 	sw	a1,36(s8)
/home/git/21373271/21373271/user/lib/fd.c:242
  402508:	27c20014 	addiu	v0,s8,20
  40250c:	00402825 	move	a1,v0
  402510:	8fc40020 	lw	a0,32(s8)
  402514:	0c100727 	jal	401c9c <fd_lookup>
  402518:	00000000 	nop
  40251c:	afc20010 	sw	v0,16(s8)
  402520:	8fc20010 	lw	v0,16(s8)
  402524:	00000000 	nop
  402528:	04410004 	bgez	v0,40253c <seek+0x4c>
  40252c:	00000000 	nop
/home/git/21373271/21373271/user/lib/fd.c:243
  402530:	8fc20010 	lw	v0,16(s8)
  402534:	10000006 	b	402550 <seek+0x60>
  402538:	00000000 	nop
/home/git/21373271/21373271/user/lib/fd.c:246
  40253c:	8fc20014 	lw	v0,20(s8)
  402540:	8fc30024 	lw	v1,36(s8)
  402544:	00000000 	nop
  402548:	ac430004 	sw	v1,4(v0)
/home/git/21373271/21373271/user/lib/fd.c:247
  40254c:	00001025 	move	v0,zero
/home/git/21373271/21373271/user/lib/fd.c:248 (discriminator 1)
  402550:	03c0e825 	move	sp,s8
  402554:	8fbf001c 	lw	ra,28(sp)
  402558:	8fbe0018 	lw	s8,24(sp)
  40255c:	27bd0020 	addiu	sp,sp,32
  402560:	03e00008 	jr	ra
  402564:	00000000 	nop

00402568 <fstat>:
fstat():
/home/git/21373271/21373271/user/lib/fd.c:250
  402568:	27bdffd8 	addiu	sp,sp,-40
  40256c:	afbf0024 	sw	ra,36(sp)
  402570:	afbe0020 	sw	s8,32(sp)
  402574:	03a0f025 	move	s8,sp
  402578:	afc40028 	sw	a0,40(s8)
  40257c:	afc5002c 	sw	a1,44(s8)
/home/git/21373271/21373271/user/lib/fd.c:252
  402580:	afc00014 	sw	zero,20(s8)
/home/git/21373271/21373271/user/lib/fd.c:255
  402584:	27c20018 	addiu	v0,s8,24
  402588:	00402825 	move	a1,v0
  40258c:	8fc40028 	lw	a0,40(s8)
  402590:	0c100727 	jal	401c9c <fd_lookup>
  402594:	00000000 	nop
  402598:	afc20010 	sw	v0,16(s8)
  40259c:	8fc20010 	lw	v0,16(s8)
  4025a0:	00000000 	nop
  4025a4:	0440000e 	bltz	v0,4025e0 <fstat+0x78>
  4025a8:	00000000 	nop
/home/git/21373271/21373271/user/lib/fd.c:255 (discriminator 1)
  4025ac:	8fc20018 	lw	v0,24(s8)
  4025b0:	00000000 	nop
  4025b4:	8c420000 	lw	v0,0(v0)
  4025b8:	27c30014 	addiu	v1,s8,20
  4025bc:	00602825 	move	a1,v1
  4025c0:	00402025 	move	a0,v0
  4025c4:	0c100694 	jal	401a50 <dev_lookup>
  4025c8:	00000000 	nop
  4025cc:	afc20010 	sw	v0,16(s8)
  4025d0:	8fc20010 	lw	v0,16(s8)
  4025d4:	00000000 	nop
  4025d8:	04410004 	bgez	v0,4025ec <fstat+0x84>
  4025dc:	00000000 	nop
/home/git/21373271/21373271/user/lib/fd.c:256
  4025e0:	8fc20010 	lw	v0,16(s8)
  4025e4:	10000016 	b	402640 <fstat+0xd8>
  4025e8:	00000000 	nop
/home/git/21373271/21373271/user/lib/fd.c:259
  4025ec:	8fc2002c 	lw	v0,44(s8)
  4025f0:	00000000 	nop
  4025f4:	a0400000 	sb	zero,0(v0)
/home/git/21373271/21373271/user/lib/fd.c:260
  4025f8:	8fc2002c 	lw	v0,44(s8)
  4025fc:	00000000 	nop
  402600:	ac400080 	sw	zero,128(v0)
/home/git/21373271/21373271/user/lib/fd.c:261
  402604:	8fc2002c 	lw	v0,44(s8)
  402608:	00000000 	nop
  40260c:	ac400084 	sw	zero,132(v0)
/home/git/21373271/21373271/user/lib/fd.c:262
  402610:	8fc30014 	lw	v1,20(s8)
  402614:	8fc2002c 	lw	v0,44(s8)
  402618:	00000000 	nop
  40261c:	ac430088 	sw	v1,136(v0)
/home/git/21373271/21373271/user/lib/fd.c:263
  402620:	8fc20014 	lw	v0,20(s8)
  402624:	00000000 	nop
  402628:	8c420014 	lw	v0,20(v0)
  40262c:	8fc30018 	lw	v1,24(s8)
  402630:	8fc5002c 	lw	a1,44(s8)
  402634:	00602025 	move	a0,v1
  402638:	0040f809 	jalr	v0
  40263c:	00000000 	nop
/home/git/21373271/21373271/user/lib/fd.c:264 (discriminator 1)
  402640:	03c0e825 	move	sp,s8
  402644:	8fbf0024 	lw	ra,36(sp)
  402648:	8fbe0020 	lw	s8,32(sp)
  40264c:	27bd0028 	addiu	sp,sp,40
  402650:	03e00008 	jr	ra
  402654:	00000000 	nop

00402658 <stat>:
stat():
/home/git/21373271/21373271/user/lib/fd.c:266
  402658:	27bdffe0 	addiu	sp,sp,-32
  40265c:	afbf001c 	sw	ra,28(sp)
  402660:	afbe0018 	sw	s8,24(sp)
  402664:	03a0f025 	move	s8,sp
  402668:	afc40020 	sw	a0,32(s8)
  40266c:	afc50024 	sw	a1,36(s8)
/home/git/21373271/21373271/user/lib/fd.c:269
  402670:	00002825 	move	a1,zero
  402674:	8fc40020 	lw	a0,32(s8)
  402678:	0c1009f0 	jal	4027c0 <open>
  40267c:	00000000 	nop
  402680:	afc20010 	sw	v0,16(s8)
  402684:	8fc20010 	lw	v0,16(s8)
  402688:	00000000 	nop
  40268c:	04410004 	bgez	v0,4026a0 <stat+0x48>
  402690:	00000000 	nop
/home/git/21373271/21373271/user/lib/fd.c:270
  402694:	8fc20010 	lw	v0,16(s8)
  402698:	1000000a 	b	4026c4 <stat+0x6c>
  40269c:	00000000 	nop
/home/git/21373271/21373271/user/lib/fd.c:273
  4026a0:	8fc50024 	lw	a1,36(s8)
  4026a4:	8fc40010 	lw	a0,16(s8)
  4026a8:	0c10095a 	jal	402568 <fstat>
  4026ac:	00000000 	nop
  4026b0:	afc20014 	sw	v0,20(s8)
/home/git/21373271/21373271/user/lib/fd.c:274
  4026b4:	8fc40010 	lw	a0,16(s8)
  4026b8:	0c10077d 	jal	401df4 <close>
  4026bc:	00000000 	nop
/home/git/21373271/21373271/user/lib/fd.c:275
  4026c0:	8fc20014 	lw	v0,20(s8)
/home/git/21373271/21373271/user/lib/fd.c:276
  4026c4:	03c0e825 	move	sp,s8
  4026c8:	8fbf001c 	lw	ra,28(sp)
  4026cc:	8fbe0018 	lw	s8,24(sp)
  4026d0:	27bd0020 	addiu	sp,sp,32
  4026d4:	03e00008 	jr	ra
  4026d8:	00000000 	nop
  4026dc:	00000000 	nop

004026e0 <pageref>:
pageref():
/home/git/21373271/21373271/user/lib/pageref.c:3
  4026e0:	27bdfff0 	addiu	sp,sp,-16
  4026e4:	afbe000c 	sw	s8,12(sp)
  4026e8:	03a0f025 	move	s8,sp
  4026ec:	afc40010 	sw	a0,16(s8)
/home/git/21373271/21373271/user/lib/pageref.c:6
  4026f0:	8fc20010 	lw	v0,16(s8)
  4026f4:	00000000 	nop
  4026f8:	00021582 	srl	v0,v0,0x16
  4026fc:	00021880 	sll	v1,v0,0x2
  402700:	3c027fdf 	lui	v0,0x7fdf
  402704:	3442f000 	ori	v0,v0,0xf000
  402708:	00621021 	addu	v0,v1,v0
  40270c:	8c420000 	lw	v0,0(v0)
  402710:	00000000 	nop
  402714:	30420200 	andi	v0,v0,0x200
  402718:	14400004 	bnez	v0,40272c <pageref+0x4c>
  40271c:	00000000 	nop
/home/git/21373271/21373271/user/lib/pageref.c:7
  402720:	00001025 	move	v0,zero
  402724:	1000001f 	b	4027a4 <pageref+0xc4>
  402728:	00000000 	nop
/home/git/21373271/21373271/user/lib/pageref.c:10
  40272c:	8fc20010 	lw	v0,16(s8)
  402730:	00000000 	nop
  402734:	00021302 	srl	v0,v0,0xc
  402738:	00021880 	sll	v1,v0,0x2
  40273c:	3c027fc0 	lui	v0,0x7fc0
  402740:	00621021 	addu	v0,v1,v0
  402744:	8c420000 	lw	v0,0(v0)
  402748:	00000000 	nop
  40274c:	afc20000 	sw	v0,0(s8)
/home/git/21373271/21373271/user/lib/pageref.c:12
  402750:	8fc20000 	lw	v0,0(s8)
  402754:	00000000 	nop
  402758:	30420200 	andi	v0,v0,0x200
  40275c:	14400004 	bnez	v0,402770 <pageref+0x90>
  402760:	00000000 	nop
/home/git/21373271/21373271/user/lib/pageref.c:13
  402764:	00001025 	move	v0,zero
  402768:	1000000e 	b	4027a4 <pageref+0xc4>
  40276c:	00000000 	nop
/home/git/21373271/21373271/user/lib/pageref.c:16
  402770:	8fc20000 	lw	v0,0(s8)
  402774:	00000000 	nop
  402778:	00021b02 	srl	v1,v0,0xc
  40277c:	00601025 	move	v0,v1
  402780:	00021040 	sll	v0,v0,0x1
  402784:	00431021 	addu	v0,v0,v1
  402788:	00021080 	sll	v0,v0,0x2
  40278c:	00401825 	move	v1,v0
  402790:	3c027f80 	lui	v0,0x7f80
  402794:	00621021 	addu	v0,v1,v0
  402798:	94420008 	lhu	v0,8(v0)
  40279c:	00000000 	nop
  4027a0:	3042ffff 	andi	v0,v0,0xffff
/home/git/21373271/21373271/user/lib/pageref.c:17
  4027a4:	03c0e825 	move	sp,s8
  4027a8:	8fbe000c 	lw	s8,12(sp)
  4027ac:	27bd0010 	addiu	sp,sp,16
  4027b0:	03e00008 	jr	ra
  4027b4:	00000000 	nop
	...

004027c0 <open>:
open():
/home/git/21373271/21373271/user/lib/file.c:28
  4027c0:	27bdffc8 	addiu	sp,sp,-56
  4027c4:	afbf0034 	sw	ra,52(sp)
  4027c8:	afbe0030 	sw	s8,48(sp)
  4027cc:	03a0f025 	move	s8,sp
  4027d0:	afc40038 	sw	a0,56(s8)
  4027d4:	afc5003c 	sw	a1,60(s8)
/home/git/21373271/21373271/user/lib/file.c:35
  4027d8:	27c20028 	addiu	v0,s8,40
  4027dc:	00402025 	move	a0,v0
  4027e0:	0c1006d6 	jal	401b58 <fd_alloc>
  4027e4:	00000000 	nop
  4027e8:	afc20014 	sw	v0,20(s8)
  4027ec:	8fc20014 	lw	v0,20(s8)
  4027f0:	00000000 	nop
  4027f4:	04410004 	bgez	v0,402808 <open+0x48>
  4027f8:	00000000 	nop
/home/git/21373271/21373271/user/lib/file.c:36
  4027fc:	8fc20014 	lw	v0,20(s8)
  402800:	10000048 	b	402924 <open+0x164>
  402804:	00000000 	nop
/home/git/21373271/21373271/user/lib/file.c:40
  402808:	8fc2003c 	lw	v0,60(s8)
  40280c:	8fc30028 	lw	v1,40(s8)
  402810:	00000000 	nop
  402814:	00603025 	move	a2,v1
  402818:	00402825 	move	a1,v0
  40281c:	8fc40038 	lw	a0,56(s8)
  402820:	0c100c99 	jal	403264 <fsipc_open>
  402824:	00000000 	nop
  402828:	afc20014 	sw	v0,20(s8)
  40282c:	8fc20014 	lw	v0,20(s8)
  402830:	00000000 	nop
  402834:	04410004 	bgez	v0,402848 <open+0x88>
  402838:	00000000 	nop
/home/git/21373271/21373271/user/lib/file.c:41
  40283c:	8fc20014 	lw	v0,20(s8)
  402840:	10000038 	b	402924 <open+0x164>
  402844:	00000000 	nop
/home/git/21373271/21373271/user/lib/file.c:49
  402848:	8fc20028 	lw	v0,40(s8)
  40284c:	00000000 	nop
  402850:	00402025 	move	a0,v0
  402854:	0c100752 	jal	401d48 <fd2data>
  402858:	00000000 	nop
  40285c:	afc20018 	sw	v0,24(s8)
/home/git/21373271/21373271/user/lib/file.c:50
  402860:	8fc20028 	lw	v0,40(s8)
  402864:	00000000 	nop
  402868:	afc2001c 	sw	v0,28(s8)
/home/git/21373271/21373271/user/lib/file.c:51
  40286c:	8fc2001c 	lw	v0,28(s8)
  402870:	00000000 	nop
  402874:	8c42000c 	lw	v0,12(v0)
  402878:	00000000 	nop
  40287c:	afc20020 	sw	v0,32(s8)
/home/git/21373271/21373271/user/lib/file.c:52
  402880:	8fc2001c 	lw	v0,28(s8)
  402884:	00000000 	nop
  402888:	8c420090 	lw	v0,144(v0)
  40288c:	00000000 	nop
  402890:	afc20024 	sw	v0,36(s8)
/home/git/21373271/21373271/user/lib/file.c:54
  402894:	afc00010 	sw	zero,16(s8)
  402898:	10000017 	b	4028f8 <open+0x138>
  40289c:	00000000 	nop
/home/git/21373271/21373271/user/lib/file.c:56
  4028a0:	8fc40010 	lw	a0,16(s8)
  4028a4:	8fc20010 	lw	v0,16(s8)
  4028a8:	8fc30018 	lw	v1,24(s8)
  4028ac:	00000000 	nop
  4028b0:	00621021 	addu	v0,v1,v0
  4028b4:	00403025 	move	a2,v0
  4028b8:	00802825 	move	a1,a0
  4028bc:	8fc40020 	lw	a0,32(s8)
  4028c0:	0c100cc2 	jal	403308 <fsipc_map>
  4028c4:	00000000 	nop
  4028c8:	afc20014 	sw	v0,20(s8)
  4028cc:	8fc20014 	lw	v0,20(s8)
  4028d0:	00000000 	nop
  4028d4:	04410004 	bgez	v0,4028e8 <open+0x128>
  4028d8:	00000000 	nop
/home/git/21373271/21373271/user/lib/file.c:57
  4028dc:	8fc20014 	lw	v0,20(s8)
  4028e0:	10000010 	b	402924 <open+0x164>
  4028e4:	00000000 	nop
/home/git/21373271/21373271/user/lib/file.c:54 (discriminator 2)
  4028e8:	8fc20010 	lw	v0,16(s8)
  4028ec:	00000000 	nop
  4028f0:	24421000 	addiu	v0,v0,4096
  4028f4:	afc20010 	sw	v0,16(s8)
/home/git/21373271/21373271/user/lib/file.c:54 (discriminator 1)
  4028f8:	8fc20010 	lw	v0,16(s8)
  4028fc:	8fc30024 	lw	v1,36(s8)
  402900:	00000000 	nop
  402904:	0043102b 	sltu	v0,v0,v1
  402908:	1440ffe5 	bnez	v0,4028a0 <open+0xe0>
  40290c:	00000000 	nop
/home/git/21373271/21373271/user/lib/file.c:63
  402910:	8fc20028 	lw	v0,40(s8)
  402914:	00000000 	nop
  402918:	00402025 	move	a0,v0
  40291c:	0c100762 	jal	401d88 <fd2num>
  402920:	00000000 	nop
/home/git/21373271/21373271/user/lib/file.c:64 (discriminator 1)
  402924:	03c0e825 	move	sp,s8
  402928:	8fbf0034 	lw	ra,52(sp)
  40292c:	8fbe0030 	lw	s8,48(sp)
  402930:	27bd0038 	addiu	sp,sp,56
  402934:	03e00008 	jr	ra
  402938:	00000000 	nop

0040293c <file_close>:
file_close():
/home/git/21373271/21373271/user/lib/file.c:68
  40293c:	27bdffd0 	addiu	sp,sp,-48
  402940:	afbf002c 	sw	ra,44(sp)
  402944:	afbe0028 	sw	s8,40(sp)
  402948:	03a0f025 	move	s8,sp
  40294c:	afc40030 	sw	a0,48(s8)
/home/git/21373271/21373271/user/lib/file.c:75
  402950:	8fc20030 	lw	v0,48(s8)
  402954:	00000000 	nop
  402958:	afc20014 	sw	v0,20(s8)
/home/git/21373271/21373271/user/lib/file.c:76
  40295c:	8fc20014 	lw	v0,20(s8)
  402960:	00000000 	nop
  402964:	8c42000c 	lw	v0,12(v0)
  402968:	00000000 	nop
  40296c:	afc20018 	sw	v0,24(s8)
/home/git/21373271/21373271/user/lib/file.c:77
  402970:	8fc20014 	lw	v0,20(s8)
  402974:	00000000 	nop
  402978:	8c420090 	lw	v0,144(v0)
  40297c:	00000000 	nop
  402980:	afc2001c 	sw	v0,28(s8)
/home/git/21373271/21373271/user/lib/file.c:80
  402984:	8fc40030 	lw	a0,48(s8)
  402988:	0c100752 	jal	401d48 <fd2data>
  40298c:	00000000 	nop
  402990:	afc20020 	sw	v0,32(s8)
/home/git/21373271/21373271/user/lib/file.c:83
  402994:	afc00010 	sw	zero,16(s8)
  402998:	10000009 	b	4029c0 <file_close+0x84>
  40299c:	00000000 	nop
/home/git/21373271/21373271/user/lib/file.c:84 (discriminator 3)
  4029a0:	8fc50010 	lw	a1,16(s8)
  4029a4:	8fc40018 	lw	a0,24(s8)
  4029a8:	0c100d31 	jal	4034c4 <fsipc_dirty>
  4029ac:	00000000 	nop
/home/git/21373271/21373271/user/lib/file.c:83 (discriminator 3)
  4029b0:	8fc20010 	lw	v0,16(s8)
  4029b4:	00000000 	nop
  4029b8:	24421000 	addiu	v0,v0,4096
  4029bc:	afc20010 	sw	v0,16(s8)
/home/git/21373271/21373271/user/lib/file.c:83 (discriminator 1)
  4029c0:	8fc30010 	lw	v1,16(s8)
  4029c4:	8fc2001c 	lw	v0,28(s8)
  4029c8:	00000000 	nop
  4029cc:	0062102b 	sltu	v0,v1,v0
  4029d0:	1440fff3 	bnez	v0,4029a0 <file_close+0x64>
  4029d4:	00000000 	nop
/home/git/21373271/21373271/user/lib/file.c:88
  4029d8:	8fc40018 	lw	a0,24(s8)
  4029dc:	0c100d19 	jal	403464 <fsipc_close>
  4029e0:	00000000 	nop
  4029e4:	afc20024 	sw	v0,36(s8)
  4029e8:	8fc20024 	lw	v0,36(s8)
  4029ec:	00000000 	nop
  4029f0:	04410008 	bgez	v0,402a14 <file_close+0xd8>
  4029f4:	00000000 	nop
/home/git/21373271/21373271/user/lib/file.c:89
  4029f8:	3c020040 	lui	v0,0x40
  4029fc:	24447a98 	addiu	a0,v0,31384
  402a00:	0c10037c 	jal	400df0 <debugf>
  402a04:	00000000 	nop
/home/git/21373271/21373271/user/lib/file.c:90
  402a08:	8fc20024 	lw	v0,36(s8)
  402a0c:	1000002a 	b	402ab8 <file_close+0x17c>
  402a10:	00000000 	nop
/home/git/21373271/21373271/user/lib/file.c:94
  402a14:	8fc2001c 	lw	v0,28(s8)
  402a18:	00000000 	nop
  402a1c:	14400004 	bnez	v0,402a30 <file_close+0xf4>
  402a20:	00000000 	nop
/home/git/21373271/21373271/user/lib/file.c:95
  402a24:	00001025 	move	v0,zero
  402a28:	10000023 	b	402ab8 <file_close+0x17c>
  402a2c:	00000000 	nop
/home/git/21373271/21373271/user/lib/file.c:97
  402a30:	afc00010 	sw	zero,16(s8)
  402a34:	10000019 	b	402a9c <file_close+0x160>
  402a38:	00000000 	nop
/home/git/21373271/21373271/user/lib/file.c:98
  402a3c:	8fc30020 	lw	v1,32(s8)
  402a40:	8fc20010 	lw	v0,16(s8)
  402a44:	00000000 	nop
  402a48:	00621021 	addu	v0,v1,v0
  402a4c:	00402825 	move	a1,v0
  402a50:	00002025 	move	a0,zero
  402a54:	0c100591 	jal	401644 <syscall_mem_unmap>
  402a58:	00000000 	nop
  402a5c:	afc20024 	sw	v0,36(s8)
  402a60:	8fc20024 	lw	v0,36(s8)
  402a64:	00000000 	nop
  402a68:	04410008 	bgez	v0,402a8c <file_close+0x150>
  402a6c:	00000000 	nop
/home/git/21373271/21373271/user/lib/file.c:99
  402a70:	3c020040 	lui	v0,0x40
  402a74:	24447ab0 	addiu	a0,v0,31408
  402a78:	0c10037c 	jal	400df0 <debugf>
  402a7c:	00000000 	nop
/home/git/21373271/21373271/user/lib/file.c:100
  402a80:	8fc20024 	lw	v0,36(s8)
  402a84:	1000000c 	b	402ab8 <file_close+0x17c>
  402a88:	00000000 	nop
/home/git/21373271/21373271/user/lib/file.c:97 (discriminator 2)
  402a8c:	8fc20010 	lw	v0,16(s8)
  402a90:	00000000 	nop
  402a94:	24421000 	addiu	v0,v0,4096
  402a98:	afc20010 	sw	v0,16(s8)
/home/git/21373271/21373271/user/lib/file.c:97 (discriminator 1)
  402a9c:	8fc30010 	lw	v1,16(s8)
  402aa0:	8fc2001c 	lw	v0,28(s8)
  402aa4:	00000000 	nop
  402aa8:	0062102b 	sltu	v0,v1,v0
  402aac:	1440ffe3 	bnez	v0,402a3c <file_close+0x100>
  402ab0:	00000000 	nop
/home/git/21373271/21373271/user/lib/file.c:103
  402ab4:	00001025 	move	v0,zero
/home/git/21373271/21373271/user/lib/file.c:104
  402ab8:	03c0e825 	move	sp,s8
  402abc:	8fbf002c 	lw	ra,44(sp)
  402ac0:	8fbe0028 	lw	s8,40(sp)
  402ac4:	27bd0030 	addiu	sp,sp,48
  402ac8:	03e00008 	jr	ra
  402acc:	00000000 	nop

00402ad0 <file_read>:
file_read():
/home/git/21373271/21373271/user/lib/file.c:110
  402ad0:	27bdffe0 	addiu	sp,sp,-32
  402ad4:	afbf001c 	sw	ra,28(sp)
  402ad8:	afbe0018 	sw	s8,24(sp)
  402adc:	03a0f025 	move	s8,sp
  402ae0:	afc40020 	sw	a0,32(s8)
  402ae4:	afc50024 	sw	a1,36(s8)
  402ae8:	afc60028 	sw	a2,40(s8)
  402aec:	afc7002c 	sw	a3,44(s8)
/home/git/21373271/21373271/user/lib/file.c:113
  402af0:	8fc20020 	lw	v0,32(s8)
  402af4:	00000000 	nop
  402af8:	afc20010 	sw	v0,16(s8)
/home/git/21373271/21373271/user/lib/file.c:116
  402afc:	8fc20010 	lw	v0,16(s8)
  402b00:	00000000 	nop
  402b04:	8c420090 	lw	v0,144(v0)
  402b08:	00000000 	nop
  402b0c:	afc20014 	sw	v0,20(s8)
/home/git/21373271/21373271/user/lib/file.c:118
  402b10:	8fc3002c 	lw	v1,44(s8)
  402b14:	8fc20014 	lw	v0,20(s8)
  402b18:	00000000 	nop
  402b1c:	0043102b 	sltu	v0,v0,v1
  402b20:	10400004 	beqz	v0,402b34 <file_read+0x64>
  402b24:	00000000 	nop
/home/git/21373271/21373271/user/lib/file.c:119
  402b28:	00001025 	move	v0,zero
  402b2c:	1000001c 	b	402ba0 <file_read+0xd0>
  402b30:	00000000 	nop
/home/git/21373271/21373271/user/lib/file.c:122
  402b34:	8fc3002c 	lw	v1,44(s8)
  402b38:	8fc20028 	lw	v0,40(s8)
  402b3c:	00000000 	nop
  402b40:	00621021 	addu	v0,v1,v0
  402b44:	8fc30014 	lw	v1,20(s8)
  402b48:	00000000 	nop
  402b4c:	0062102b 	sltu	v0,v1,v0
  402b50:	10400006 	beqz	v0,402b6c <file_read+0x9c>
  402b54:	00000000 	nop
/home/git/21373271/21373271/user/lib/file.c:123
  402b58:	8fc30014 	lw	v1,20(s8)
  402b5c:	8fc2002c 	lw	v0,44(s8)
  402b60:	00000000 	nop
  402b64:	00621023 	subu	v0,v1,v0
  402b68:	afc20028 	sw	v0,40(s8)
/home/git/21373271/21373271/user/lib/file.c:126
  402b6c:	8fc40020 	lw	a0,32(s8)
  402b70:	0c100752 	jal	401d48 <fd2data>
  402b74:	00000000 	nop
  402b78:	00401825 	move	v1,v0
  402b7c:	8fc2002c 	lw	v0,44(s8)
  402b80:	00000000 	nop
  402b84:	00621021 	addu	v0,v1,v0
  402b88:	8fc60028 	lw	a2,40(s8)
  402b8c:	00402825 	move	a1,v0
  402b90:	8fc40024 	lw	a0,36(s8)
  402b94:	0c101384 	jal	404e10 <memcpy>
  402b98:	00000000 	nop
/home/git/21373271/21373271/user/lib/file.c:127
  402b9c:	8fc20028 	lw	v0,40(s8)
/home/git/21373271/21373271/user/lib/file.c:128
  402ba0:	03c0e825 	move	sp,s8
  402ba4:	8fbf001c 	lw	ra,28(sp)
  402ba8:	8fbe0018 	lw	s8,24(sp)
  402bac:	27bd0020 	addiu	sp,sp,32
  402bb0:	03e00008 	jr	ra
  402bb4:	00000000 	nop

00402bb8 <read_map>:
read_map():
/home/git/21373271/21373271/user/lib/file.c:133
  402bb8:	27bdffd8 	addiu	sp,sp,-40
  402bbc:	afbf0024 	sw	ra,36(sp)
  402bc0:	afbe0020 	sw	s8,32(sp)
  402bc4:	03a0f025 	move	s8,sp
  402bc8:	afc40028 	sw	a0,40(s8)
  402bcc:	afc5002c 	sw	a1,44(s8)
  402bd0:	afc60030 	sw	a2,48(s8)
/home/git/21373271/21373271/user/lib/file.c:138
  402bd4:	27c20018 	addiu	v0,s8,24
  402bd8:	00402825 	move	a1,v0
  402bdc:	8fc40028 	lw	a0,40(s8)
  402be0:	0c100727 	jal	401c9c <fd_lookup>
  402be4:	00000000 	nop
  402be8:	afc20010 	sw	v0,16(s8)
  402bec:	8fc20010 	lw	v0,16(s8)
  402bf0:	00000000 	nop
  402bf4:	04410004 	bgez	v0,402c08 <read_map+0x50>
  402bf8:	00000000 	nop
/home/git/21373271/21373271/user/lib/file.c:139
  402bfc:	8fc20010 	lw	v0,16(s8)
  402c00:	1000003d 	b	402cf8 <read_map+0x140>
  402c04:	00000000 	nop
/home/git/21373271/21373271/user/lib/file.c:142
  402c08:	8fc20018 	lw	v0,24(s8)
  402c0c:	00000000 	nop
  402c10:	8c420000 	lw	v0,0(v0)
  402c14:	3c030041 	lui	v1,0x41
  402c18:	8c63d010 	lw	v1,-12272(v1)
  402c1c:	00000000 	nop
  402c20:	10430004 	beq	v0,v1,402c34 <read_map+0x7c>
  402c24:	00000000 	nop
/home/git/21373271/21373271/user/lib/file.c:143
  402c28:	2402fffd 	li	v0,-3
  402c2c:	10000032 	b	402cf8 <read_map+0x140>
  402c30:	00000000 	nop
/home/git/21373271/21373271/user/lib/file.c:146
  402c34:	8fc20018 	lw	v0,24(s8)
  402c38:	00000000 	nop
  402c3c:	00402025 	move	a0,v0
  402c40:	0c100752 	jal	401d48 <fd2data>
  402c44:	00000000 	nop
  402c48:	00401825 	move	v1,v0
  402c4c:	8fc2002c 	lw	v0,44(s8)
  402c50:	00000000 	nop
  402c54:	00621021 	addu	v0,v1,v0
  402c58:	afc20014 	sw	v0,20(s8)
/home/git/21373271/21373271/user/lib/file.c:148
  402c5c:	8fc3002c 	lw	v1,44(s8)
  402c60:	3c020040 	lui	v0,0x40
  402c64:	0062102b 	sltu	v0,v1,v0
  402c68:	14400004 	bnez	v0,402c7c <read_map+0xc4>
  402c6c:	00000000 	nop
/home/git/21373271/21373271/user/lib/file.c:149
  402c70:	2402fff8 	li	v0,-8
  402c74:	10000020 	b	402cf8 <read_map+0x140>
  402c78:	00000000 	nop
/home/git/21373271/21373271/user/lib/file.c:152
  402c7c:	8fc20014 	lw	v0,20(s8)
  402c80:	00000000 	nop
  402c84:	00021582 	srl	v0,v0,0x16
  402c88:	00021880 	sll	v1,v0,0x2
  402c8c:	3c027fdf 	lui	v0,0x7fdf
  402c90:	3442f000 	ori	v0,v0,0xf000
  402c94:	00621021 	addu	v0,v1,v0
  402c98:	8c420000 	lw	v0,0(v0)
  402c9c:	00000000 	nop
  402ca0:	30420200 	andi	v0,v0,0x200
  402ca4:	1040000c 	beqz	v0,402cd8 <read_map+0x120>
  402ca8:	00000000 	nop
/home/git/21373271/21373271/user/lib/file.c:152 (discriminator 1)
  402cac:	8fc20014 	lw	v0,20(s8)
  402cb0:	00000000 	nop
  402cb4:	00021302 	srl	v0,v0,0xc
  402cb8:	00021880 	sll	v1,v0,0x2
  402cbc:	3c027fc0 	lui	v0,0x7fc0
  402cc0:	00621021 	addu	v0,v1,v0
  402cc4:	8c420000 	lw	v0,0(v0)
  402cc8:	00000000 	nop
  402ccc:	30420200 	andi	v0,v0,0x200
  402cd0:	14400004 	bnez	v0,402ce4 <read_map+0x12c>
  402cd4:	00000000 	nop
/home/git/21373271/21373271/user/lib/file.c:153
  402cd8:	2402fff8 	li	v0,-8
  402cdc:	10000006 	b	402cf8 <read_map+0x140>
  402ce0:	00000000 	nop
/home/git/21373271/21373271/user/lib/file.c:156
  402ce4:	8fc20030 	lw	v0,48(s8)
  402ce8:	8fc30014 	lw	v1,20(s8)
  402cec:	00000000 	nop
  402cf0:	ac430000 	sw	v1,0(v0)
/home/git/21373271/21373271/user/lib/file.c:157
  402cf4:	00001025 	move	v0,zero
/home/git/21373271/21373271/user/lib/file.c:158 (discriminator 1)
  402cf8:	03c0e825 	move	sp,s8
  402cfc:	8fbf0024 	lw	ra,36(sp)
  402d00:	8fbe0020 	lw	s8,32(sp)
  402d04:	27bd0028 	addiu	sp,sp,40
  402d08:	03e00008 	jr	ra
  402d0c:	00000000 	nop

00402d10 <file_write>:
file_write():
/home/git/21373271/21373271/user/lib/file.c:162
  402d10:	27bdffd8 	addiu	sp,sp,-40
  402d14:	afbf0024 	sw	ra,36(sp)
  402d18:	afbe0020 	sw	s8,32(sp)
  402d1c:	03a0f025 	move	s8,sp
  402d20:	afc40028 	sw	a0,40(s8)
  402d24:	afc5002c 	sw	a1,44(s8)
  402d28:	afc60030 	sw	a2,48(s8)
  402d2c:	afc70034 	sw	a3,52(s8)
/home/git/21373271/21373271/user/lib/file.c:167
  402d30:	8fc20028 	lw	v0,40(s8)
  402d34:	00000000 	nop
  402d38:	afc20010 	sw	v0,16(s8)
/home/git/21373271/21373271/user/lib/file.c:170
  402d3c:	8fc30034 	lw	v1,52(s8)
  402d40:	8fc20030 	lw	v0,48(s8)
  402d44:	00000000 	nop
  402d48:	00621021 	addu	v0,v1,v0
  402d4c:	afc20014 	sw	v0,20(s8)
/home/git/21373271/21373271/user/lib/file.c:172
  402d50:	8fc30014 	lw	v1,20(s8)
  402d54:	3c020040 	lui	v0,0x40
  402d58:	34420001 	ori	v0,v0,0x1
  402d5c:	0062102b 	sltu	v0,v1,v0
  402d60:	14400004 	bnez	v0,402d74 <file_write+0x64>
  402d64:	00000000 	nop
/home/git/21373271/21373271/user/lib/file.c:173
  402d68:	2402fff8 	li	v0,-8
  402d6c:	10000025 	b	402e04 <file_write+0xf4>
  402d70:	00000000 	nop
/home/git/21373271/21373271/user/lib/file.c:177
  402d74:	8fc20010 	lw	v0,16(s8)
  402d78:	00000000 	nop
  402d7c:	8c420090 	lw	v0,144(v0)
  402d80:	8fc30014 	lw	v1,20(s8)
  402d84:	00000000 	nop
  402d88:	0043102b 	sltu	v0,v0,v1
  402d8c:	10400010 	beqz	v0,402dd0 <file_write+0xc0>
  402d90:	00000000 	nop
/home/git/21373271/21373271/user/lib/file.c:178
  402d94:	8fc40028 	lw	a0,40(s8)
  402d98:	0c100762 	jal	401d88 <fd2num>
  402d9c:	00000000 	nop
  402da0:	8fc50014 	lw	a1,20(s8)
  402da4:	00402025 	move	a0,v0
  402da8:	0c100bb0 	jal	402ec0 <ftruncate>
  402dac:	00000000 	nop
  402db0:	afc20018 	sw	v0,24(s8)
  402db4:	8fc20018 	lw	v0,24(s8)
  402db8:	00000000 	nop
  402dbc:	04410004 	bgez	v0,402dd0 <file_write+0xc0>
  402dc0:	00000000 	nop
/home/git/21373271/21373271/user/lib/file.c:179
  402dc4:	8fc20018 	lw	v0,24(s8)
  402dc8:	1000000e 	b	402e04 <file_write+0xf4>
  402dcc:	00000000 	nop
/home/git/21373271/21373271/user/lib/file.c:184
  402dd0:	8fc40028 	lw	a0,40(s8)
  402dd4:	0c100752 	jal	401d48 <fd2data>
  402dd8:	00000000 	nop
  402ddc:	00401825 	move	v1,v0
  402de0:	8fc20034 	lw	v0,52(s8)
  402de4:	00000000 	nop
  402de8:	00621021 	addu	v0,v1,v0
  402dec:	8fc60030 	lw	a2,48(s8)
  402df0:	8fc5002c 	lw	a1,44(s8)
  402df4:	00402025 	move	a0,v0
  402df8:	0c101384 	jal	404e10 <memcpy>
  402dfc:	00000000 	nop
/home/git/21373271/21373271/user/lib/file.c:185
  402e00:	8fc20030 	lw	v0,48(s8)
/home/git/21373271/21373271/user/lib/file.c:186
  402e04:	03c0e825 	move	sp,s8
  402e08:	8fbf0024 	lw	ra,36(sp)
  402e0c:	8fbe0020 	lw	s8,32(sp)
  402e10:	27bd0028 	addiu	sp,sp,40
  402e14:	03e00008 	jr	ra
  402e18:	00000000 	nop

00402e1c <file_stat>:
file_stat():
/home/git/21373271/21373271/user/lib/file.c:188
  402e1c:	27bdffe0 	addiu	sp,sp,-32
  402e20:	afbf001c 	sw	ra,28(sp)
  402e24:	afbe0018 	sw	s8,24(sp)
  402e28:	03a0f025 	move	s8,sp
  402e2c:	afc40020 	sw	a0,32(s8)
  402e30:	afc50024 	sw	a1,36(s8)
/home/git/21373271/21373271/user/lib/file.c:191
  402e34:	8fc20020 	lw	v0,32(s8)
  402e38:	00000000 	nop
  402e3c:	afc20010 	sw	v0,16(s8)
/home/git/21373271/21373271/user/lib/file.c:193
  402e40:	8fc30024 	lw	v1,36(s8)
  402e44:	8fc20010 	lw	v0,16(s8)
  402e48:	00000000 	nop
  402e4c:	24420010 	addiu	v0,v0,16
  402e50:	00402825 	move	a1,v0
  402e54:	00602025 	move	a0,v1
  402e58:	0c10146b 	jal	4051ac <strcpy>
  402e5c:	00000000 	nop
/home/git/21373271/21373271/user/lib/file.c:194
  402e60:	8fc20010 	lw	v0,16(s8)
  402e64:	00000000 	nop
  402e68:	8c430090 	lw	v1,144(v0)
  402e6c:	8fc20024 	lw	v0,36(s8)
  402e70:	00000000 	nop
  402e74:	ac430080 	sw	v1,128(v0)
/home/git/21373271/21373271/user/lib/file.c:195
  402e78:	8fc20010 	lw	v0,16(s8)
  402e7c:	00000000 	nop
  402e80:	8c420094 	lw	v0,148(v0)
  402e84:	00000000 	nop
  402e88:	38420001 	xori	v0,v0,0x1
  402e8c:	2c420001 	sltiu	v0,v0,1
  402e90:	304200ff 	andi	v0,v0,0xff
  402e94:	00401825 	move	v1,v0
  402e98:	8fc20024 	lw	v0,36(s8)
  402e9c:	00000000 	nop
  402ea0:	ac430084 	sw	v1,132(v0)
/home/git/21373271/21373271/user/lib/file.c:196
  402ea4:	00001025 	move	v0,zero
/home/git/21373271/21373271/user/lib/file.c:197
  402ea8:	03c0e825 	move	sp,s8
  402eac:	8fbf001c 	lw	ra,28(sp)
  402eb0:	8fbe0018 	lw	s8,24(sp)
  402eb4:	27bd0020 	addiu	sp,sp,32
  402eb8:	03e00008 	jr	ra
  402ebc:	00000000 	nop

00402ec0 <ftruncate>:
ftruncate():
/home/git/21373271/21373271/user/lib/file.c:201
  402ec0:	27bdffc0 	addiu	sp,sp,-64
  402ec4:	afbf003c 	sw	ra,60(sp)
  402ec8:	afbe0038 	sw	s8,56(sp)
  402ecc:	03a0f025 	move	s8,sp
  402ed0:	afc40040 	sw	a0,64(s8)
  402ed4:	afc50044 	sw	a1,68(s8)
/home/git/21373271/21373271/user/lib/file.c:207
  402ed8:	8fc30044 	lw	v1,68(s8)
  402edc:	3c020040 	lui	v0,0x40
  402ee0:	34420001 	ori	v0,v0,0x1
  402ee4:	0062102b 	sltu	v0,v1,v0
  402ee8:	14400004 	bnez	v0,402efc <ftruncate+0x3c>
  402eec:	00000000 	nop
/home/git/21373271/21373271/user/lib/file.c:208
  402ef0:	2402fff8 	li	v0,-8
  402ef4:	1000009d 	b	40316c <ftruncate+0x2ac>
  402ef8:	00000000 	nop
/home/git/21373271/21373271/user/lib/file.c:211
  402efc:	27c20030 	addiu	v0,s8,48
  402f00:	00402825 	move	a1,v0
  402f04:	8fc40040 	lw	a0,64(s8)
  402f08:	0c100727 	jal	401c9c <fd_lookup>
  402f0c:	00000000 	nop
  402f10:	afc2001c 	sw	v0,28(s8)
  402f14:	8fc2001c 	lw	v0,28(s8)
  402f18:	00000000 	nop
  402f1c:	04410004 	bgez	v0,402f30 <ftruncate+0x70>
  402f20:	00000000 	nop
/home/git/21373271/21373271/user/lib/file.c:212
  402f24:	8fc2001c 	lw	v0,28(s8)
  402f28:	10000090 	b	40316c <ftruncate+0x2ac>
  402f2c:	00000000 	nop
/home/git/21373271/21373271/user/lib/file.c:215
  402f30:	8fc20030 	lw	v0,48(s8)
  402f34:	00000000 	nop
  402f38:	8c420000 	lw	v0,0(v0)
  402f3c:	3c030041 	lui	v1,0x41
  402f40:	8c63d010 	lw	v1,-12272(v1)
  402f44:	00000000 	nop
  402f48:	10430004 	beq	v0,v1,402f5c <ftruncate+0x9c>
  402f4c:	00000000 	nop
/home/git/21373271/21373271/user/lib/file.c:216
  402f50:	2402fffd 	li	v0,-3
  402f54:	10000085 	b	40316c <ftruncate+0x2ac>
  402f58:	00000000 	nop
/home/git/21373271/21373271/user/lib/file.c:219
  402f5c:	8fc20030 	lw	v0,48(s8)
  402f60:	00000000 	nop
  402f64:	afc20020 	sw	v0,32(s8)
/home/git/21373271/21373271/user/lib/file.c:220
  402f68:	8fc20020 	lw	v0,32(s8)
  402f6c:	00000000 	nop
  402f70:	8c42000c 	lw	v0,12(v0)
  402f74:	00000000 	nop
  402f78:	afc20024 	sw	v0,36(s8)
/home/git/21373271/21373271/user/lib/file.c:221
  402f7c:	8fc20020 	lw	v0,32(s8)
  402f80:	00000000 	nop
  402f84:	8c420090 	lw	v0,144(v0)
  402f88:	00000000 	nop
  402f8c:	afc20028 	sw	v0,40(s8)
/home/git/21373271/21373271/user/lib/file.c:222
  402f90:	8fc20020 	lw	v0,32(s8)
  402f94:	8fc30044 	lw	v1,68(s8)
  402f98:	00000000 	nop
  402f9c:	ac430090 	sw	v1,144(v0)
/home/git/21373271/21373271/user/lib/file.c:224
  402fa0:	8fc50044 	lw	a1,68(s8)
  402fa4:	8fc40024 	lw	a0,36(s8)
  402fa8:	0c100cfc 	jal	4033f0 <fsipc_set_size>
  402fac:	00000000 	nop
  402fb0:	afc2001c 	sw	v0,28(s8)
  402fb4:	8fc2001c 	lw	v0,28(s8)
  402fb8:	00000000 	nop
  402fbc:	04410004 	bgez	v0,402fd0 <ftruncate+0x110>
  402fc0:	00000000 	nop
/home/git/21373271/21373271/user/lib/file.c:225
  402fc4:	8fc2001c 	lw	v0,28(s8)
  402fc8:	10000068 	b	40316c <ftruncate+0x2ac>
  402fcc:	00000000 	nop
/home/git/21373271/21373271/user/lib/file.c:228
  402fd0:	8fc20030 	lw	v0,48(s8)
  402fd4:	00000000 	nop
  402fd8:	00402025 	move	a0,v0
  402fdc:	0c100752 	jal	401d48 <fd2data>
  402fe0:	00000000 	nop
  402fe4:	afc2002c 	sw	v0,44(s8)
/home/git/21373271/21373271/user/lib/file.c:231
  402fe8:	8fc20028 	lw	v0,40(s8)
  402fec:	00000000 	nop
  402ff0:	24420fff 	addiu	v0,v0,4095
  402ff4:	00401825 	move	v1,v0
  402ff8:	2402f000 	li	v0,-4096
  402ffc:	00621024 	and	v0,v1,v0
  403000:	afc20018 	sw	v0,24(s8)
  403004:	1000001b 	b	403074 <ftruncate+0x1b4>
  403008:	00000000 	nop
/home/git/21373271/21373271/user/lib/file.c:232
  40300c:	8fc40018 	lw	a0,24(s8)
  403010:	8fc20018 	lw	v0,24(s8)
  403014:	8fc3002c 	lw	v1,44(s8)
  403018:	00000000 	nop
  40301c:	00621021 	addu	v0,v1,v0
  403020:	00403025 	move	a2,v0
  403024:	00802825 	move	a1,a0
  403028:	8fc40024 	lw	a0,36(s8)
  40302c:	0c100cc2 	jal	403308 <fsipc_map>
  403030:	00000000 	nop
  403034:	afc2001c 	sw	v0,28(s8)
  403038:	8fc2001c 	lw	v0,28(s8)
  40303c:	00000000 	nop
  403040:	04410008 	bgez	v0,403064 <ftruncate+0x1a4>
  403044:	00000000 	nop
/home/git/21373271/21373271/user/lib/file.c:233
  403048:	8fc50028 	lw	a1,40(s8)
  40304c:	8fc40024 	lw	a0,36(s8)
  403050:	0c100cfc 	jal	4033f0 <fsipc_set_size>
  403054:	00000000 	nop
/home/git/21373271/21373271/user/lib/file.c:234
  403058:	8fc2001c 	lw	v0,28(s8)
  40305c:	10000043 	b	40316c <ftruncate+0x2ac>
  403060:	00000000 	nop
/home/git/21373271/21373271/user/lib/file.c:231 (discriminator 2)
  403064:	8fc20018 	lw	v0,24(s8)
  403068:	00000000 	nop
  40306c:	24421000 	addiu	v0,v0,4096
  403070:	afc20018 	sw	v0,24(s8)
/home/git/21373271/21373271/user/lib/file.c:231 (discriminator 1)
  403074:	8fc20044 	lw	v0,68(s8)
  403078:	00000000 	nop
  40307c:	24430fff 	addiu	v1,v0,4095
  403080:	2402f000 	li	v0,-4096
  403084:	00621824 	and	v1,v1,v0
  403088:	8fc20018 	lw	v0,24(s8)
  40308c:	00000000 	nop
  403090:	0043102b 	sltu	v0,v0,v1
  403094:	1440ffdd 	bnez	v0,40300c <ftruncate+0x14c>
  403098:	00000000 	nop
/home/git/21373271/21373271/user/lib/file.c:239
  40309c:	8fc20044 	lw	v0,68(s8)
  4030a0:	00000000 	nop
  4030a4:	24420fff 	addiu	v0,v0,4095
  4030a8:	00401825 	move	v1,v0
  4030ac:	2402f000 	li	v0,-4096
  4030b0:	00621024 	and	v0,v1,v0
  4030b4:	afc20018 	sw	v0,24(s8)
  4030b8:	10000021 	b	403140 <ftruncate+0x280>
  4030bc:	00000000 	nop
/home/git/21373271/21373271/user/lib/file.c:240
  4030c0:	8fc20018 	lw	v0,24(s8)
  4030c4:	8fc3002c 	lw	v1,44(s8)
  4030c8:	00000000 	nop
  4030cc:	00621021 	addu	v0,v1,v0
  4030d0:	00402825 	move	a1,v0
  4030d4:	00002025 	move	a0,zero
  4030d8:	0c100591 	jal	401644 <syscall_mem_unmap>
  4030dc:	00000000 	nop
  4030e0:	afc2001c 	sw	v0,28(s8)
  4030e4:	8fc2001c 	lw	v0,28(s8)
  4030e8:	00000000 	nop
  4030ec:	04410010 	bgez	v0,403130 <ftruncate+0x270>
  4030f0:	00000000 	nop
/home/git/21373271/21373271/user/lib/file.c:241
  4030f4:	8fc20018 	lw	v0,24(s8)
  4030f8:	8fc3002c 	lw	v1,44(s8)
  4030fc:	00000000 	nop
  403100:	00621821 	addu	v1,v1,v0
  403104:	8fc2001c 	lw	v0,28(s8)
  403108:	00000000 	nop
  40310c:	afa20010 	sw	v0,16(sp)
  403110:	00603825 	move	a3,v1
  403114:	3c020040 	lui	v0,0x40
  403118:	24467acc 	addiu	a2,v0,31436
  40311c:	240500f1 	li	a1,241
  403120:	3c020040 	lui	v0,0x40
  403124:	24447af4 	addiu	a0,v0,31476
  403128:	0c100393 	jal	400e4c <_user_panic>
  40312c:	00000000 	nop
/home/git/21373271/21373271/user/lib/file.c:239 (discriminator 2)
  403130:	8fc20018 	lw	v0,24(s8)
  403134:	00000000 	nop
  403138:	24421000 	addiu	v0,v0,4096
  40313c:	afc20018 	sw	v0,24(s8)
/home/git/21373271/21373271/user/lib/file.c:239 (discriminator 1)
  403140:	8fc20028 	lw	v0,40(s8)
  403144:	00000000 	nop
  403148:	24430fff 	addiu	v1,v0,4095
  40314c:	2402f000 	li	v0,-4096
  403150:	00621824 	and	v1,v1,v0
  403154:	8fc20018 	lw	v0,24(s8)
  403158:	00000000 	nop
  40315c:	0043102b 	sltu	v0,v0,v1
  403160:	1440ffd7 	bnez	v0,4030c0 <ftruncate+0x200>
  403164:	00000000 	nop
/home/git/21373271/21373271/user/lib/file.c:245
  403168:	00001025 	move	v0,zero
/home/git/21373271/21373271/user/lib/file.c:246 (discriminator 1)
  40316c:	03c0e825 	move	sp,s8
  403170:	8fbf003c 	lw	ra,60(sp)
  403174:	8fbe0038 	lw	s8,56(sp)
  403178:	27bd0040 	addiu	sp,sp,64
  40317c:	03e00008 	jr	ra
  403180:	00000000 	nop

00403184 <remove>:
remove():
/home/git/21373271/21373271/user/lib/file.c:250
  403184:	27bdffe8 	addiu	sp,sp,-24
  403188:	afbf0014 	sw	ra,20(sp)
  40318c:	afbe0010 	sw	s8,16(sp)
  403190:	03a0f025 	move	s8,sp
  403194:	afc40018 	sw	a0,24(s8)
/home/git/21373271/21373271/user/lib/file.c:255
  403198:	8fc40018 	lw	a0,24(s8)
  40319c:	0c100d4e 	jal	403538 <fsipc_remove>
  4031a0:	00000000 	nop
/home/git/21373271/21373271/user/lib/file.c:256
  4031a4:	03c0e825 	move	sp,s8
  4031a8:	8fbf0014 	lw	ra,20(sp)
  4031ac:	8fbe0010 	lw	s8,16(sp)
  4031b0:	27bd0018 	addiu	sp,sp,24
  4031b4:	03e00008 	jr	ra
  4031b8:	00000000 	nop

004031bc <sync>:
sync():
/home/git/21373271/21373271/user/lib/file.c:260
  4031bc:	27bdffe8 	addiu	sp,sp,-24
  4031c0:	afbf0014 	sw	ra,20(sp)
  4031c4:	afbe0010 	sw	s8,16(sp)
  4031c8:	03a0f025 	move	s8,sp
/home/git/21373271/21373271/user/lib/file.c:261
  4031cc:	0c100d75 	jal	4035d4 <fsipc_sync>
  4031d0:	00000000 	nop
/home/git/21373271/21373271/user/lib/file.c:262
  4031d4:	03c0e825 	move	sp,s8
  4031d8:	8fbf0014 	lw	ra,20(sp)
  4031dc:	8fbe0010 	lw	s8,16(sp)
  4031e0:	27bd0018 	addiu	sp,sp,24
  4031e4:	03e00008 	jr	ra
  4031e8:	00000000 	nop
  4031ec:	00000000 	nop

004031f0 <fsipc>:
fsipc():
/home/git/21373271/21373271/user/lib/fsipc.c:22
  4031f0:	27bdffe0 	addiu	sp,sp,-32
  4031f4:	afbf001c 	sw	ra,28(sp)
  4031f8:	afbe0018 	sw	s8,24(sp)
  4031fc:	03a0f025 	move	s8,sp
  403200:	afc40020 	sw	a0,32(s8)
  403204:	afc50024 	sw	a1,36(s8)
  403208:	afc60028 	sw	a2,40(s8)
  40320c:	afc7002c 	sw	a3,44(s8)
/home/git/21373271/21373271/user/lib/fsipc.c:25
  403210:	3c027f40 	lui	v0,0x7f40
  403214:	344200dc 	ori	v0,v0,0xdc
  403218:	8c4200a0 	lw	v0,160(v0)
  40321c:	24070400 	li	a3,1024
  403220:	8fc60024 	lw	a2,36(s8)
  403224:	8fc50020 	lw	a1,32(s8)
  403228:	00402025 	move	a0,v0
  40322c:	0c100630 	jal	4018c0 <ipc_send>
  403230:	00000000 	nop
/home/git/21373271/21373271/user/lib/fsipc.c:26
  403234:	8fc6002c 	lw	a2,44(s8)
  403238:	8fc50028 	lw	a1,40(s8)
  40323c:	27c20010 	addiu	v0,s8,16
  403240:	00402025 	move	a0,v0
  403244:	0c10065b 	jal	40196c <ipc_recv>
  403248:	00000000 	nop
/home/git/21373271/21373271/user/lib/fsipc.c:27
  40324c:	03c0e825 	move	sp,s8
  403250:	8fbf001c 	lw	ra,28(sp)
  403254:	8fbe0018 	lw	s8,24(sp)
  403258:	27bd0020 	addiu	sp,sp,32
  40325c:	03e00008 	jr	ra
  403260:	00000000 	nop

00403264 <fsipc_open>:
fsipc_open():
/home/git/21373271/21373271/user/lib/fsipc.c:36
  403264:	27bdffe0 	addiu	sp,sp,-32
  403268:	afbf001c 	sw	ra,28(sp)
  40326c:	afbe0018 	sw	s8,24(sp)
  403270:	03a0f025 	move	s8,sp
  403274:	afc40020 	sw	a0,32(s8)
  403278:	afc50024 	sw	a1,36(s8)
  40327c:	afc60028 	sw	a2,40(s8)
/home/git/21373271/21373271/user/lib/fsipc.c:40
  403280:	3c020041 	lui	v0,0x41
  403284:	2442f000 	addiu	v0,v0,-4096
  403288:	afc20010 	sw	v0,16(s8)
/home/git/21373271/21373271/user/lib/fsipc.c:43
  40328c:	8fc40020 	lw	a0,32(s8)
  403290:	0c101450 	jal	405140 <strlen>
  403294:	00000000 	nop
  403298:	2c420400 	sltiu	v0,v0,1024
  40329c:	14400004 	bnez	v0,4032b0 <fsipc_open+0x4c>
  4032a0:	00000000 	nop
/home/git/21373271/21373271/user/lib/fsipc.c:44
  4032a4:	2402fff5 	li	v0,-11
  4032a8:	10000011 	b	4032f0 <fsipc_open+0x8c>
  4032ac:	00000000 	nop
/home/git/21373271/21373271/user/lib/fsipc.c:47
  4032b0:	8fc20010 	lw	v0,16(s8)
  4032b4:	8fc50020 	lw	a1,32(s8)
  4032b8:	00402025 	move	a0,v0
  4032bc:	0c10146b 	jal	4051ac <strcpy>
  4032c0:	00000000 	nop
/home/git/21373271/21373271/user/lib/fsipc.c:48
  4032c4:	8fc20010 	lw	v0,16(s8)
  4032c8:	8fc30024 	lw	v1,36(s8)
  4032cc:	00000000 	nop
  4032d0:	ac430400 	sw	v1,1024(v0)
/home/git/21373271/21373271/user/lib/fsipc.c:49
  4032d4:	27c20014 	addiu	v0,s8,20
  4032d8:	00403825 	move	a3,v0
  4032dc:	8fc60028 	lw	a2,40(s8)
  4032e0:	8fc50010 	lw	a1,16(s8)
  4032e4:	24040001 	li	a0,1
  4032e8:	0c100c7c 	jal	4031f0 <fsipc>
  4032ec:	00000000 	nop
/home/git/21373271/21373271/user/lib/fsipc.c:50 (discriminator 1)
  4032f0:	03c0e825 	move	sp,s8
  4032f4:	8fbf001c 	lw	ra,28(sp)
  4032f8:	8fbe0018 	lw	s8,24(sp)
  4032fc:	27bd0020 	addiu	sp,sp,32
  403300:	03e00008 	jr	ra
  403304:	00000000 	nop

00403308 <fsipc_map>:
fsipc_map():
/home/git/21373271/21373271/user/lib/fsipc.c:60
  403308:	27bdffd0 	addiu	sp,sp,-48
  40330c:	afbf002c 	sw	ra,44(sp)
  403310:	afbe0028 	sw	s8,40(sp)
  403314:	03a0f025 	move	s8,sp
  403318:	afc40030 	sw	a0,48(s8)
  40331c:	afc50034 	sw	a1,52(s8)
  403320:	afc60038 	sw	a2,56(s8)
/home/git/21373271/21373271/user/lib/fsipc.c:65
  403324:	3c020041 	lui	v0,0x41
  403328:	2442f000 	addiu	v0,v0,-4096
  40332c:	afc20018 	sw	v0,24(s8)
/home/git/21373271/21373271/user/lib/fsipc.c:66
  403330:	8fc30030 	lw	v1,48(s8)
  403334:	8fc20018 	lw	v0,24(s8)
  403338:	00000000 	nop
  40333c:	ac430000 	sw	v1,0(v0)
/home/git/21373271/21373271/user/lib/fsipc.c:67
  403340:	8fc20018 	lw	v0,24(s8)
  403344:	8fc30034 	lw	v1,52(s8)
  403348:	00000000 	nop
  40334c:	ac430004 	sw	v1,4(v0)
/home/git/21373271/21373271/user/lib/fsipc.c:69
  403350:	27c20020 	addiu	v0,s8,32
  403354:	00403825 	move	a3,v0
  403358:	8fc60038 	lw	a2,56(s8)
  40335c:	8fc50018 	lw	a1,24(s8)
  403360:	24040002 	li	a0,2
  403364:	0c100c7c 	jal	4031f0 <fsipc>
  403368:	00000000 	nop
  40336c:	afc2001c 	sw	v0,28(s8)
  403370:	8fc2001c 	lw	v0,28(s8)
  403374:	00000000 	nop
  403378:	04410004 	bgez	v0,40338c <fsipc_map+0x84>
  40337c:	00000000 	nop
/home/git/21373271/21373271/user/lib/fsipc.c:70
  403380:	8fc2001c 	lw	v0,28(s8)
  403384:	10000014 	b	4033d8 <fsipc_map+0xd0>
  403388:	00000000 	nop
/home/git/21373271/21373271/user/lib/fsipc.c:73
  40338c:	8fc30020 	lw	v1,32(s8)
  403390:	2402fbfb 	li	v0,-1029
  403394:	00621824 	and	v1,v1,v0
  403398:	24020200 	li	v0,512
  40339c:	1062000d 	beq	v1,v0,4033d4 <fsipc_map+0xcc>
  4033a0:	00000000 	nop
/home/git/21373271/21373271/user/lib/fsipc.c:74
  4033a4:	8fc30020 	lw	v1,32(s8)
  4033a8:	8fc20038 	lw	v0,56(s8)
  4033ac:	00000000 	nop
  4033b0:	afa20010 	sw	v0,16(sp)
  4033b4:	00603825 	move	a3,v1
  4033b8:	3c020040 	lui	v0,0x40
  4033bc:	24467b00 	addiu	a2,v0,31488
  4033c0:	2405004a 	li	a1,74
  4033c4:	3c020040 	lui	v0,0x40
  4033c8:	24447b38 	addiu	a0,v0,31544
  4033cc:	0c100393 	jal	400e4c <_user_panic>
  4033d0:	00000000 	nop
/home/git/21373271/21373271/user/lib/fsipc.c:77
  4033d4:	00001025 	move	v0,zero
/home/git/21373271/21373271/user/lib/fsipc.c:78 (discriminator 1)
  4033d8:	03c0e825 	move	sp,s8
  4033dc:	8fbf002c 	lw	ra,44(sp)
  4033e0:	8fbe0028 	lw	s8,40(sp)
  4033e4:	27bd0030 	addiu	sp,sp,48
  4033e8:	03e00008 	jr	ra
  4033ec:	00000000 	nop

004033f0 <fsipc_set_size>:
fsipc_set_size():
/home/git/21373271/21373271/user/lib/fsipc.c:82
  4033f0:	27bdffe0 	addiu	sp,sp,-32
  4033f4:	afbf001c 	sw	ra,28(sp)
  4033f8:	afbe0018 	sw	s8,24(sp)
  4033fc:	03a0f025 	move	s8,sp
  403400:	afc40020 	sw	a0,32(s8)
  403404:	afc50024 	sw	a1,36(s8)
/home/git/21373271/21373271/user/lib/fsipc.c:85
  403408:	3c020041 	lui	v0,0x41
  40340c:	2442f000 	addiu	v0,v0,-4096
  403410:	afc20010 	sw	v0,16(s8)
/home/git/21373271/21373271/user/lib/fsipc.c:86
  403414:	8fc30020 	lw	v1,32(s8)
  403418:	8fc20010 	lw	v0,16(s8)
  40341c:	00000000 	nop
  403420:	ac430000 	sw	v1,0(v0)
/home/git/21373271/21373271/user/lib/fsipc.c:87
  403424:	8fc20010 	lw	v0,16(s8)
  403428:	8fc30024 	lw	v1,36(s8)
  40342c:	00000000 	nop
  403430:	ac430004 	sw	v1,4(v0)
/home/git/21373271/21373271/user/lib/fsipc.c:88
  403434:	00003825 	move	a3,zero
  403438:	00003025 	move	a2,zero
  40343c:	8fc50010 	lw	a1,16(s8)
  403440:	24040003 	li	a0,3
  403444:	0c100c7c 	jal	4031f0 <fsipc>
  403448:	00000000 	nop
/home/git/21373271/21373271/user/lib/fsipc.c:89
  40344c:	03c0e825 	move	sp,s8
  403450:	8fbf001c 	lw	ra,28(sp)
  403454:	8fbe0018 	lw	s8,24(sp)
  403458:	27bd0020 	addiu	sp,sp,32
  40345c:	03e00008 	jr	ra
  403460:	00000000 	nop

00403464 <fsipc_close>:
fsipc_close():
/home/git/21373271/21373271/user/lib/fsipc.c:93
  403464:	27bdffe0 	addiu	sp,sp,-32
  403468:	afbf001c 	sw	ra,28(sp)
  40346c:	afbe0018 	sw	s8,24(sp)
  403470:	03a0f025 	move	s8,sp
  403474:	afc40020 	sw	a0,32(s8)
/home/git/21373271/21373271/user/lib/fsipc.c:96
  403478:	3c020041 	lui	v0,0x41
  40347c:	2442f000 	addiu	v0,v0,-4096
  403480:	afc20010 	sw	v0,16(s8)
/home/git/21373271/21373271/user/lib/fsipc.c:97
  403484:	8fc30020 	lw	v1,32(s8)
  403488:	8fc20010 	lw	v0,16(s8)
  40348c:	00000000 	nop
  403490:	ac430000 	sw	v1,0(v0)
/home/git/21373271/21373271/user/lib/fsipc.c:98
  403494:	00003825 	move	a3,zero
  403498:	00003025 	move	a2,zero
  40349c:	8fc50010 	lw	a1,16(s8)
  4034a0:	24040004 	li	a0,4
  4034a4:	0c100c7c 	jal	4031f0 <fsipc>
  4034a8:	00000000 	nop
/home/git/21373271/21373271/user/lib/fsipc.c:99
  4034ac:	03c0e825 	move	sp,s8
  4034b0:	8fbf001c 	lw	ra,28(sp)
  4034b4:	8fbe0018 	lw	s8,24(sp)
  4034b8:	27bd0020 	addiu	sp,sp,32
  4034bc:	03e00008 	jr	ra
  4034c0:	00000000 	nop

004034c4 <fsipc_dirty>:
fsipc_dirty():
/home/git/21373271/21373271/user/lib/fsipc.c:103
  4034c4:	27bdffe0 	addiu	sp,sp,-32
  4034c8:	afbf001c 	sw	ra,28(sp)
  4034cc:	afbe0018 	sw	s8,24(sp)
  4034d0:	03a0f025 	move	s8,sp
  4034d4:	afc40020 	sw	a0,32(s8)
  4034d8:	afc50024 	sw	a1,36(s8)
/home/git/21373271/21373271/user/lib/fsipc.c:106
  4034dc:	3c020041 	lui	v0,0x41
  4034e0:	2442f000 	addiu	v0,v0,-4096
  4034e4:	afc20010 	sw	v0,16(s8)
/home/git/21373271/21373271/user/lib/fsipc.c:107
  4034e8:	8fc30020 	lw	v1,32(s8)
  4034ec:	8fc20010 	lw	v0,16(s8)
  4034f0:	00000000 	nop
  4034f4:	ac430000 	sw	v1,0(v0)
/home/git/21373271/21373271/user/lib/fsipc.c:108
  4034f8:	8fc20010 	lw	v0,16(s8)
  4034fc:	8fc30024 	lw	v1,36(s8)
  403500:	00000000 	nop
  403504:	ac430004 	sw	v1,4(v0)
/home/git/21373271/21373271/user/lib/fsipc.c:109
  403508:	00003825 	move	a3,zero
  40350c:	00003025 	move	a2,zero
  403510:	8fc50010 	lw	a1,16(s8)
  403514:	24040005 	li	a0,5
  403518:	0c100c7c 	jal	4031f0 <fsipc>
  40351c:	00000000 	nop
/home/git/21373271/21373271/user/lib/fsipc.c:110
  403520:	03c0e825 	move	sp,s8
  403524:	8fbf001c 	lw	ra,28(sp)
  403528:	8fbe0018 	lw	s8,24(sp)
  40352c:	27bd0020 	addiu	sp,sp,32
  403530:	03e00008 	jr	ra
  403534:	00000000 	nop

00403538 <fsipc_remove>:
fsipc_remove():
/home/git/21373271/21373271/user/lib/fsipc.c:114
  403538:	27bdffe0 	addiu	sp,sp,-32
  40353c:	afbf001c 	sw	ra,28(sp)
  403540:	afbe0018 	sw	s8,24(sp)
  403544:	03a0f025 	move	s8,sp
  403548:	afc40020 	sw	a0,32(s8)
/home/git/21373271/21373271/user/lib/fsipc.c:118
  40354c:	8fc40020 	lw	a0,32(s8)
  403550:	0c101450 	jal	405140 <strlen>
  403554:	00000000 	nop
  403558:	10400007 	beqz	v0,403578 <fsipc_remove+0x40>
  40355c:	00000000 	nop
/home/git/21373271/21373271/user/lib/fsipc.c:118 (discriminator 1)
  403560:	8fc40020 	lw	a0,32(s8)
  403564:	0c101450 	jal	405140 <strlen>
  403568:	00000000 	nop
  40356c:	2c420401 	sltiu	v0,v0,1025
  403570:	14400004 	bnez	v0,403584 <fsipc_remove+0x4c>
  403574:	00000000 	nop
/home/git/21373271/21373271/user/lib/fsipc.c:119
  403578:	2402fff5 	li	v0,-11
  40357c:	1000000f 	b	4035bc <fsipc_remove+0x84>
  403580:	00000000 	nop
/home/git/21373271/21373271/user/lib/fsipc.c:122
  403584:	3c020041 	lui	v0,0x41
  403588:	2442f000 	addiu	v0,v0,-4096
  40358c:	afc20010 	sw	v0,16(s8)
/home/git/21373271/21373271/user/lib/fsipc.c:126
  403590:	8fc20010 	lw	v0,16(s8)
  403594:	8fc50020 	lw	a1,32(s8)
  403598:	00402025 	move	a0,v0
  40359c:	0c10146b 	jal	4051ac <strcpy>
  4035a0:	00000000 	nop
/home/git/21373271/21373271/user/lib/fsipc.c:129
  4035a4:	00003825 	move	a3,zero
  4035a8:	00003025 	move	a2,zero
  4035ac:	8fc50010 	lw	a1,16(s8)
  4035b0:	24040006 	li	a0,6
  4035b4:	0c100c7c 	jal	4031f0 <fsipc>
  4035b8:	00000000 	nop
/home/git/21373271/21373271/user/lib/fsipc.c:130
  4035bc:	03c0e825 	move	sp,s8
  4035c0:	8fbf001c 	lw	ra,28(sp)
  4035c4:	8fbe0018 	lw	s8,24(sp)
  4035c8:	27bd0020 	addiu	sp,sp,32
  4035cc:	03e00008 	jr	ra
  4035d0:	00000000 	nop

004035d4 <fsipc_sync>:
fsipc_sync():
/home/git/21373271/21373271/user/lib/fsipc.c:135
  4035d4:	27bdffe8 	addiu	sp,sp,-24
  4035d8:	afbf0014 	sw	ra,20(sp)
  4035dc:	afbe0010 	sw	s8,16(sp)
  4035e0:	03a0f025 	move	s8,sp
/home/git/21373271/21373271/user/lib/fsipc.c:136
  4035e4:	00003825 	move	a3,zero
  4035e8:	00003025 	move	a2,zero
  4035ec:	3c020041 	lui	v0,0x41
  4035f0:	2445f000 	addiu	a1,v0,-4096
  4035f4:	24040007 	li	a0,7
  4035f8:	0c100c7c 	jal	4031f0 <fsipc>
  4035fc:	00000000 	nop
/home/git/21373271/21373271/user/lib/fsipc.c:137
  403600:	03c0e825 	move	sp,s8
  403604:	8fbf0014 	lw	ra,20(sp)
  403608:	8fbe0010 	lw	s8,16(sp)
  40360c:	27bd0018 	addiu	sp,sp,24
  403610:	03e00008 	jr	ra
  403614:	00000000 	nop
	...

00403620 <iscons>:
iscons():
/home/git/21373271/21373271/user/lib/console.c:18
  403620:	27bdffe0 	addiu	sp,sp,-32
  403624:	afbf001c 	sw	ra,28(sp)
  403628:	afbe0018 	sw	s8,24(sp)
  40362c:	03a0f025 	move	s8,sp
  403630:	afc40020 	sw	a0,32(s8)
/home/git/21373271/21373271/user/lib/console.c:22
  403634:	27c20014 	addiu	v0,s8,20
  403638:	00402825 	move	a1,v0
  40363c:	8fc40020 	lw	a0,32(s8)
  403640:	0c100727 	jal	401c9c <fd_lookup>
  403644:	00000000 	nop
  403648:	afc20010 	sw	v0,16(s8)
  40364c:	8fc20010 	lw	v0,16(s8)
  403650:	00000000 	nop
  403654:	04410004 	bgez	v0,403668 <iscons+0x48>
  403658:	00000000 	nop
/home/git/21373271/21373271/user/lib/console.c:23
  40365c:	8fc20010 	lw	v0,16(s8)
  403660:	1000000a 	b	40368c <iscons+0x6c>
  403664:	00000000 	nop
/home/git/21373271/21373271/user/lib/console.c:25
  403668:	8fc20014 	lw	v0,20(s8)
  40366c:	00000000 	nop
  403670:	8c420000 	lw	v0,0(v0)
  403674:	3c030041 	lui	v1,0x41
  403678:	8c63d030 	lw	v1,-12240(v1)
  40367c:	00000000 	nop
  403680:	00431026 	xor	v0,v0,v1
  403684:	2c420001 	sltiu	v0,v0,1
  403688:	304200ff 	andi	v0,v0,0xff
/home/git/21373271/21373271/user/lib/console.c:26 (discriminator 1)
  40368c:	03c0e825 	move	sp,s8
  403690:	8fbf001c 	lw	ra,28(sp)
  403694:	8fbe0018 	lw	s8,24(sp)
  403698:	27bd0020 	addiu	sp,sp,32
  40369c:	03e00008 	jr	ra
  4036a0:	00000000 	nop

004036a4 <opencons>:
opencons():
/home/git/21373271/21373271/user/lib/console.c:28
  4036a4:	27bdffe0 	addiu	sp,sp,-32
  4036a8:	afbf001c 	sw	ra,28(sp)
  4036ac:	afbe0018 	sw	s8,24(sp)
  4036b0:	03a0f025 	move	s8,sp
/home/git/21373271/21373271/user/lib/console.c:32
  4036b4:	27c20014 	addiu	v0,s8,20
  4036b8:	00402025 	move	a0,v0
  4036bc:	0c1006d6 	jal	401b58 <fd_alloc>
  4036c0:	00000000 	nop
  4036c4:	afc20010 	sw	v0,16(s8)
  4036c8:	8fc20010 	lw	v0,16(s8)
  4036cc:	00000000 	nop
  4036d0:	04410004 	bgez	v0,4036e4 <opencons+0x40>
  4036d4:	00000000 	nop
/home/git/21373271/21373271/user/lib/console.c:33
  4036d8:	8fc20010 	lw	v0,16(s8)
  4036dc:	1000001c 	b	403750 <opencons+0xac>
  4036e0:	00000000 	nop
/home/git/21373271/21373271/user/lib/console.c:35
  4036e4:	8fc20014 	lw	v0,20(s8)
  4036e8:	24060404 	li	a2,1028
  4036ec:	00402825 	move	a1,v0
  4036f0:	00002025 	move	a0,zero
  4036f4:	0c100564 	jal	401590 <syscall_mem_alloc>
  4036f8:	00000000 	nop
  4036fc:	afc20010 	sw	v0,16(s8)
  403700:	8fc20010 	lw	v0,16(s8)
  403704:	00000000 	nop
  403708:	04410004 	bgez	v0,40371c <opencons+0x78>
  40370c:	00000000 	nop
/home/git/21373271/21373271/user/lib/console.c:36
  403710:	8fc20010 	lw	v0,16(s8)
  403714:	1000000e 	b	403750 <opencons+0xac>
  403718:	00000000 	nop
/home/git/21373271/21373271/user/lib/console.c:38
  40371c:	3c020041 	lui	v0,0x41
  403720:	8c43d030 	lw	v1,-12240(v0)
  403724:	8fc20014 	lw	v0,20(s8)
  403728:	00000000 	nop
  40372c:	ac430000 	sw	v1,0(v0)
/home/git/21373271/21373271/user/lib/console.c:39
  403730:	8fc20014 	lw	v0,20(s8)
  403734:	24030002 	li	v1,2
  403738:	ac430008 	sw	v1,8(v0)
/home/git/21373271/21373271/user/lib/console.c:40
  40373c:	8fc20014 	lw	v0,20(s8)
  403740:	00000000 	nop
  403744:	00402025 	move	a0,v0
  403748:	0c100762 	jal	401d88 <fd2num>
  40374c:	00000000 	nop
/home/git/21373271/21373271/user/lib/console.c:41 (discriminator 1)
  403750:	03c0e825 	move	sp,s8
  403754:	8fbf001c 	lw	ra,28(sp)
  403758:	8fbe0018 	lw	s8,24(sp)
  40375c:	27bd0020 	addiu	sp,sp,32
  403760:	03e00008 	jr	ra
  403764:	00000000 	nop

00403768 <cons_read>:
cons_read():
/home/git/21373271/21373271/user/lib/console.c:43
  403768:	27bdffe0 	addiu	sp,sp,-32
  40376c:	afbf001c 	sw	ra,28(sp)
  403770:	afbe0018 	sw	s8,24(sp)
  403774:	03a0f025 	move	s8,sp
  403778:	afc40020 	sw	a0,32(s8)
  40377c:	afc50024 	sw	a1,36(s8)
  403780:	afc60028 	sw	a2,40(s8)
  403784:	afc7002c 	sw	a3,44(s8)
/home/git/21373271/21373271/user/lib/console.c:46
  403788:	8fc20028 	lw	v0,40(s8)
  40378c:	00000000 	nop
  403790:	14400006 	bnez	v0,4037ac <cons_read+0x44>
  403794:	00000000 	nop
/home/git/21373271/21373271/user/lib/console.c:47
  403798:	00001025 	move	v0,zero
  40379c:	1000002f 	b	40385c <cons_read+0xf4>
  4037a0:	00000000 	nop
/home/git/21373271/21373271/user/lib/console.c:51
  4037a4:	0c100536 	jal	4014d8 <syscall_yield>
  4037a8:	00000000 	nop
/home/git/21373271/21373271/user/lib/console.c:50
  4037ac:	0c1005fc 	jal	4017f0 <syscall_cgetc>
  4037b0:	00000000 	nop
  4037b4:	afc20010 	sw	v0,16(s8)
  4037b8:	8fc20010 	lw	v0,16(s8)
  4037bc:	00000000 	nop
  4037c0:	1040fff8 	beqz	v0,4037a4 <cons_read+0x3c>
  4037c4:	00000000 	nop
/home/git/21373271/21373271/user/lib/console.c:54
  4037c8:	8fc30010 	lw	v1,16(s8)
  4037cc:	2402000d 	li	v0,13
  4037d0:	10620008 	beq	v1,v0,4037f4 <cons_read+0x8c>
  4037d4:	00000000 	nop
/home/git/21373271/21373271/user/lib/console.c:55
  4037d8:	8fc50010 	lw	a1,16(s8)
  4037dc:	3c020040 	lui	v0,0x40
  4037e0:	24447b58 	addiu	a0,v0,31576
  4037e4:	0c10037c 	jal	400df0 <debugf>
  4037e8:	00000000 	nop
  4037ec:	10000005 	b	403804 <cons_read+0x9c>
  4037f0:	00000000 	nop
/home/git/21373271/21373271/user/lib/console.c:57
  4037f4:	3c020040 	lui	v0,0x40
  4037f8:	24447b5c 	addiu	a0,v0,31580
  4037fc:	0c10037c 	jal	400df0 <debugf>
  403800:	00000000 	nop
/home/git/21373271/21373271/user/lib/console.c:59
  403804:	8fc20010 	lw	v0,16(s8)
  403808:	00000000 	nop
  40380c:	04410004 	bgez	v0,403820 <cons_read+0xb8>
  403810:	00000000 	nop
/home/git/21373271/21373271/user/lib/console.c:60
  403814:	8fc20010 	lw	v0,16(s8)
  403818:	10000010 	b	40385c <cons_read+0xf4>
  40381c:	00000000 	nop
/home/git/21373271/21373271/user/lib/console.c:62
  403820:	8fc30010 	lw	v1,16(s8)
  403824:	24020004 	li	v0,4
  403828:	14620004 	bne	v1,v0,40383c <cons_read+0xd4>
  40382c:	00000000 	nop
/home/git/21373271/21373271/user/lib/console.c:63
  403830:	00001025 	move	v0,zero
  403834:	10000009 	b	40385c <cons_read+0xf4>
  403838:	00000000 	nop
/home/git/21373271/21373271/user/lib/console.c:65
  40383c:	8fc20010 	lw	v0,16(s8)
  403840:	00000000 	nop
  403844:	00021e00 	sll	v1,v0,0x18
  403848:	00031e03 	sra	v1,v1,0x18
  40384c:	8fc20024 	lw	v0,36(s8)
  403850:	00000000 	nop
  403854:	a0430000 	sb	v1,0(v0)
/home/git/21373271/21373271/user/lib/console.c:66
  403858:	24020001 	li	v0,1
/home/git/21373271/21373271/user/lib/console.c:67
  40385c:	03c0e825 	move	sp,s8
  403860:	8fbf001c 	lw	ra,28(sp)
  403864:	8fbe0018 	lw	s8,24(sp)
  403868:	27bd0020 	addiu	sp,sp,32
  40386c:	03e00008 	jr	ra
  403870:	00000000 	nop

00403874 <cons_write>:
cons_write():
/home/git/21373271/21373271/user/lib/console.c:69
  403874:	27bdffe0 	addiu	sp,sp,-32
  403878:	afbf001c 	sw	ra,28(sp)
  40387c:	afbe0018 	sw	s8,24(sp)
  403880:	03a0f025 	move	s8,sp
  403884:	afc40020 	sw	a0,32(s8)
  403888:	afc50024 	sw	a1,36(s8)
  40388c:	afc60028 	sw	a2,40(s8)
  403890:	afc7002c 	sw	a3,44(s8)
/home/git/21373271/21373271/user/lib/console.c:70
  403894:	8fc50028 	lw	a1,40(s8)
  403898:	8fc40024 	lw	a0,36(s8)
  40389c:	0c100518 	jal	401460 <syscall_print_cons>
  4038a0:	00000000 	nop
  4038a4:	afc20010 	sw	v0,16(s8)
/home/git/21373271/21373271/user/lib/console.c:71
  4038a8:	8fc20010 	lw	v0,16(s8)
  4038ac:	00000000 	nop
  4038b0:	04410004 	bgez	v0,4038c4 <cons_write+0x50>
  4038b4:	00000000 	nop
/home/git/21373271/21373271/user/lib/console.c:72
  4038b8:	8fc20010 	lw	v0,16(s8)
  4038bc:	10000002 	b	4038c8 <cons_write+0x54>
  4038c0:	00000000 	nop
/home/git/21373271/21373271/user/lib/console.c:74
  4038c4:	8fc20028 	lw	v0,40(s8)
/home/git/21373271/21373271/user/lib/console.c:75
  4038c8:	03c0e825 	move	sp,s8
  4038cc:	8fbf001c 	lw	ra,28(sp)
  4038d0:	8fbe0018 	lw	s8,24(sp)
  4038d4:	27bd0020 	addiu	sp,sp,32
  4038d8:	03e00008 	jr	ra
  4038dc:	00000000 	nop

004038e0 <cons_close>:
cons_close():
/home/git/21373271/21373271/user/lib/console.c:77
  4038e0:	27bdfff8 	addiu	sp,sp,-8
  4038e4:	afbe0004 	sw	s8,4(sp)
  4038e8:	03a0f025 	move	s8,sp
  4038ec:	afc40008 	sw	a0,8(s8)
/home/git/21373271/21373271/user/lib/console.c:78
  4038f0:	00001025 	move	v0,zero
/home/git/21373271/21373271/user/lib/console.c:79
  4038f4:	03c0e825 	move	sp,s8
  4038f8:	8fbe0004 	lw	s8,4(sp)
  4038fc:	27bd0008 	addiu	sp,sp,8
  403900:	03e00008 	jr	ra
  403904:	00000000 	nop

00403908 <cons_stat>:
cons_stat():
/home/git/21373271/21373271/user/lib/console.c:81
  403908:	27bdffe8 	addiu	sp,sp,-24
  40390c:	afbf0014 	sw	ra,20(sp)
  403910:	afbe0010 	sw	s8,16(sp)
  403914:	03a0f025 	move	s8,sp
  403918:	afc40018 	sw	a0,24(s8)
  40391c:	afc5001c 	sw	a1,28(s8)
/home/git/21373271/21373271/user/lib/console.c:82
  403920:	8fc3001c 	lw	v1,28(s8)
  403924:	3c020040 	lui	v0,0x40
  403928:	24457b60 	addiu	a1,v0,31584
  40392c:	00602025 	move	a0,v1
  403930:	0c10146b 	jal	4051ac <strcpy>
  403934:	00000000 	nop
/home/git/21373271/21373271/user/lib/console.c:83
  403938:	00001025 	move	v0,zero
/home/git/21373271/21373271/user/lib/console.c:84
  40393c:	03c0e825 	move	sp,s8
  403940:	8fbf0014 	lw	ra,20(sp)
  403944:	8fbe0010 	lw	s8,16(sp)
  403948:	27bd0018 	addiu	sp,sp,24
  40394c:	03e00008 	jr	ra
  403950:	00000000 	nop
	...

00403960 <print_output>:
print_output():
/home/git/21373271/21373271/user/lib/fprintf.c:9
  403960:	27bdffe0 	addiu	sp,sp,-32
  403964:	afbf001c 	sw	ra,28(sp)
  403968:	afbe0018 	sw	s8,24(sp)
  40396c:	03a0f025 	move	s8,sp
  403970:	afc40020 	sw	a0,32(s8)
  403974:	afc50024 	sw	a1,36(s8)
  403978:	afc60028 	sw	a2,40(s8)
/home/git/21373271/21373271/user/lib/fprintf.c:10
  40397c:	8fc20020 	lw	v0,32(s8)
  403980:	00000000 	nop
  403984:	afc20010 	sw	v0,16(s8)
/home/git/21373271/21373271/user/lib/fprintf.c:11
  403988:	8fc20010 	lw	v0,16(s8)
  40398c:	00000000 	nop
  403990:	8c420004 	lw	v0,4(v0)
  403994:	00000000 	nop
  403998:	0440001f 	bltz	v0,403a18 <print_output+0xb8>
  40399c:	00000000 	nop
/home/git/21373271/21373271/user/lib/fprintf.c:14
  4039a0:	8fc20010 	lw	v0,16(s8)
  4039a4:	00000000 	nop
  4039a8:	8c420000 	lw	v0,0(v0)
  4039ac:	8fc60028 	lw	a2,40(s8)
  4039b0:	8fc50024 	lw	a1,36(s8)
  4039b4:	00402025 	move	a0,v0
  4039b8:	0c1008f1 	jal	4023c4 <write>
  4039bc:	00000000 	nop
  4039c0:	afc20014 	sw	v0,20(s8)
/home/git/21373271/21373271/user/lib/fprintf.c:15
  4039c4:	8fc20014 	lw	v0,20(s8)
  4039c8:	00000000 	nop
  4039cc:	04410007 	bgez	v0,4039ec <print_output+0x8c>
  4039d0:	00000000 	nop
/home/git/21373271/21373271/user/lib/fprintf.c:16
  4039d4:	8fc20010 	lw	v0,16(s8)
  4039d8:	8fc30014 	lw	v1,20(s8)
  4039dc:	00000000 	nop
  4039e0:	ac430004 	sw	v1,4(v0)
  4039e4:	1000000d 	b	403a1c <print_output+0xbc>
  4039e8:	00000000 	nop
/home/git/21373271/21373271/user/lib/fprintf.c:18
  4039ec:	8fc20010 	lw	v0,16(s8)
  4039f0:	00000000 	nop
  4039f4:	8c430004 	lw	v1,4(v0)
  4039f8:	8fc20014 	lw	v0,20(s8)
  4039fc:	00000000 	nop
  403a00:	00621821 	addu	v1,v1,v0
  403a04:	8fc20010 	lw	v0,16(s8)
  403a08:	00000000 	nop
  403a0c:	ac430004 	sw	v1,4(v0)
  403a10:	10000002 	b	403a1c <print_output+0xbc>
  403a14:	00000000 	nop
/home/git/21373271/21373271/user/lib/fprintf.c:12
  403a18:	00000000 	nop
/home/git/21373271/21373271/user/lib/fprintf.c:20
  403a1c:	03c0e825 	move	sp,s8
  403a20:	8fbf001c 	lw	ra,28(sp)
  403a24:	8fbe0018 	lw	s8,24(sp)
  403a28:	27bd0020 	addiu	sp,sp,32
  403a2c:	03e00008 	jr	ra
  403a30:	00000000 	nop

00403a34 <vfprintf>:
vfprintf():
/home/git/21373271/21373271/user/lib/fprintf.c:22
  403a34:	27bdffe0 	addiu	sp,sp,-32
  403a38:	afbf001c 	sw	ra,28(sp)
  403a3c:	afbe0018 	sw	s8,24(sp)
  403a40:	03a0f025 	move	s8,sp
  403a44:	afc40020 	sw	a0,32(s8)
  403a48:	afc50024 	sw	a1,36(s8)
  403a4c:	afc60028 	sw	a2,40(s8)
/home/git/21373271/21373271/user/lib/fprintf.c:24
  403a50:	8fc20020 	lw	v0,32(s8)
  403a54:	00000000 	nop
  403a58:	afc20010 	sw	v0,16(s8)
/home/git/21373271/21373271/user/lib/fprintf.c:25
  403a5c:	afc00014 	sw	zero,20(s8)
/home/git/21373271/21373271/user/lib/fprintf.c:26
  403a60:	8fc70028 	lw	a3,40(s8)
  403a64:	8fc60024 	lw	a2,36(s8)
  403a68:	27c20010 	addiu	v0,s8,16
  403a6c:	00402825 	move	a1,v0
  403a70:	3c020040 	lui	v0,0x40
  403a74:	24443960 	addiu	a0,v0,14688
  403a78:	0c100fe0 	jal	403f80 <vprintfmt>
  403a7c:	00000000 	nop
/home/git/21373271/21373271/user/lib/fprintf.c:27
  403a80:	8fc20014 	lw	v0,20(s8)
/home/git/21373271/21373271/user/lib/fprintf.c:28
  403a84:	03c0e825 	move	sp,s8
  403a88:	8fbf001c 	lw	ra,28(sp)
  403a8c:	8fbe0018 	lw	s8,24(sp)
  403a90:	27bd0020 	addiu	sp,sp,32
  403a94:	03e00008 	jr	ra
  403a98:	00000000 	nop

00403a9c <fprintf>:
fprintf():
/home/git/21373271/21373271/user/lib/fprintf.c:30
  403a9c:	27bdffe0 	addiu	sp,sp,-32
  403aa0:	afbf001c 	sw	ra,28(sp)
  403aa4:	afbe0018 	sw	s8,24(sp)
  403aa8:	03a0f025 	move	s8,sp
  403aac:	afc40020 	sw	a0,32(s8)
  403ab0:	afc50024 	sw	a1,36(s8)
  403ab4:	afc60028 	sw	a2,40(s8)
  403ab8:	afc7002c 	sw	a3,44(s8)
/home/git/21373271/21373271/user/lib/fprintf.c:32
  403abc:	27c20028 	addiu	v0,s8,40
  403ac0:	afc20014 	sw	v0,20(s8)
/home/git/21373271/21373271/user/lib/fprintf.c:33
  403ac4:	8fc20014 	lw	v0,20(s8)
  403ac8:	00000000 	nop
  403acc:	00403025 	move	a2,v0
  403ad0:	8fc50024 	lw	a1,36(s8)
  403ad4:	8fc40020 	lw	a0,32(s8)
  403ad8:	0c100e8d 	jal	403a34 <vfprintf>
  403adc:	00000000 	nop
  403ae0:	afc20010 	sw	v0,16(s8)
/home/git/21373271/21373271/user/lib/fprintf.c:35
  403ae4:	8fc20010 	lw	v0,16(s8)
/home/git/21373271/21373271/user/lib/fprintf.c:36
  403ae8:	03c0e825 	move	sp,s8
  403aec:	8fbf001c 	lw	ra,28(sp)
  403af0:	8fbe0018 	lw	s8,24(sp)
  403af4:	27bd0020 	addiu	sp,sp,32
  403af8:	03e00008 	jr	ra
  403afc:	00000000 	nop

00403b00 <printf>:
printf():
/home/git/21373271/21373271/user/lib/fprintf.c:38
  403b00:	27bdffe0 	addiu	sp,sp,-32
  403b04:	afbf001c 	sw	ra,28(sp)
  403b08:	afbe0018 	sw	s8,24(sp)
  403b0c:	03a0f025 	move	s8,sp
  403b10:	afc40020 	sw	a0,32(s8)
  403b14:	afc50024 	sw	a1,36(s8)
  403b18:	afc60028 	sw	a2,40(s8)
  403b1c:	afc7002c 	sw	a3,44(s8)
/home/git/21373271/21373271/user/lib/fprintf.c:40
  403b20:	27c20024 	addiu	v0,s8,36
  403b24:	afc20014 	sw	v0,20(s8)
/home/git/21373271/21373271/user/lib/fprintf.c:41
  403b28:	8fc20014 	lw	v0,20(s8)
  403b2c:	00000000 	nop
  403b30:	00403025 	move	a2,v0
  403b34:	8fc50020 	lw	a1,32(s8)
  403b38:	24040001 	li	a0,1
  403b3c:	0c100e8d 	jal	403a34 <vfprintf>
  403b40:	00000000 	nop
  403b44:	afc20010 	sw	v0,16(s8)
/home/git/21373271/21373271/user/lib/fprintf.c:43
  403b48:	8fc20010 	lw	v0,16(s8)
/home/git/21373271/21373271/user/lib/fprintf.c:44
  403b4c:	03c0e825 	move	sp,s8
  403b50:	8fbf001c 	lw	ra,28(sp)
  403b54:	8fbe0018 	lw	s8,24(sp)
  403b58:	27bd0020 	addiu	sp,sp,32
  403b5c:	03e00008 	jr	ra
  403b60:	00000000 	nop
	...

00403b70 <elf_from>:
elf_from():
/home/git/21373271/21373271/lib/elfloader.c:4
#include <elf.h>
#include <pmap.h>

const Elf32_Ehdr *elf_from(const void *binary, size_t size) {
  403b70:	27bdfff0 	addiu	sp,sp,-16
  403b74:	afbe000c 	sw	s8,12(sp)
  403b78:	03a0f025 	move	s8,sp
  403b7c:	afc40010 	sw	a0,16(s8)
  403b80:	afc50014 	sw	a1,20(s8)
/home/git/21373271/21373271/lib/elfloader.c:5
	const Elf32_Ehdr *ehdr = (const Elf32_Ehdr *)binary;
  403b84:	8fc20010 	lw	v0,16(s8)
  403b88:	00000000 	nop
  403b8c:	afc20000 	sw	v0,0(s8)
/home/git/21373271/21373271/lib/elfloader.c:6
	if (size >= sizeof(Elf32_Ehdr) && ehdr->e_ident[EI_MAG0] == ELFMAG0 &&
  403b90:	8fc20014 	lw	v0,20(s8)
  403b94:	00000000 	nop
  403b98:	2c420034 	sltiu	v0,v0,52
  403b9c:	14400022 	bnez	v0,403c28 <elf_from+0xb8>
  403ba0:	00000000 	nop
/home/git/21373271/21373271/lib/elfloader.c:6 (discriminator 1)
  403ba4:	8fc20000 	lw	v0,0(s8)
  403ba8:	00000000 	nop
  403bac:	90430000 	lbu	v1,0(v0)
  403bb0:	2402007f 	li	v0,127
  403bb4:	1462001c 	bne	v1,v0,403c28 <elf_from+0xb8>
  403bb8:	00000000 	nop
/home/git/21373271/21373271/lib/elfloader.c:7 (discriminator 2)
	    ehdr->e_ident[EI_MAG1] == ELFMAG1 && ehdr->e_ident[EI_MAG2] == ELFMAG2 &&
  403bbc:	8fc20000 	lw	v0,0(s8)
  403bc0:	00000000 	nop
  403bc4:	90430001 	lbu	v1,1(v0)
/home/git/21373271/21373271/lib/elfloader.c:6 (discriminator 2)
	if (size >= sizeof(Elf32_Ehdr) && ehdr->e_ident[EI_MAG0] == ELFMAG0 &&
  403bc8:	24020045 	li	v0,69
  403bcc:	14620016 	bne	v1,v0,403c28 <elf_from+0xb8>
  403bd0:	00000000 	nop
/home/git/21373271/21373271/lib/elfloader.c:7
	    ehdr->e_ident[EI_MAG1] == ELFMAG1 && ehdr->e_ident[EI_MAG2] == ELFMAG2 &&
  403bd4:	8fc20000 	lw	v0,0(s8)
  403bd8:	00000000 	nop
  403bdc:	90430002 	lbu	v1,2(v0)
  403be0:	2402004c 	li	v0,76
  403be4:	14620010 	bne	v1,v0,403c28 <elf_from+0xb8>
  403be8:	00000000 	nop
/home/git/21373271/21373271/lib/elfloader.c:8 (discriminator 1)
	    ehdr->e_ident[EI_MAG3] == ELFMAG3 && ehdr->e_type == 2) {
  403bec:	8fc20000 	lw	v0,0(s8)
  403bf0:	00000000 	nop
  403bf4:	90430003 	lbu	v1,3(v0)
/home/git/21373271/21373271/lib/elfloader.c:7 (discriminator 1)
	    ehdr->e_ident[EI_MAG1] == ELFMAG1 && ehdr->e_ident[EI_MAG2] == ELFMAG2 &&
  403bf8:	24020046 	li	v0,70
  403bfc:	1462000a 	bne	v1,v0,403c28 <elf_from+0xb8>
  403c00:	00000000 	nop
/home/git/21373271/21373271/lib/elfloader.c:8
	    ehdr->e_ident[EI_MAG3] == ELFMAG3 && ehdr->e_type == 2) {
  403c04:	8fc20000 	lw	v0,0(s8)
  403c08:	00000000 	nop
  403c0c:	94430010 	lhu	v1,16(v0)
  403c10:	24020002 	li	v0,2
  403c14:	14620004 	bne	v1,v0,403c28 <elf_from+0xb8>
  403c18:	00000000 	nop
/home/git/21373271/21373271/lib/elfloader.c:9
		return ehdr;
  403c1c:	8fc20000 	lw	v0,0(s8)
  403c20:	10000002 	b	403c2c <elf_from+0xbc>
  403c24:	00000000 	nop
/home/git/21373271/21373271/lib/elfloader.c:11
	}
	return NULL;
  403c28:	00001025 	move	v0,zero
/home/git/21373271/21373271/lib/elfloader.c:12
}
  403c2c:	03c0e825 	move	sp,s8
  403c30:	8fbe000c 	lw	s8,12(sp)
  403c34:	27bd0010 	addiu	sp,sp,16
  403c38:	03e00008 	jr	ra
  403c3c:	00000000 	nop

00403c40 <elf_load_seg>:
elf_load_seg():
/home/git/21373271/21373271/lib/elfloader.c:25
 *
 * Post-Condition:
 *   Return 0 if success. Otherwise return < 0.
 *   If success, the entry point of `binary` will be stored in `start`
 */
int elf_load_seg(Elf32_Phdr *ph, const void *bin, elf_mapper_t map_page, void *data) {
  403c40:	27bdffa0 	addiu	sp,sp,-96
  403c44:	afbf005c 	sw	ra,92(sp)
  403c48:	afbe0058 	sw	s8,88(sp)
  403c4c:	03a0f025 	move	s8,sp
  403c50:	afc40060 	sw	a0,96(s8)
  403c54:	afc50064 	sw	a1,100(s8)
  403c58:	afc60068 	sw	a2,104(s8)
  403c5c:	afc7006c 	sw	a3,108(s8)
/home/git/21373271/21373271/lib/elfloader.c:26
	u_long va = ph->p_vaddr;
  403c60:	8fc20060 	lw	v0,96(s8)
  403c64:	00000000 	nop
  403c68:	8c420008 	lw	v0,8(v0)
  403c6c:	00000000 	nop
  403c70:	afc20020 	sw	v0,32(s8)
/home/git/21373271/21373271/lib/elfloader.c:27
	size_t bin_size = ph->p_filesz;
  403c74:	8fc20060 	lw	v0,96(s8)
  403c78:	00000000 	nop
  403c7c:	8c420010 	lw	v0,16(v0)
  403c80:	00000000 	nop
  403c84:	afc20024 	sw	v0,36(s8)
/home/git/21373271/21373271/lib/elfloader.c:28
	size_t sgsize = ph->p_memsz;
  403c88:	8fc20060 	lw	v0,96(s8)
  403c8c:	00000000 	nop
  403c90:	8c420014 	lw	v0,20(v0)
  403c94:	00000000 	nop
  403c98:	afc20028 	sw	v0,40(s8)
/home/git/21373271/21373271/lib/elfloader.c:29
	u_int perm = PTE_V;
  403c9c:	24020200 	li	v0,512
  403ca0:	afc20018 	sw	v0,24(s8)
/home/git/21373271/21373271/lib/elfloader.c:30
	if (ph->p_flags & PF_W) {
  403ca4:	8fc20060 	lw	v0,96(s8)
  403ca8:	00000000 	nop
  403cac:	8c420018 	lw	v0,24(v0)
  403cb0:	00000000 	nop
  403cb4:	30420002 	andi	v0,v0,0x2
  403cb8:	10400005 	beqz	v0,403cd0 <elf_load_seg+0x90>
  403cbc:	00000000 	nop
/home/git/21373271/21373271/lib/elfloader.c:31
		perm |= PTE_D;
  403cc0:	8fc20018 	lw	v0,24(s8)
  403cc4:	00000000 	nop
  403cc8:	34420400 	ori	v0,v0,0x400
  403ccc:	afc20018 	sw	v0,24(s8)
/home/git/21373271/21373271/lib/elfloader.c:36
	}

	int r;
	size_t i;
	u_long offset = va - ROUNDDOWN(va, BY2PG);
  403cd0:	8fc20020 	lw	v0,32(s8)
  403cd4:	00000000 	nop
  403cd8:	30420fff 	andi	v0,v0,0xfff
  403cdc:	afc2002c 	sw	v0,44(s8)
/home/git/21373271/21373271/lib/elfloader.c:37
	if (offset != 0) {
  403ce0:	8fc2002c 	lw	v0,44(s8)
  403ce4:	00000000 	nop
  403ce8:	10400023 	beqz	v0,403d78 <elf_load_seg+0x138>
  403cec:	00000000 	nop
/home/git/21373271/21373271/lib/elfloader.c:38
		if ((r = map_page(data, va, offset, perm, bin, MIN(bin_size, BY2PG - offset))) !=
  403cf0:	8fc20024 	lw	v0,36(s8)
  403cf4:	00000000 	nop
  403cf8:	afc20030 	sw	v0,48(s8)
  403cfc:	24031000 	li	v1,4096
  403d00:	8fc2002c 	lw	v0,44(s8)
  403d04:	00000000 	nop
  403d08:	00621023 	subu	v0,v1,v0
  403d0c:	afc20034 	sw	v0,52(s8)
  403d10:	8fc30034 	lw	v1,52(s8)
  403d14:	8fc20030 	lw	v0,48(s8)
  403d18:	00000000 	nop
  403d1c:	0062202b 	sltu	a0,v1,v0
  403d20:	10800002 	beqz	a0,403d2c <elf_load_seg+0xec>
  403d24:	00000000 	nop
  403d28:	00601025 	move	v0,v1
  403d2c:	afa20014 	sw	v0,20(sp)
  403d30:	8fc20064 	lw	v0,100(s8)
  403d34:	00000000 	nop
  403d38:	afa20010 	sw	v0,16(sp)
  403d3c:	8fc20068 	lw	v0,104(s8)
  403d40:	8fc70018 	lw	a3,24(s8)
  403d44:	8fc6002c 	lw	a2,44(s8)
  403d48:	8fc50020 	lw	a1,32(s8)
  403d4c:	8fc4006c 	lw	a0,108(s8)
  403d50:	0040f809 	jalr	v0
  403d54:	00000000 	nop
  403d58:	afc20038 	sw	v0,56(s8)
  403d5c:	8fc20038 	lw	v0,56(s8)
  403d60:	00000000 	nop
  403d64:	10400004 	beqz	v0,403d78 <elf_load_seg+0x138>
  403d68:	00000000 	nop
/home/git/21373271/21373271/lib/elfloader.c:40
		    0) {
			return r;
  403d6c:	8fc20038 	lw	v0,56(s8)
  403d70:	1000007a 	b	403f5c <elf_load_seg+0x31c>
  403d74:	00000000 	nop
/home/git/21373271/21373271/lib/elfloader.c:45
		}
	}

	/* Step 1: load all content of bin into memory. */
	for (i = offset ? MIN(bin_size, BY2PG - offset) : 0; i < bin_size; i += BY2PG) {
  403d78:	8fc2002c 	lw	v0,44(s8)
  403d7c:	00000000 	nop
  403d80:	10400012 	beqz	v0,403dcc <elf_load_seg+0x18c>
  403d84:	00000000 	nop
/home/git/21373271/21373271/lib/elfloader.c:45 (discriminator 1)
  403d88:	8fc20024 	lw	v0,36(s8)
  403d8c:	00000000 	nop
  403d90:	afc2003c 	sw	v0,60(s8)
  403d94:	24031000 	li	v1,4096
  403d98:	8fc2002c 	lw	v0,44(s8)
  403d9c:	00000000 	nop
  403da0:	00621023 	subu	v0,v1,v0
  403da4:	afc20040 	sw	v0,64(s8)
  403da8:	8fc30040 	lw	v1,64(s8)
  403dac:	8fc2003c 	lw	v0,60(s8)
  403db0:	00000000 	nop
  403db4:	0062202b 	sltu	a0,v1,v0
  403db8:	10800005 	beqz	a0,403dd0 <elf_load_seg+0x190>
  403dbc:	00000000 	nop
  403dc0:	00601025 	move	v0,v1
  403dc4:	10000002 	b	403dd0 <elf_load_seg+0x190>
  403dc8:	00000000 	nop
/home/git/21373271/21373271/lib/elfloader.c:45 (discriminator 2)
  403dcc:	00001025 	move	v0,zero
/home/git/21373271/21373271/lib/elfloader.c:45 (discriminator 4)
  403dd0:	afc2001c 	sw	v0,28(s8)
  403dd4:	1000002c 	b	403e88 <elf_load_seg+0x248>
  403dd8:	00000000 	nop
/home/git/21373271/21373271/lib/elfloader.c:46
		if ((r = map_page(data, va + i, 0, perm, bin + i, MIN(bin_size - i, BY2PG))) != 0) {
  403ddc:	8fc30020 	lw	v1,32(s8)
  403de0:	8fc2001c 	lw	v0,28(s8)
  403de4:	00000000 	nop
  403de8:	00624021 	addu	t0,v1,v0
  403dec:	8fc30064 	lw	v1,100(s8)
  403df0:	8fc2001c 	lw	v0,28(s8)
  403df4:	00000000 	nop
  403df8:	00622021 	addu	a0,v1,v0
  403dfc:	8fc30024 	lw	v1,36(s8)
  403e00:	8fc2001c 	lw	v0,28(s8)
  403e04:	00000000 	nop
  403e08:	00621023 	subu	v0,v1,v0
  403e0c:	afc2004c 	sw	v0,76(s8)
  403e10:	24021000 	li	v0,4096
  403e14:	afc20050 	sw	v0,80(s8)
  403e18:	8fc30050 	lw	v1,80(s8)
  403e1c:	8fc2004c 	lw	v0,76(s8)
  403e20:	00000000 	nop
  403e24:	0062282b 	sltu	a1,v1,v0
  403e28:	10a00002 	beqz	a1,403e34 <elf_load_seg+0x1f4>
  403e2c:	00000000 	nop
  403e30:	00601025 	move	v0,v1
  403e34:	afa20014 	sw	v0,20(sp)
  403e38:	afa40010 	sw	a0,16(sp)
  403e3c:	8fc20068 	lw	v0,104(s8)
  403e40:	8fc70018 	lw	a3,24(s8)
  403e44:	00003025 	move	a2,zero
  403e48:	01002825 	move	a1,t0
  403e4c:	8fc4006c 	lw	a0,108(s8)
  403e50:	0040f809 	jalr	v0
  403e54:	00000000 	nop
  403e58:	afc20038 	sw	v0,56(s8)
  403e5c:	8fc20038 	lw	v0,56(s8)
  403e60:	00000000 	nop
  403e64:	10400004 	beqz	v0,403e78 <elf_load_seg+0x238>
  403e68:	00000000 	nop
/home/git/21373271/21373271/lib/elfloader.c:47
			return r;
  403e6c:	8fc20038 	lw	v0,56(s8)
  403e70:	1000003a 	b	403f5c <elf_load_seg+0x31c>
  403e74:	00000000 	nop
/home/git/21373271/21373271/lib/elfloader.c:45 (discriminator 6)
	for (i = offset ? MIN(bin_size, BY2PG - offset) : 0; i < bin_size; i += BY2PG) {
  403e78:	8fc2001c 	lw	v0,28(s8)
  403e7c:	00000000 	nop
  403e80:	24421000 	addiu	v0,v0,4096
  403e84:	afc2001c 	sw	v0,28(s8)
/home/git/21373271/21373271/lib/elfloader.c:45 (discriminator 5)
  403e88:	8fc3001c 	lw	v1,28(s8)
  403e8c:	8fc20024 	lw	v0,36(s8)
  403e90:	00000000 	nop
  403e94:	0062102b 	sltu	v0,v1,v0
  403e98:	1440ffd0 	bnez	v0,403ddc <elf_load_seg+0x19c>
  403e9c:	00000000 	nop
/home/git/21373271/21373271/lib/elfloader.c:52
		}
	}

	/* Step 2: alloc pages to reach `sgsize` when `bin_size` < `sgsize`. */
	while (i < sgsize) {
  403ea0:	10000027 	b	403f40 <elf_load_seg+0x300>
  403ea4:	00000000 	nop
/home/git/21373271/21373271/lib/elfloader.c:53
		if ((r = map_page(data, va + i, 0, perm, NULL, MIN(bin_size - i, BY2PG))) != 0) {
  403ea8:	8fc30020 	lw	v1,32(s8)
  403eac:	8fc2001c 	lw	v0,28(s8)
  403eb0:	00000000 	nop
  403eb4:	00622821 	addu	a1,v1,v0
  403eb8:	8fc30024 	lw	v1,36(s8)
  403ebc:	8fc2001c 	lw	v0,28(s8)
  403ec0:	00000000 	nop
  403ec4:	00621023 	subu	v0,v1,v0
  403ec8:	afc20044 	sw	v0,68(s8)
  403ecc:	24021000 	li	v0,4096
  403ed0:	afc20048 	sw	v0,72(s8)
  403ed4:	8fc30048 	lw	v1,72(s8)
  403ed8:	8fc20044 	lw	v0,68(s8)
  403edc:	00000000 	nop
  403ee0:	0062202b 	sltu	a0,v1,v0
  403ee4:	10800002 	beqz	a0,403ef0 <elf_load_seg+0x2b0>
  403ee8:	00000000 	nop
  403eec:	00601025 	move	v0,v1
  403ef0:	afa20014 	sw	v0,20(sp)
  403ef4:	afa00010 	sw	zero,16(sp)
  403ef8:	8fc20068 	lw	v0,104(s8)
  403efc:	8fc70018 	lw	a3,24(s8)
  403f00:	00003025 	move	a2,zero
  403f04:	8fc4006c 	lw	a0,108(s8)
  403f08:	0040f809 	jalr	v0
  403f0c:	00000000 	nop
  403f10:	afc20038 	sw	v0,56(s8)
  403f14:	8fc20038 	lw	v0,56(s8)
  403f18:	00000000 	nop
  403f1c:	10400004 	beqz	v0,403f30 <elf_load_seg+0x2f0>
  403f20:	00000000 	nop
/home/git/21373271/21373271/lib/elfloader.c:54
			return r;
  403f24:	8fc20038 	lw	v0,56(s8)
  403f28:	1000000c 	b	403f5c <elf_load_seg+0x31c>
  403f2c:	00000000 	nop
/home/git/21373271/21373271/lib/elfloader.c:56
		}
		i += BY2PG;
  403f30:	8fc2001c 	lw	v0,28(s8)
  403f34:	00000000 	nop
  403f38:	24421000 	addiu	v0,v0,4096
  403f3c:	afc2001c 	sw	v0,28(s8)
/home/git/21373271/21373271/lib/elfloader.c:52
	while (i < sgsize) {
  403f40:	8fc3001c 	lw	v1,28(s8)
  403f44:	8fc20028 	lw	v0,40(s8)
  403f48:	00000000 	nop
  403f4c:	0062102b 	sltu	v0,v1,v0
  403f50:	1440ffd5 	bnez	v0,403ea8 <elf_load_seg+0x268>
  403f54:	00000000 	nop
/home/git/21373271/21373271/lib/elfloader.c:58
	}
	return 0;
  403f58:	00001025 	move	v0,zero
/home/git/21373271/21373271/lib/elfloader.c:59
}
  403f5c:	03c0e825 	move	sp,s8
  403f60:	8fbf005c 	lw	ra,92(sp)
  403f64:	8fbe0058 	lw	s8,88(sp)
  403f68:	27bd0060 	addiu	sp,sp,96
  403f6c:	03e00008 	jr	ra
  403f70:	00000000 	nop
	...

00403f80 <vprintfmt>:
vprintfmt():
/home/git/21373271/21373271/lib/print.c:8
/* forward declaration */
static void print_char(fmt_callback_t, void *, char, int, int);
static void print_str(fmt_callback_t, void *, const char *, int, int);
static void print_num(fmt_callback_t, void *, unsigned long, int, int, int, int, char, int);

void vprintfmt(fmt_callback_t out, void *data, const char *fmt, va_list ap) {
  403f80:	27bdffb0 	addiu	sp,sp,-80
  403f84:	afbf004c 	sw	ra,76(sp)
  403f88:	afbe0048 	sw	s8,72(sp)
  403f8c:	03a0f025 	move	s8,sp
  403f90:	afc40050 	sw	a0,80(s8)
  403f94:	afc50054 	sw	a1,84(s8)
  403f98:	afc60058 	sw	a2,88(s8)
  403f9c:	afc7005c 	sw	a3,92(s8)
/home/git/21373271/21373271/lib/print.c:20
	int neg_flag;  // output is negative
	int ladjust;   // output is left-aligned
	char padc;     // padding char

	for (;;) {
		if ( *fmt != '%' )	
  403fa0:	8fc20058 	lw	v0,88(s8)
  403fa4:	00000000 	nop
  403fa8:	80430000 	lb	v1,0(v0)
  403fac:	24020025 	li	v0,37
  403fb0:	10620013 	beq	v1,v0,404000 <vprintfmt+0x80>
  403fb4:	00000000 	nop
/home/git/21373271/21373271/lib/print.c:22
		{	
			out( data , fmt , 1 );
  403fb8:	8fc20050 	lw	v0,80(s8)
  403fbc:	24060001 	li	a2,1
  403fc0:	8fc50058 	lw	a1,88(s8)
  403fc4:	8fc40054 	lw	a0,84(s8)
  403fc8:	0040f809 	jalr	v0
  403fcc:	00000000 	nop
/home/git/21373271/21373271/lib/print.c:23
			fmt++;
  403fd0:	8fc20058 	lw	v0,88(s8)
  403fd4:	00000000 	nop
  403fd8:	24420001 	addiu	v0,v0,1
  403fdc:	afc20058 	sw	v0,88(s8)
/home/git/21373271/21373271/lib/print.c:24
			if ( *fmt != 0 ) {
  403fe0:	8fc20058 	lw	v0,88(s8)
  403fe4:	00000000 	nop
  403fe8:	80420000 	lb	v0,0(v0)
  403fec:	00000000 	nop
  403ff0:	104001a1 	beqz	v0,404678 <vprintfmt+0x6f8>
  403ff4:	00000000 	nop
/home/git/21373271/21373271/lib/print.c:25
				continue;
  403ff8:	1000019d 	b	404670 <vprintfmt+0x6f0>
  403ffc:	00000000 	nop
/home/git/21373271/21373271/lib/print.c:32
			else {
				break;
			}	
		}
		
		width = 0;
  404000:	afc0002c 	sw	zero,44(s8)
/home/git/21373271/21373271/lib/print.c:33
		long_flag = 0;
  404004:	afc00030 	sw	zero,48(s8)
/home/git/21373271/21373271/lib/print.c:34
		ladjust = 0;
  404008:	afc00038 	sw	zero,56(s8)
/home/git/21373271/21373271/lib/print.c:35
		padc = ' ';
  40400c:	24020020 	li	v0,32
  404010:	a3c2003c 	sb	v0,60(s8)
/home/git/21373271/21373271/lib/print.c:36
		fmt++;
  404014:	8fc20058 	lw	v0,88(s8)
  404018:	00000000 	nop
  40401c:	24420001 	addiu	v0,v0,1
  404020:	afc20058 	sw	v0,88(s8)
/home/git/21373271/21373271/lib/print.c:38

		if (*fmt == '-') 
  404024:	8fc20058 	lw	v0,88(s8)
  404028:	00000000 	nop
  40402c:	80430000 	lb	v1,0(v0)
  404030:	2402002d 	li	v0,45
  404034:	14620007 	bne	v1,v0,404054 <vprintfmt+0xd4>
  404038:	00000000 	nop
/home/git/21373271/21373271/lib/print.c:40
		{
			ladjust = 1;
  40403c:	24020001 	li	v0,1
  404040:	afc20038 	sw	v0,56(s8)
/home/git/21373271/21373271/lib/print.c:41
			fmt++;
  404044:	8fc20058 	lw	v0,88(s8)
  404048:	00000000 	nop
  40404c:	24420001 	addiu	v0,v0,1
  404050:	afc20058 	sw	v0,88(s8)
/home/git/21373271/21373271/lib/print.c:43
		}
		if (*fmt == '0')
  404054:	8fc20058 	lw	v0,88(s8)
  404058:	00000000 	nop
  40405c:	80430000 	lb	v1,0(v0)
  404060:	24020030 	li	v0,48
  404064:	1462001b 	bne	v1,v0,4040d4 <vprintfmt+0x154>
  404068:	00000000 	nop
/home/git/21373271/21373271/lib/print.c:45
		{
			padc = '0';
  40406c:	24020030 	li	v0,48
  404070:	a3c2003c 	sb	v0,60(s8)
/home/git/21373271/21373271/lib/print.c:46
			fmt++;
  404074:	8fc20058 	lw	v0,88(s8)
  404078:	00000000 	nop
  40407c:	24420001 	addiu	v0,v0,1
  404080:	afc20058 	sw	v0,88(s8)
/home/git/21373271/21373271/lib/print.c:49
		}

		while ( (*fmt) >= '0' && (*fmt) <= '9')
  404084:	10000013 	b	4040d4 <vprintfmt+0x154>
  404088:	00000000 	nop
/home/git/21373271/21373271/lib/print.c:51
		{
			width = width * 10 + (*fmt) - '0';
  40408c:	8fc3002c 	lw	v1,44(s8)
  404090:	00000000 	nop
  404094:	00601025 	move	v0,v1
  404098:	00021080 	sll	v0,v0,0x2
  40409c:	00431021 	addu	v0,v0,v1
  4040a0:	00021040 	sll	v0,v0,0x1
  4040a4:	00401825 	move	v1,v0
  4040a8:	8fc20058 	lw	v0,88(s8)
  4040ac:	00000000 	nop
  4040b0:	80420000 	lb	v0,0(v0)
  4040b4:	00000000 	nop
  4040b8:	00621021 	addu	v0,v1,v0
  4040bc:	2442ffd0 	addiu	v0,v0,-48
  4040c0:	afc2002c 	sw	v0,44(s8)
/home/git/21373271/21373271/lib/print.c:52
			fmt++;
  4040c4:	8fc20058 	lw	v0,88(s8)
  4040c8:	00000000 	nop
  4040cc:	24420001 	addiu	v0,v0,1
  4040d0:	afc20058 	sw	v0,88(s8)
/home/git/21373271/21373271/lib/print.c:49
		while ( (*fmt) >= '0' && (*fmt) <= '9')
  4040d4:	8fc20058 	lw	v0,88(s8)
  4040d8:	00000000 	nop
  4040dc:	80420000 	lb	v0,0(v0)
  4040e0:	00000000 	nop
  4040e4:	28420030 	slti	v0,v0,48
  4040e8:	14400008 	bnez	v0,40410c <vprintfmt+0x18c>
  4040ec:	00000000 	nop
/home/git/21373271/21373271/lib/print.c:49 (discriminator 1)
  4040f0:	8fc20058 	lw	v0,88(s8)
  4040f4:	00000000 	nop
  4040f8:	80420000 	lb	v0,0(v0)
  4040fc:	00000000 	nop
  404100:	2842003a 	slti	v0,v0,58
  404104:	1440ffe1 	bnez	v0,40408c <vprintfmt+0x10c>
  404108:	00000000 	nop
/home/git/21373271/21373271/lib/print.c:55
		}

		if (*fmt == 'l') 
  40410c:	8fc20058 	lw	v0,88(s8)
  404110:	00000000 	nop
  404114:	80430000 	lb	v1,0(v0)
  404118:	2402006c 	li	v0,108
  40411c:	14620007 	bne	v1,v0,40413c <vprintfmt+0x1bc>
  404120:	00000000 	nop
/home/git/21373271/21373271/lib/print.c:57
		{
			long_flag = 1;
  404124:	24020001 	li	v0,1
  404128:	afc20030 	sw	v0,48(s8)
/home/git/21373271/21373271/lib/print.c:58
			fmt++;
  40412c:	8fc20058 	lw	v0,88(s8)
  404130:	00000000 	nop
  404134:	24420001 	addiu	v0,v0,1
  404138:	afc20058 	sw	v0,88(s8)
/home/git/21373271/21373271/lib/print.c:61
		}

		neg_flag = 0;
  40413c:	afc00034 	sw	zero,52(s8)
/home/git/21373271/21373271/lib/print.c:62
		switch (*fmt) {
  404140:	8fc20058 	lw	v0,88(s8)
  404144:	00000000 	nop
  404148:	80420000 	lb	v0,0(v0)
  40414c:	00000000 	nop
  404150:	10400137 	beqz	v0,404630 <vprintfmt+0x6b0>
  404154:	00000000 	nop
  404158:	0440013b 	bltz	v0,404648 <vprintfmt+0x6c8>
  40415c:	00000000 	nop
  404160:	28430079 	slti	v1,v0,121
  404164:	10600138 	beqz	v1,404648 <vprintfmt+0x6c8>
  404168:	00000000 	nop
  40416c:	28430044 	slti	v1,v0,68
  404170:	14600135 	bnez	v1,404648 <vprintfmt+0x6c8>
  404174:	00000000 	nop
  404178:	2442ffbc 	addiu	v0,v0,-68
  40417c:	2c430035 	sltiu	v1,v0,53
  404180:	10600131 	beqz	v1,404648 <vprintfmt+0x6c8>
  404184:	00000000 	nop
  404188:	00021880 	sll	v1,v0,0x2
  40418c:	3c020040 	lui	v0,0x40
  404190:	24427b70 	addiu	v0,v0,31600
  404194:	00621021 	addu	v0,v1,v0
  404198:	8c420000 	lw	v0,0(v0)
  40419c:	00000000 	nop
  4041a0:	00400008 	jr	v0
  4041a4:	00000000 	nop
/home/git/21373271/21373271/lib/print.c:64
		case 'b':
			if (long_flag) {
  4041a8:	8fc20030 	lw	v0,48(s8)
  4041ac:	00000000 	nop
  4041b0:	1040000a 	beqz	v0,4041dc <vprintfmt+0x25c>
  4041b4:	00000000 	nop
/home/git/21373271/21373271/lib/print.c:65
				num = va_arg(ap, long int);
  4041b8:	8fc2005c 	lw	v0,92(s8)
  4041bc:	00000000 	nop
  4041c0:	24430004 	addiu	v1,v0,4
  4041c4:	afc3005c 	sw	v1,92(s8)
  4041c8:	8c420000 	lw	v0,0(v0)
  4041cc:	00000000 	nop
  4041d0:	afc20028 	sw	v0,40(s8)
  4041d4:	10000008 	b	4041f8 <vprintfmt+0x278>
  4041d8:	00000000 	nop
/home/git/21373271/21373271/lib/print.c:67
			} else {
				num = va_arg(ap, int);
  4041dc:	8fc2005c 	lw	v0,92(s8)
  4041e0:	00000000 	nop
  4041e4:	24430004 	addiu	v1,v0,4
  4041e8:	afc3005c 	sw	v1,92(s8)
  4041ec:	8c420000 	lw	v0,0(v0)
  4041f0:	00000000 	nop
  4041f4:	afc20028 	sw	v0,40(s8)
/home/git/21373271/21373271/lib/print.c:69
			}
			print_num(out, data, num, 2, 0, width, ladjust, padc, 0);
  4041f8:	8fc30028 	lw	v1,40(s8)
  4041fc:	afa00020 	sw	zero,32(sp)
  404200:	83c2003c 	lb	v0,60(s8)
  404204:	00000000 	nop
  404208:	afa2001c 	sw	v0,28(sp)
  40420c:	8fc20038 	lw	v0,56(s8)
  404210:	00000000 	nop
  404214:	afa20018 	sw	v0,24(sp)
  404218:	8fc2002c 	lw	v0,44(s8)
  40421c:	00000000 	nop
  404220:	afa20014 	sw	v0,20(sp)
  404224:	afa00010 	sw	zero,16(sp)
  404228:	24070002 	li	a3,2
  40422c:	00603025 	move	a2,v1
  404230:	8fc50054 	lw	a1,84(s8)
  404234:	8fc40050 	lw	a0,80(s8)
  404238:	0c101268 	jal	4049a0 <print_num>
  40423c:	00000000 	nop
/home/git/21373271/21373271/lib/print.c:70
			break;
  404240:	10000107 	b	404660 <vprintfmt+0x6e0>
  404244:	00000000 	nop
/home/git/21373271/21373271/lib/print.c:74

		case 'd':
		case 'D':
			if (long_flag) {
  404248:	8fc20030 	lw	v0,48(s8)
  40424c:	00000000 	nop
  404250:	1040000a 	beqz	v0,40427c <vprintfmt+0x2fc>
  404254:	00000000 	nop
/home/git/21373271/21373271/lib/print.c:75
				num = va_arg(ap, long int);
  404258:	8fc2005c 	lw	v0,92(s8)
  40425c:	00000000 	nop
  404260:	24430004 	addiu	v1,v0,4
  404264:	afc3005c 	sw	v1,92(s8)
  404268:	8c420000 	lw	v0,0(v0)
  40426c:	00000000 	nop
  404270:	afc20028 	sw	v0,40(s8)
  404274:	10000008 	b	404298 <vprintfmt+0x318>
  404278:	00000000 	nop
/home/git/21373271/21373271/lib/print.c:77
			} else {
				num = va_arg(ap, int);
  40427c:	8fc2005c 	lw	v0,92(s8)
  404280:	00000000 	nop
  404284:	24430004 	addiu	v1,v0,4
  404288:	afc3005c 	sw	v1,92(s8)
  40428c:	8c420000 	lw	v0,0(v0)
  404290:	00000000 	nop
  404294:	afc20028 	sw	v0,40(s8)
/home/git/21373271/21373271/lib/print.c:80
			}
			
			if(num < 0)
  404298:	8fc20028 	lw	v0,40(s8)
  40429c:	00000000 	nop
  4042a0:	04410007 	bgez	v0,4042c0 <vprintfmt+0x340>
  4042a4:	00000000 	nop
/home/git/21373271/21373271/lib/print.c:82
			{
				neg_flag = 1;
  4042a8:	24020001 	li	v0,1
  4042ac:	afc20034 	sw	v0,52(s8)
/home/git/21373271/21373271/lib/print.c:83
				num = -num;
  4042b0:	8fc20028 	lw	v0,40(s8)
  4042b4:	00000000 	nop
  4042b8:	00021023 	negu	v0,v0
  4042bc:	afc20028 	sw	v0,40(s8)
/home/git/21373271/21373271/lib/print.c:85
			}
			print_num(out, data, num, 10, neg_flag, width, ladjust, padc, 0);
  4042c0:	8fc30028 	lw	v1,40(s8)
  4042c4:	afa00020 	sw	zero,32(sp)
  4042c8:	83c2003c 	lb	v0,60(s8)
  4042cc:	00000000 	nop
  4042d0:	afa2001c 	sw	v0,28(sp)
  4042d4:	8fc20038 	lw	v0,56(s8)
  4042d8:	00000000 	nop
  4042dc:	afa20018 	sw	v0,24(sp)
  4042e0:	8fc2002c 	lw	v0,44(s8)
  4042e4:	00000000 	nop
  4042e8:	afa20014 	sw	v0,20(sp)
  4042ec:	8fc20034 	lw	v0,52(s8)
  4042f0:	00000000 	nop
  4042f4:	afa20010 	sw	v0,16(sp)
  4042f8:	2407000a 	li	a3,10
  4042fc:	00603025 	move	a2,v1
  404300:	8fc50054 	lw	a1,84(s8)
  404304:	8fc40050 	lw	a0,80(s8)
  404308:	0c101268 	jal	4049a0 <print_num>
  40430c:	00000000 	nop
/home/git/21373271/21373271/lib/print.c:93
			 * complete this part. Think the differences between case 'd' and the
			 * others. (hint: 'neg_flag').
			 */
			/* Exercise 1.4: Your code here. (8/8) */

			break;
  404310:	100000d3 	b	404660 <vprintfmt+0x6e0>
  404314:	00000000 	nop
/home/git/21373271/21373271/lib/print.c:97

		case 'o':
		case 'O':
			if (long_flag) {
  404318:	8fc20030 	lw	v0,48(s8)
  40431c:	00000000 	nop
  404320:	1040000a 	beqz	v0,40434c <vprintfmt+0x3cc>
  404324:	00000000 	nop
/home/git/21373271/21373271/lib/print.c:98
				num = va_arg(ap, long int);
  404328:	8fc2005c 	lw	v0,92(s8)
  40432c:	00000000 	nop
  404330:	24430004 	addiu	v1,v0,4
  404334:	afc3005c 	sw	v1,92(s8)
  404338:	8c420000 	lw	v0,0(v0)
  40433c:	00000000 	nop
  404340:	afc20028 	sw	v0,40(s8)
  404344:	10000008 	b	404368 <vprintfmt+0x3e8>
  404348:	00000000 	nop
/home/git/21373271/21373271/lib/print.c:100
			} else {
				num = va_arg(ap, int);
  40434c:	8fc2005c 	lw	v0,92(s8)
  404350:	00000000 	nop
  404354:	24430004 	addiu	v1,v0,4
  404358:	afc3005c 	sw	v1,92(s8)
  40435c:	8c420000 	lw	v0,0(v0)
  404360:	00000000 	nop
  404364:	afc20028 	sw	v0,40(s8)
/home/git/21373271/21373271/lib/print.c:102
			}
			print_num(out, data, num, 8, 0, width, ladjust, padc, 0);
  404368:	8fc30028 	lw	v1,40(s8)
  40436c:	afa00020 	sw	zero,32(sp)
  404370:	83c2003c 	lb	v0,60(s8)
  404374:	00000000 	nop
  404378:	afa2001c 	sw	v0,28(sp)
  40437c:	8fc20038 	lw	v0,56(s8)
  404380:	00000000 	nop
  404384:	afa20018 	sw	v0,24(sp)
  404388:	8fc2002c 	lw	v0,44(s8)
  40438c:	00000000 	nop
  404390:	afa20014 	sw	v0,20(sp)
  404394:	afa00010 	sw	zero,16(sp)
  404398:	24070008 	li	a3,8
  40439c:	00603025 	move	a2,v1
  4043a0:	8fc50054 	lw	a1,84(s8)
  4043a4:	8fc40050 	lw	a0,80(s8)
  4043a8:	0c101268 	jal	4049a0 <print_num>
  4043ac:	00000000 	nop
/home/git/21373271/21373271/lib/print.c:103
			break;
  4043b0:	100000ab 	b	404660 <vprintfmt+0x6e0>
  4043b4:	00000000 	nop
/home/git/21373271/21373271/lib/print.c:107

		case 'u':
		case 'U':
			if (long_flag) {
  4043b8:	8fc20030 	lw	v0,48(s8)
  4043bc:	00000000 	nop
  4043c0:	1040000a 	beqz	v0,4043ec <vprintfmt+0x46c>
  4043c4:	00000000 	nop
/home/git/21373271/21373271/lib/print.c:108
				num = va_arg(ap, long int);
  4043c8:	8fc2005c 	lw	v0,92(s8)
  4043cc:	00000000 	nop
  4043d0:	24430004 	addiu	v1,v0,4
  4043d4:	afc3005c 	sw	v1,92(s8)
  4043d8:	8c420000 	lw	v0,0(v0)
  4043dc:	00000000 	nop
  4043e0:	afc20028 	sw	v0,40(s8)
  4043e4:	10000008 	b	404408 <vprintfmt+0x488>
  4043e8:	00000000 	nop
/home/git/21373271/21373271/lib/print.c:110
			} else {
				num = va_arg(ap, int);
  4043ec:	8fc2005c 	lw	v0,92(s8)
  4043f0:	00000000 	nop
  4043f4:	24430004 	addiu	v1,v0,4
  4043f8:	afc3005c 	sw	v1,92(s8)
  4043fc:	8c420000 	lw	v0,0(v0)
  404400:	00000000 	nop
  404404:	afc20028 	sw	v0,40(s8)
/home/git/21373271/21373271/lib/print.c:112
			}
			print_num(out, data, num, 10, 0, width, ladjust, padc, 0);
  404408:	8fc30028 	lw	v1,40(s8)
  40440c:	afa00020 	sw	zero,32(sp)
  404410:	83c2003c 	lb	v0,60(s8)
  404414:	00000000 	nop
  404418:	afa2001c 	sw	v0,28(sp)
  40441c:	8fc20038 	lw	v0,56(s8)
  404420:	00000000 	nop
  404424:	afa20018 	sw	v0,24(sp)
  404428:	8fc2002c 	lw	v0,44(s8)
  40442c:	00000000 	nop
  404430:	afa20014 	sw	v0,20(sp)
  404434:	afa00010 	sw	zero,16(sp)
  404438:	2407000a 	li	a3,10
  40443c:	00603025 	move	a2,v1
  404440:	8fc50054 	lw	a1,84(s8)
  404444:	8fc40050 	lw	a0,80(s8)
  404448:	0c101268 	jal	4049a0 <print_num>
  40444c:	00000000 	nop
/home/git/21373271/21373271/lib/print.c:113
			break;
  404450:	10000083 	b	404660 <vprintfmt+0x6e0>
  404454:	00000000 	nop
/home/git/21373271/21373271/lib/print.c:116

		case 'x':
			if (long_flag) {
  404458:	8fc20030 	lw	v0,48(s8)
  40445c:	00000000 	nop
  404460:	1040000a 	beqz	v0,40448c <vprintfmt+0x50c>
  404464:	00000000 	nop
/home/git/21373271/21373271/lib/print.c:117
				num = va_arg(ap, long int);
  404468:	8fc2005c 	lw	v0,92(s8)
  40446c:	00000000 	nop
  404470:	24430004 	addiu	v1,v0,4
  404474:	afc3005c 	sw	v1,92(s8)
  404478:	8c420000 	lw	v0,0(v0)
  40447c:	00000000 	nop
  404480:	afc20028 	sw	v0,40(s8)
  404484:	10000008 	b	4044a8 <vprintfmt+0x528>
  404488:	00000000 	nop
/home/git/21373271/21373271/lib/print.c:119
			} else {
				num = va_arg(ap, int);
  40448c:	8fc2005c 	lw	v0,92(s8)
  404490:	00000000 	nop
  404494:	24430004 	addiu	v1,v0,4
  404498:	afc3005c 	sw	v1,92(s8)
  40449c:	8c420000 	lw	v0,0(v0)
  4044a0:	00000000 	nop
  4044a4:	afc20028 	sw	v0,40(s8)
/home/git/21373271/21373271/lib/print.c:121
			}
			print_num(out, data, num, 16, 0, width, ladjust, padc, 0);
  4044a8:	8fc30028 	lw	v1,40(s8)
  4044ac:	afa00020 	sw	zero,32(sp)
  4044b0:	83c2003c 	lb	v0,60(s8)
  4044b4:	00000000 	nop
  4044b8:	afa2001c 	sw	v0,28(sp)
  4044bc:	8fc20038 	lw	v0,56(s8)
  4044c0:	00000000 	nop
  4044c4:	afa20018 	sw	v0,24(sp)
  4044c8:	8fc2002c 	lw	v0,44(s8)
  4044cc:	00000000 	nop
  4044d0:	afa20014 	sw	v0,20(sp)
  4044d4:	afa00010 	sw	zero,16(sp)
  4044d8:	24070010 	li	a3,16
  4044dc:	00603025 	move	a2,v1
  4044e0:	8fc50054 	lw	a1,84(s8)
  4044e4:	8fc40050 	lw	a0,80(s8)
  4044e8:	0c101268 	jal	4049a0 <print_num>
  4044ec:	00000000 	nop
/home/git/21373271/21373271/lib/print.c:122
			break;
  4044f0:	1000005b 	b	404660 <vprintfmt+0x6e0>
  4044f4:	00000000 	nop
/home/git/21373271/21373271/lib/print.c:125

		case 'X':
			if (long_flag) {
  4044f8:	8fc20030 	lw	v0,48(s8)
  4044fc:	00000000 	nop
  404500:	1040000a 	beqz	v0,40452c <vprintfmt+0x5ac>
  404504:	00000000 	nop
/home/git/21373271/21373271/lib/print.c:126
				num = va_arg(ap, long int);
  404508:	8fc2005c 	lw	v0,92(s8)
  40450c:	00000000 	nop
  404510:	24430004 	addiu	v1,v0,4
  404514:	afc3005c 	sw	v1,92(s8)
  404518:	8c420000 	lw	v0,0(v0)
  40451c:	00000000 	nop
  404520:	afc20028 	sw	v0,40(s8)
  404524:	10000008 	b	404548 <vprintfmt+0x5c8>
  404528:	00000000 	nop
/home/git/21373271/21373271/lib/print.c:128
			} else {
				num = va_arg(ap, int);
  40452c:	8fc2005c 	lw	v0,92(s8)
  404530:	00000000 	nop
  404534:	24430004 	addiu	v1,v0,4
  404538:	afc3005c 	sw	v1,92(s8)
  40453c:	8c420000 	lw	v0,0(v0)
  404540:	00000000 	nop
  404544:	afc20028 	sw	v0,40(s8)
/home/git/21373271/21373271/lib/print.c:130
			}
			print_num(out, data, num, 16, 0, width, ladjust, padc, 1);
  404548:	8fc30028 	lw	v1,40(s8)
  40454c:	24020001 	li	v0,1
  404550:	afa20020 	sw	v0,32(sp)
  404554:	83c2003c 	lb	v0,60(s8)
  404558:	00000000 	nop
  40455c:	afa2001c 	sw	v0,28(sp)
  404560:	8fc20038 	lw	v0,56(s8)
  404564:	00000000 	nop
  404568:	afa20018 	sw	v0,24(sp)
  40456c:	8fc2002c 	lw	v0,44(s8)
  404570:	00000000 	nop
  404574:	afa20014 	sw	v0,20(sp)
  404578:	afa00010 	sw	zero,16(sp)
  40457c:	24070010 	li	a3,16
  404580:	00603025 	move	a2,v1
  404584:	8fc50054 	lw	a1,84(s8)
  404588:	8fc40050 	lw	a0,80(s8)
  40458c:	0c101268 	jal	4049a0 <print_num>
  404590:	00000000 	nop
/home/git/21373271/21373271/lib/print.c:131
			break;
  404594:	10000032 	b	404660 <vprintfmt+0x6e0>
  404598:	00000000 	nop
/home/git/21373271/21373271/lib/print.c:134

		case 'c':
			c = (char)va_arg(ap, int);
  40459c:	8fc2005c 	lw	v0,92(s8)
  4045a0:	00000000 	nop
  4045a4:	24430004 	addiu	v1,v0,4
  4045a8:	afc3005c 	sw	v1,92(s8)
  4045ac:	8c420000 	lw	v0,0(v0)
  4045b0:	00000000 	nop
  4045b4:	a3c20044 	sb	v0,68(s8)
/home/git/21373271/21373271/lib/print.c:135
			print_char(out, data, c, width, ladjust);
  4045b8:	83c30044 	lb	v1,68(s8)
  4045bc:	8fc20038 	lw	v0,56(s8)
  4045c0:	00000000 	nop
  4045c4:	afa20010 	sw	v0,16(sp)
  4045c8:	8fc7002c 	lw	a3,44(s8)
  4045cc:	00603025 	move	a2,v1
  4045d0:	8fc50054 	lw	a1,84(s8)
  4045d4:	8fc40050 	lw	a0,80(s8)
  4045d8:	0c1011a6 	jal	404698 <print_char>
  4045dc:	00000000 	nop
/home/git/21373271/21373271/lib/print.c:136
			break;
  4045e0:	1000001f 	b	404660 <vprintfmt+0x6e0>
  4045e4:	00000000 	nop
/home/git/21373271/21373271/lib/print.c:139

		case 's':
			s = (char *)va_arg(ap, char *);
  4045e8:	8fc2005c 	lw	v0,92(s8)
  4045ec:	00000000 	nop
  4045f0:	24430004 	addiu	v1,v0,4
  4045f4:	afc3005c 	sw	v1,92(s8)
  4045f8:	8c420000 	lw	v0,0(v0)
  4045fc:	00000000 	nop
  404600:	afc20040 	sw	v0,64(s8)
/home/git/21373271/21373271/lib/print.c:140
			print_str(out, data, s, width, ladjust);
  404604:	8fc20038 	lw	v0,56(s8)
  404608:	00000000 	nop
  40460c:	afa20010 	sw	v0,16(sp)
  404610:	8fc7002c 	lw	a3,44(s8)
  404614:	8fc60040 	lw	a2,64(s8)
  404618:	8fc50054 	lw	a1,84(s8)
  40461c:	8fc40050 	lw	a0,80(s8)
  404620:	0c1011fd 	jal	4047f4 <print_str>
  404624:	00000000 	nop
/home/git/21373271/21373271/lib/print.c:141
			break;
  404628:	1000000d 	b	404660 <vprintfmt+0x6e0>
  40462c:	00000000 	nop
/home/git/21373271/21373271/lib/print.c:144

		case '\0':
			fmt--;
  404630:	8fc20058 	lw	v0,88(s8)
  404634:	00000000 	nop
  404638:	2442ffff 	addiu	v0,v0,-1
  40463c:	afc20058 	sw	v0,88(s8)
/home/git/21373271/21373271/lib/print.c:145
			break;
  404640:	10000007 	b	404660 <vprintfmt+0x6e0>
  404644:	00000000 	nop
/home/git/21373271/21373271/lib/print.c:149

		default:
			/* output this char as it is */
			out(data, fmt, 1);
  404648:	8fc20050 	lw	v0,80(s8)
  40464c:	24060001 	li	a2,1
  404650:	8fc50058 	lw	a1,88(s8)
  404654:	8fc40054 	lw	a0,84(s8)
  404658:	0040f809 	jalr	v0
  40465c:	00000000 	nop
/home/git/21373271/21373271/lib/print.c:151
		}
		fmt++;
  404660:	8fc20058 	lw	v0,88(s8)
  404664:	00000000 	nop
  404668:	24420001 	addiu	v0,v0,1
  40466c:	afc20058 	sw	v0,88(s8)
/home/git/21373271/21373271/lib/print.c:20
		if ( *fmt != '%' )	
  404670:	1000fe4b 	b	403fa0 <vprintfmt+0x20>
  404674:	00000000 	nop
	...
/home/git/21373271/21373271/lib/print.c:153
	}
}
  404680:	03c0e825 	move	sp,s8
  404684:	8fbf004c 	lw	ra,76(sp)
  404688:	8fbe0048 	lw	s8,72(sp)
  40468c:	27bd0050 	addiu	sp,sp,80
  404690:	03e00008 	jr	ra
  404694:	00000000 	nop

00404698 <print_char>:
print_char():
/home/git/21373271/21373271/lib/print.c:156

/* --------------- local help functions --------------------- */
void print_char(fmt_callback_t out, void *data, char c, int length, int ladjust) {
  404698:	27bdffe0 	addiu	sp,sp,-32
  40469c:	afbf001c 	sw	ra,28(sp)
  4046a0:	afbe0018 	sw	s8,24(sp)
  4046a4:	03a0f025 	move	s8,sp
  4046a8:	afc40020 	sw	a0,32(s8)
  4046ac:	afc50024 	sw	a1,36(s8)
  4046b0:	00c01025 	move	v0,a2
  4046b4:	afc7002c 	sw	a3,44(s8)
  4046b8:	a3c20028 	sb	v0,40(s8)
/home/git/21373271/21373271/lib/print.c:159
	int i;

	if (length < 1) {
  4046bc:	8fc2002c 	lw	v0,44(s8)
  4046c0:	00000000 	nop
  4046c4:	1c400003 	bgtz	v0,4046d4 <print_char+0x3c>
  4046c8:	00000000 	nop
/home/git/21373271/21373271/lib/print.c:160
		length = 1;
  4046cc:	24020001 	li	v0,1
  4046d0:	afc2002c 	sw	v0,44(s8)
/home/git/21373271/21373271/lib/print.c:162
	}
	const char space = ' ';
  4046d4:	24020020 	li	v0,32
  4046d8:	a3c20014 	sb	v0,20(s8)
/home/git/21373271/21373271/lib/print.c:163
	if (ladjust) {
  4046dc:	8fc20030 	lw	v0,48(s8)
  4046e0:	00000000 	nop
  4046e4:	1040001f 	beqz	v0,404764 <print_char+0xcc>
  4046e8:	00000000 	nop
/home/git/21373271/21373271/lib/print.c:164
		out(data, &c, 1);
  4046ec:	27c30028 	addiu	v1,s8,40
  4046f0:	8fc20020 	lw	v0,32(s8)
  4046f4:	24060001 	li	a2,1
  4046f8:	00602825 	move	a1,v1
  4046fc:	8fc40024 	lw	a0,36(s8)
  404700:	0040f809 	jalr	v0
  404704:	00000000 	nop
/home/git/21373271/21373271/lib/print.c:165
		for (i = 1; i < length; i++) {
  404708:	24020001 	li	v0,1
  40470c:	afc20010 	sw	v0,16(s8)
  404710:	1000000c 	b	404744 <print_char+0xac>
  404714:	00000000 	nop
/home/git/21373271/21373271/lib/print.c:166 (discriminator 3)
			out(data, &space, 1);
  404718:	27c30014 	addiu	v1,s8,20
  40471c:	8fc20020 	lw	v0,32(s8)
  404720:	24060001 	li	a2,1
  404724:	00602825 	move	a1,v1
  404728:	8fc40024 	lw	a0,36(s8)
  40472c:	0040f809 	jalr	v0
  404730:	00000000 	nop
/home/git/21373271/21373271/lib/print.c:165 (discriminator 3)
		for (i = 1; i < length; i++) {
  404734:	8fc20010 	lw	v0,16(s8)
  404738:	00000000 	nop
  40473c:	24420001 	addiu	v0,v0,1
  404740:	afc20010 	sw	v0,16(s8)
/home/git/21373271/21373271/lib/print.c:165 (discriminator 1)
  404744:	8fc30010 	lw	v1,16(s8)
  404748:	8fc2002c 	lw	v0,44(s8)
  40474c:	00000000 	nop
  404750:	0062102a 	slt	v0,v1,v0
  404754:	1440fff0 	bnez	v0,404718 <print_char+0x80>
  404758:	00000000 	nop
/home/git/21373271/21373271/lib/print.c:174
		for (i = 0; i < length - 1; i++) {
			out(data, &space, 1);
		}
		out(data, &c, 1);
	}
}
  40475c:	1000001e 	b	4047d8 <print_char+0x140>
  404760:	00000000 	nop
/home/git/21373271/21373271/lib/print.c:169
		for (i = 0; i < length - 1; i++) {
  404764:	afc00010 	sw	zero,16(s8)
  404768:	1000000c 	b	40479c <print_char+0x104>
  40476c:	00000000 	nop
/home/git/21373271/21373271/lib/print.c:170 (discriminator 3)
			out(data, &space, 1);
  404770:	27c30014 	addiu	v1,s8,20
  404774:	8fc20020 	lw	v0,32(s8)
  404778:	24060001 	li	a2,1
  40477c:	00602825 	move	a1,v1
  404780:	8fc40024 	lw	a0,36(s8)
  404784:	0040f809 	jalr	v0
  404788:	00000000 	nop
/home/git/21373271/21373271/lib/print.c:169 (discriminator 3)
		for (i = 0; i < length - 1; i++) {
  40478c:	8fc20010 	lw	v0,16(s8)
  404790:	00000000 	nop
  404794:	24420001 	addiu	v0,v0,1
  404798:	afc20010 	sw	v0,16(s8)
/home/git/21373271/21373271/lib/print.c:169 (discriminator 1)
  40479c:	8fc2002c 	lw	v0,44(s8)
  4047a0:	00000000 	nop
  4047a4:	2442ffff 	addiu	v0,v0,-1
  4047a8:	8fc30010 	lw	v1,16(s8)
  4047ac:	00000000 	nop
  4047b0:	0062102a 	slt	v0,v1,v0
  4047b4:	1440ffee 	bnez	v0,404770 <print_char+0xd8>
  4047b8:	00000000 	nop
/home/git/21373271/21373271/lib/print.c:172
		out(data, &c, 1);
  4047bc:	27c30028 	addiu	v1,s8,40
  4047c0:	8fc20020 	lw	v0,32(s8)
  4047c4:	24060001 	li	a2,1
  4047c8:	00602825 	move	a1,v1
  4047cc:	8fc40024 	lw	a0,36(s8)
  4047d0:	0040f809 	jalr	v0
  4047d4:	00000000 	nop
/home/git/21373271/21373271/lib/print.c:174
}
  4047d8:	00000000 	nop
  4047dc:	03c0e825 	move	sp,s8
  4047e0:	8fbf001c 	lw	ra,28(sp)
  4047e4:	8fbe0018 	lw	s8,24(sp)
  4047e8:	27bd0020 	addiu	sp,sp,32
  4047ec:	03e00008 	jr	ra
  4047f0:	00000000 	nop

004047f4 <print_str>:
print_str():
/home/git/21373271/21373271/lib/print.c:176

void print_str(fmt_callback_t out, void *data, const char *s, int length, int ladjust) {
  4047f4:	27bdffd8 	addiu	sp,sp,-40
  4047f8:	afbf0024 	sw	ra,36(sp)
  4047fc:	afbe0020 	sw	s8,32(sp)
  404800:	03a0f025 	move	s8,sp
  404804:	afc40028 	sw	a0,40(s8)
  404808:	afc5002c 	sw	a1,44(s8)
  40480c:	afc60030 	sw	a2,48(s8)
  404810:	afc70034 	sw	a3,52(s8)
/home/git/21373271/21373271/lib/print.c:178
	int i;
	int len = 0;
  404814:	afc00014 	sw	zero,20(s8)
/home/git/21373271/21373271/lib/print.c:179
	const char *s1 = s;
  404818:	8fc20030 	lw	v0,48(s8)
  40481c:	00000000 	nop
  404820:	afc20018 	sw	v0,24(s8)
/home/git/21373271/21373271/lib/print.c:180
	while (*s1++) {
  404824:	10000005 	b	40483c <print_str+0x48>
  404828:	00000000 	nop
/home/git/21373271/21373271/lib/print.c:181
		len++;
  40482c:	8fc20014 	lw	v0,20(s8)
  404830:	00000000 	nop
  404834:	24420001 	addiu	v0,v0,1
  404838:	afc20014 	sw	v0,20(s8)
/home/git/21373271/21373271/lib/print.c:180
	while (*s1++) {
  40483c:	8fc20018 	lw	v0,24(s8)
  404840:	00000000 	nop
  404844:	24430001 	addiu	v1,v0,1
  404848:	afc30018 	sw	v1,24(s8)
  40484c:	80420000 	lb	v0,0(v0)
  404850:	00000000 	nop
  404854:	1440fff5 	bnez	v0,40482c <print_str+0x38>
  404858:	00000000 	nop
/home/git/21373271/21373271/lib/print.c:183
	}
	if (length < len) {
  40485c:	8fc30034 	lw	v1,52(s8)
  404860:	8fc20014 	lw	v0,20(s8)
  404864:	00000000 	nop
  404868:	0062102a 	slt	v0,v1,v0
  40486c:	10400004 	beqz	v0,404880 <print_str+0x8c>
  404870:	00000000 	nop
/home/git/21373271/21373271/lib/print.c:184
		length = len;
  404874:	8fc20014 	lw	v0,20(s8)
  404878:	00000000 	nop
  40487c:	afc20034 	sw	v0,52(s8)
/home/git/21373271/21373271/lib/print.c:187
	}

	if (ladjust) {
  404880:	8fc20038 	lw	v0,56(s8)
  404884:	00000000 	nop
  404888:	10400020 	beqz	v0,40490c <print_str+0x118>
  40488c:	00000000 	nop
/home/git/21373271/21373271/lib/print.c:188
		out(data, s, len);
  404890:	8fc30014 	lw	v1,20(s8)
  404894:	8fc20028 	lw	v0,40(s8)
  404898:	00603025 	move	a2,v1
  40489c:	8fc50030 	lw	a1,48(s8)
  4048a0:	8fc4002c 	lw	a0,44(s8)
  4048a4:	0040f809 	jalr	v0
  4048a8:	00000000 	nop
/home/git/21373271/21373271/lib/print.c:189
		for (i = len; i < length; i++) {
  4048ac:	8fc20014 	lw	v0,20(s8)
  4048b0:	00000000 	nop
  4048b4:	afc20010 	sw	v0,16(s8)
  4048b8:	1000000c 	b	4048ec <print_str+0xf8>
  4048bc:	00000000 	nop
/home/git/21373271/21373271/lib/print.c:190 (discriminator 3)
			out(data, " ", 1);
  4048c0:	8fc20028 	lw	v0,40(s8)
  4048c4:	24060001 	li	a2,1
  4048c8:	3c030040 	lui	v1,0x40
  4048cc:	24657c44 	addiu	a1,v1,31812
  4048d0:	8fc4002c 	lw	a0,44(s8)
  4048d4:	0040f809 	jalr	v0
  4048d8:	00000000 	nop
/home/git/21373271/21373271/lib/print.c:189 (discriminator 3)
		for (i = len; i < length; i++) {
  4048dc:	8fc20010 	lw	v0,16(s8)
  4048e0:	00000000 	nop
  4048e4:	24420001 	addiu	v0,v0,1
  4048e8:	afc20010 	sw	v0,16(s8)
/home/git/21373271/21373271/lib/print.c:189 (discriminator 1)
  4048ec:	8fc30010 	lw	v1,16(s8)
  4048f0:	8fc20034 	lw	v0,52(s8)
  4048f4:	00000000 	nop
  4048f8:	0062102a 	slt	v0,v1,v0
  4048fc:	1440fff0 	bnez	v0,4048c0 <print_str+0xcc>
  404900:	00000000 	nop
/home/git/21373271/21373271/lib/print.c:198
		for (i = 0; i < length - len; i++) {
			out(data, " ", 1);
		}
		out(data, s, len);
	}
}
  404904:	1000001f 	b	404984 <print_str+0x190>
  404908:	00000000 	nop
/home/git/21373271/21373271/lib/print.c:193
		for (i = 0; i < length - len; i++) {
  40490c:	afc00010 	sw	zero,16(s8)
  404910:	1000000c 	b	404944 <print_str+0x150>
  404914:	00000000 	nop
/home/git/21373271/21373271/lib/print.c:194 (discriminator 3)
			out(data, " ", 1);
  404918:	8fc20028 	lw	v0,40(s8)
  40491c:	24060001 	li	a2,1
  404920:	3c030040 	lui	v1,0x40
  404924:	24657c44 	addiu	a1,v1,31812
  404928:	8fc4002c 	lw	a0,44(s8)
  40492c:	0040f809 	jalr	v0
  404930:	00000000 	nop
/home/git/21373271/21373271/lib/print.c:193 (discriminator 3)
		for (i = 0; i < length - len; i++) {
  404934:	8fc20010 	lw	v0,16(s8)
  404938:	00000000 	nop
  40493c:	24420001 	addiu	v0,v0,1
  404940:	afc20010 	sw	v0,16(s8)
/home/git/21373271/21373271/lib/print.c:193 (discriminator 1)
  404944:	8fc30034 	lw	v1,52(s8)
  404948:	8fc20014 	lw	v0,20(s8)
  40494c:	00000000 	nop
  404950:	00621023 	subu	v0,v1,v0
  404954:	8fc30010 	lw	v1,16(s8)
  404958:	00000000 	nop
  40495c:	0062102a 	slt	v0,v1,v0
  404960:	1440ffed 	bnez	v0,404918 <print_str+0x124>
  404964:	00000000 	nop
/home/git/21373271/21373271/lib/print.c:196
		out(data, s, len);
  404968:	8fc30014 	lw	v1,20(s8)
  40496c:	8fc20028 	lw	v0,40(s8)
  404970:	00603025 	move	a2,v1
  404974:	8fc50030 	lw	a1,48(s8)
  404978:	8fc4002c 	lw	a0,44(s8)
  40497c:	0040f809 	jalr	v0
  404980:	00000000 	nop
/home/git/21373271/21373271/lib/print.c:198
}
  404984:	00000000 	nop
  404988:	03c0e825 	move	sp,s8
  40498c:	8fbf0024 	lw	ra,36(sp)
  404990:	8fbe0020 	lw	s8,32(sp)
  404994:	27bd0028 	addiu	sp,sp,40
  404998:	03e00008 	jr	ra
  40499c:	00000000 	nop

004049a0 <print_num>:
print_num():
/home/git/21373271/21373271/lib/print.c:201

void print_num(fmt_callback_t out, void *data, unsigned long u, int base, int neg_flag, int length,
	       int ladjust, char padc, int upcase) {
  4049a0:	27bdffb8 	addiu	sp,sp,-72
  4049a4:	afbf0044 	sw	ra,68(sp)
  4049a8:	afbe0040 	sw	s8,64(sp)
  4049ac:	afb0003c 	sw	s0,60(sp)
  4049b0:	03a0f025 	move	s8,sp
  4049b4:	afc40048 	sw	a0,72(s8)
  4049b8:	afc5004c 	sw	a1,76(s8)
  4049bc:	afc60050 	sw	a2,80(s8)
  4049c0:	afc70054 	sw	a3,84(s8)
  4049c4:	03a02025 	move	a0,sp
  4049c8:	00808025 	move	s0,a0
/home/git/21373271/21373271/lib/print.c:212
	 *		    if negtive, insert  "0" padding between "0" and number.
	 *  3. if (!ladjust) we reverse the whole string including paddings
	 *  4. otherwise we only reverse the actual string representing the num.
	 */

	int actualLength = 0;
  4049cc:	afc00020 	sw	zero,32(s8)
/home/git/21373271/21373271/lib/print.c:213
	char buf[length + 70];
  4049d0:	8fc4005c 	lw	a0,92(s8)
  4049d4:	00000000 	nop
  4049d8:	24840046 	addiu	a0,a0,70
  4049dc:	2485ffff 	addiu	a1,a0,-1
  4049e0:	afc50024 	sw	a1,36(s8)
  4049e4:	00802825 	move	a1,a0
  4049e8:	00a06025 	move	t4,a1
  4049ec:	00006825 	move	t5,zero
  4049f0:	000c2f42 	srl	a1,t4,0x1d
  4049f4:	000d48c0 	sll	t1,t5,0x3
  4049f8:	00a94825 	or	t1,a1,t1
  4049fc:	000c40c0 	sll	t0,t4,0x3
  404a00:	00802825 	move	a1,a0
  404a04:	00a05025 	move	t2,a1
  404a08:	00005825 	move	t3,zero
  404a0c:	000a2f42 	srl	a1,t2,0x1d
  404a10:	000b18c0 	sll	v1,t3,0x3
  404a14:	00a31825 	or	v1,a1,v1
  404a18:	000a10c0 	sll	v0,t2,0x3
  404a1c:	00801025 	move	v0,a0
  404a20:	24420007 	addiu	v0,v0,7
  404a24:	000210c2 	srl	v0,v0,0x3
  404a28:	000210c0 	sll	v0,v0,0x3
  404a2c:	03a2e823 	subu	sp,sp,v0
  404a30:	27a20010 	addiu	v0,sp,16
  404a34:	24420000 	addiu	v0,v0,0
  404a38:	afc20028 	sw	v0,40(s8)
/home/git/21373271/21373271/lib/print.c:214
	char *p = buf;
  404a3c:	8fc20028 	lw	v0,40(s8)
  404a40:	00000000 	nop
  404a44:	afc20010 	sw	v0,16(s8)
/home/git/21373271/21373271/lib/print.c:218
	int i;

	do {
		int tmp = u % base;
  404a48:	8fc20054 	lw	v0,84(s8)
  404a4c:	8fc30050 	lw	v1,80(s8)
  404a50:	00000000 	nop
  404a54:	0062001b 	divu	zero,v1,v0
  404a58:	14400002 	bnez	v0,404a64 <print_num+0xc4>
  404a5c:	00000000 	nop
  404a60:	0007000d 	break	0x7
  404a64:	00001010 	mfhi	v0
  404a68:	afc2002c 	sw	v0,44(s8)
/home/git/21373271/21373271/lib/print.c:219
		if (tmp <= 9) {
  404a6c:	8fc2002c 	lw	v0,44(s8)
  404a70:	00000000 	nop
  404a74:	2842000a 	slti	v0,v0,10
  404a78:	1040000f 	beqz	v0,404ab8 <print_num+0x118>
  404a7c:	00000000 	nop
/home/git/21373271/21373271/lib/print.c:220
			*p++ = '0' + tmp;
  404a80:	8fc2002c 	lw	v0,44(s8)
  404a84:	00000000 	nop
  404a88:	304200ff 	andi	v0,v0,0xff
  404a8c:	24420030 	addiu	v0,v0,48
  404a90:	304400ff 	andi	a0,v0,0xff
  404a94:	8fc20010 	lw	v0,16(s8)
  404a98:	00000000 	nop
  404a9c:	24430001 	addiu	v1,v0,1
  404aa0:	afc30010 	sw	v1,16(s8)
  404aa4:	00041e00 	sll	v1,a0,0x18
  404aa8:	00031e03 	sra	v1,v1,0x18
  404aac:	a0430000 	sb	v1,0(v0)
  404ab0:	1000001f 	b	404b30 <print_num+0x190>
  404ab4:	00000000 	nop
/home/git/21373271/21373271/lib/print.c:221
		} else if (upcase) {
  404ab8:	8fc20068 	lw	v0,104(s8)
  404abc:	00000000 	nop
  404ac0:	1040000f 	beqz	v0,404b00 <print_num+0x160>
  404ac4:	00000000 	nop
/home/git/21373271/21373271/lib/print.c:222
			*p++ = 'A' + tmp - 10;
  404ac8:	8fc2002c 	lw	v0,44(s8)
  404acc:	00000000 	nop
  404ad0:	304200ff 	andi	v0,v0,0xff
  404ad4:	24420037 	addiu	v0,v0,55
  404ad8:	304400ff 	andi	a0,v0,0xff
  404adc:	8fc20010 	lw	v0,16(s8)
  404ae0:	00000000 	nop
  404ae4:	24430001 	addiu	v1,v0,1
  404ae8:	afc30010 	sw	v1,16(s8)
  404aec:	00041e00 	sll	v1,a0,0x18
  404af0:	00031e03 	sra	v1,v1,0x18
  404af4:	a0430000 	sb	v1,0(v0)
  404af8:	1000000d 	b	404b30 <print_num+0x190>
  404afc:	00000000 	nop
/home/git/21373271/21373271/lib/print.c:224
		} else {
			*p++ = 'a' + tmp - 10;
  404b00:	8fc2002c 	lw	v0,44(s8)
  404b04:	00000000 	nop
  404b08:	304200ff 	andi	v0,v0,0xff
  404b0c:	24420057 	addiu	v0,v0,87
  404b10:	304400ff 	andi	a0,v0,0xff
  404b14:	8fc20010 	lw	v0,16(s8)
  404b18:	00000000 	nop
  404b1c:	24430001 	addiu	v1,v0,1
  404b20:	afc30010 	sw	v1,16(s8)
  404b24:	00041e00 	sll	v1,a0,0x18
  404b28:	00031e03 	sra	v1,v1,0x18
  404b2c:	a0430000 	sb	v1,0(v0)
/home/git/21373271/21373271/lib/print.c:226
		}
		u /= base;
  404b30:	8fc20054 	lw	v0,84(s8)
  404b34:	8fc30050 	lw	v1,80(s8)
  404b38:	00000000 	nop
  404b3c:	0062001b 	divu	zero,v1,v0
  404b40:	14400002 	bnez	v0,404b4c <print_num+0x1ac>
  404b44:	00000000 	nop
  404b48:	0007000d 	break	0x7
  404b4c:	00001010 	mfhi	v0
  404b50:	00001012 	mflo	v0
  404b54:	afc20050 	sw	v0,80(s8)
/home/git/21373271/21373271/lib/print.c:227
	} while (u != 0);
  404b58:	8fc20050 	lw	v0,80(s8)
  404b5c:	00000000 	nop
  404b60:	1440ffb9 	bnez	v0,404a48 <print_num+0xa8>
  404b64:	00000000 	nop
/home/git/21373271/21373271/lib/print.c:229

	if (neg_flag) {
  404b68:	8fc20058 	lw	v0,88(s8)
  404b6c:	00000000 	nop
  404b70:	10400007 	beqz	v0,404b90 <print_num+0x1f0>
  404b74:	00000000 	nop
/home/git/21373271/21373271/lib/print.c:230
		*p++ = '-';
  404b78:	8fc20010 	lw	v0,16(s8)
  404b7c:	00000000 	nop
  404b80:	24430001 	addiu	v1,v0,1
  404b84:	afc30010 	sw	v1,16(s8)
  404b88:	2403002d 	li	v1,45
  404b8c:	a0430000 	sb	v1,0(v0)
/home/git/21373271/21373271/lib/print.c:234
	}

	/* figure out actual length and adjust the maximum length */
	actualLength = p - buf;
  404b90:	8fc30010 	lw	v1,16(s8)
  404b94:	8fc20028 	lw	v0,40(s8)
  404b98:	00000000 	nop
  404b9c:	00621023 	subu	v0,v1,v0
  404ba0:	afc20020 	sw	v0,32(s8)
/home/git/21373271/21373271/lib/print.c:235
	if (length < actualLength) {
  404ba4:	8fc3005c 	lw	v1,92(s8)
  404ba8:	8fc20020 	lw	v0,32(s8)
  404bac:	00000000 	nop
  404bb0:	0062102a 	slt	v0,v1,v0
  404bb4:	10400004 	beqz	v0,404bc8 <print_num+0x228>
  404bb8:	00000000 	nop
/home/git/21373271/21373271/lib/print.c:236
		length = actualLength;
  404bbc:	8fc20020 	lw	v0,32(s8)
  404bc0:	00000000 	nop
  404bc4:	afc2005c 	sw	v0,92(s8)
/home/git/21373271/21373271/lib/print.c:240
	}

	/* add padding */
	if (ladjust) {
  404bc8:	8fc20060 	lw	v0,96(s8)
  404bcc:	00000000 	nop
  404bd0:	10400003 	beqz	v0,404be0 <print_num+0x240>
  404bd4:	00000000 	nop
/home/git/21373271/21373271/lib/print.c:241
		padc = ' ';
  404bd8:	24020020 	li	v0,32
  404bdc:	a3c20064 	sb	v0,100(s8)
/home/git/21373271/21373271/lib/print.c:243
	}
	if (neg_flag && !ladjust && (padc == '0')) {
  404be0:	8fc20058 	lw	v0,88(s8)
  404be4:	00000000 	nop
  404be8:	1040002c 	beqz	v0,404c9c <print_num+0x2fc>
  404bec:	00000000 	nop
/home/git/21373271/21373271/lib/print.c:243 (discriminator 1)
  404bf0:	8fc20060 	lw	v0,96(s8)
  404bf4:	00000000 	nop
  404bf8:	14400028 	bnez	v0,404c9c <print_num+0x2fc>
  404bfc:	00000000 	nop
/home/git/21373271/21373271/lib/print.c:243 (discriminator 2)
  404c00:	83c30064 	lb	v1,100(s8)
  404c04:	24020030 	li	v0,48
  404c08:	14620024 	bne	v1,v0,404c9c <print_num+0x2fc>
  404c0c:	00000000 	nop
/home/git/21373271/21373271/lib/print.c:244
		for (i = actualLength - 1; i < length - 1; i++) {
  404c10:	8fc20020 	lw	v0,32(s8)
  404c14:	00000000 	nop
  404c18:	2442ffff 	addiu	v0,v0,-1
  404c1c:	afc20014 	sw	v0,20(s8)
  404c20:	1000000c 	b	404c54 <print_num+0x2b4>
  404c24:	00000000 	nop
/home/git/21373271/21373271/lib/print.c:245 (discriminator 3)
			buf[i] = padc;
  404c28:	8fc30028 	lw	v1,40(s8)
  404c2c:	8fc20014 	lw	v0,20(s8)
  404c30:	00000000 	nop
  404c34:	00621021 	addu	v0,v1,v0
  404c38:	93c30064 	lbu	v1,100(s8)
  404c3c:	00000000 	nop
  404c40:	a0430000 	sb	v1,0(v0)
/home/git/21373271/21373271/lib/print.c:244 (discriminator 3)
		for (i = actualLength - 1; i < length - 1; i++) {
  404c44:	8fc20014 	lw	v0,20(s8)
  404c48:	00000000 	nop
  404c4c:	24420001 	addiu	v0,v0,1
  404c50:	afc20014 	sw	v0,20(s8)
/home/git/21373271/21373271/lib/print.c:244 (discriminator 1)
  404c54:	8fc2005c 	lw	v0,92(s8)
  404c58:	00000000 	nop
  404c5c:	2442ffff 	addiu	v0,v0,-1
  404c60:	8fc30014 	lw	v1,20(s8)
  404c64:	00000000 	nop
  404c68:	0062102a 	slt	v0,v1,v0
  404c6c:	1440ffee 	bnez	v0,404c28 <print_num+0x288>
  404c70:	00000000 	nop
/home/git/21373271/21373271/lib/print.c:247
		}
		buf[length - 1] = '-';
  404c74:	8fc2005c 	lw	v0,92(s8)
  404c78:	00000000 	nop
  404c7c:	2442ffff 	addiu	v0,v0,-1
  404c80:	8fc30028 	lw	v1,40(s8)
  404c84:	00000000 	nop
  404c88:	00621021 	addu	v0,v1,v0
  404c8c:	2403002d 	li	v1,45
  404c90:	a0430000 	sb	v1,0(v0)
  404c94:	10000017 	b	404cf4 <print_num+0x354>
  404c98:	00000000 	nop
/home/git/21373271/21373271/lib/print.c:249
	} else {
		for (i = actualLength; i < length; i++) {
  404c9c:	8fc20020 	lw	v0,32(s8)
  404ca0:	00000000 	nop
  404ca4:	afc20014 	sw	v0,20(s8)
  404ca8:	1000000c 	b	404cdc <print_num+0x33c>
  404cac:	00000000 	nop
/home/git/21373271/21373271/lib/print.c:250 (discriminator 3)
			buf[i] = padc;
  404cb0:	8fc30028 	lw	v1,40(s8)
  404cb4:	8fc20014 	lw	v0,20(s8)
  404cb8:	00000000 	nop
  404cbc:	00621021 	addu	v0,v1,v0
  404cc0:	93c30064 	lbu	v1,100(s8)
  404cc4:	00000000 	nop
  404cc8:	a0430000 	sb	v1,0(v0)
/home/git/21373271/21373271/lib/print.c:249 (discriminator 3)
		for (i = actualLength; i < length; i++) {
  404ccc:	8fc20014 	lw	v0,20(s8)
  404cd0:	00000000 	nop
  404cd4:	24420001 	addiu	v0,v0,1
  404cd8:	afc20014 	sw	v0,20(s8)
/home/git/21373271/21373271/lib/print.c:249 (discriminator 1)
  404cdc:	8fc30014 	lw	v1,20(s8)
  404ce0:	8fc2005c 	lw	v0,92(s8)
  404ce4:	00000000 	nop
  404ce8:	0062102a 	slt	v0,v1,v0
  404cec:	1440fff0 	bnez	v0,404cb0 <print_num+0x310>
  404cf0:	00000000 	nop
/home/git/21373271/21373271/lib/print.c:255
		}
	}

	/* prepare to reverse the string */
	int begin = 0;
  404cf4:	afc00018 	sw	zero,24(s8)
/home/git/21373271/21373271/lib/print.c:257
	int end;
	if (ladjust) {
  404cf8:	8fc20060 	lw	v0,96(s8)
  404cfc:	00000000 	nop
  404d00:	10400007 	beqz	v0,404d20 <print_num+0x380>
  404d04:	00000000 	nop
/home/git/21373271/21373271/lib/print.c:258
		end = actualLength - 1;
  404d08:	8fc20020 	lw	v0,32(s8)
  404d0c:	00000000 	nop
  404d10:	2442ffff 	addiu	v0,v0,-1
  404d14:	afc2001c 	sw	v0,28(s8)
  404d18:	10000027 	b	404db8 <print_num+0x418>
  404d1c:	00000000 	nop
/home/git/21373271/21373271/lib/print.c:260
	} else {
		end = length - 1;
  404d20:	8fc2005c 	lw	v0,92(s8)
  404d24:	00000000 	nop
  404d28:	2442ffff 	addiu	v0,v0,-1
  404d2c:	afc2001c 	sw	v0,28(s8)
/home/git/21373271/21373271/lib/print.c:264
	}

	/* adjust the string pointer */
	while (end > begin) {
  404d30:	10000021 	b	404db8 <print_num+0x418>
  404d34:	00000000 	nop
/home/git/21373271/21373271/lib/print.c:265
		char tmp = buf[begin];
  404d38:	8fc30028 	lw	v1,40(s8)
  404d3c:	8fc20018 	lw	v0,24(s8)
  404d40:	00000000 	nop
  404d44:	00621021 	addu	v0,v1,v0
  404d48:	90420000 	lbu	v0,0(v0)
  404d4c:	00000000 	nop
  404d50:	a3c20030 	sb	v0,48(s8)
/home/git/21373271/21373271/lib/print.c:266
		buf[begin] = buf[end];
  404d54:	8fc30028 	lw	v1,40(s8)
  404d58:	8fc2001c 	lw	v0,28(s8)
  404d5c:	00000000 	nop
  404d60:	00621021 	addu	v0,v1,v0
  404d64:	80430000 	lb	v1,0(v0)
  404d68:	8fc40028 	lw	a0,40(s8)
  404d6c:	8fc20018 	lw	v0,24(s8)
  404d70:	00000000 	nop
  404d74:	00821021 	addu	v0,a0,v0
  404d78:	a0430000 	sb	v1,0(v0)
/home/git/21373271/21373271/lib/print.c:267
		buf[end] = tmp;
  404d7c:	8fc30028 	lw	v1,40(s8)
  404d80:	8fc2001c 	lw	v0,28(s8)
  404d84:	00000000 	nop
  404d88:	00621021 	addu	v0,v1,v0
  404d8c:	93c30030 	lbu	v1,48(s8)
  404d90:	00000000 	nop
  404d94:	a0430000 	sb	v1,0(v0)
/home/git/21373271/21373271/lib/print.c:268
		begin++;
  404d98:	8fc20018 	lw	v0,24(s8)
  404d9c:	00000000 	nop
  404da0:	24420001 	addiu	v0,v0,1
  404da4:	afc20018 	sw	v0,24(s8)
/home/git/21373271/21373271/lib/print.c:269
		end--;
  404da8:	8fc2001c 	lw	v0,28(s8)
  404dac:	00000000 	nop
  404db0:	2442ffff 	addiu	v0,v0,-1
  404db4:	afc2001c 	sw	v0,28(s8)
/home/git/21373271/21373271/lib/print.c:264
	while (end > begin) {
  404db8:	8fc3001c 	lw	v1,28(s8)
  404dbc:	8fc20018 	lw	v0,24(s8)
  404dc0:	00000000 	nop
  404dc4:	0043102a 	slt	v0,v0,v1
  404dc8:	1440ffdb 	bnez	v0,404d38 <print_num+0x398>
  404dcc:	00000000 	nop
/home/git/21373271/21373271/lib/print.c:272
	}

	out(data, buf, length);
  404dd0:	8fc3005c 	lw	v1,92(s8)
  404dd4:	8fc20048 	lw	v0,72(s8)
  404dd8:	00603025 	move	a2,v1
  404ddc:	8fc50028 	lw	a1,40(s8)
  404de0:	8fc4004c 	lw	a0,76(s8)
  404de4:	0040f809 	jalr	v0
  404de8:	00000000 	nop
  404dec:	0200e825 	move	sp,s0
/home/git/21373271/21373271/lib/print.c:273
}
  404df0:	00000000 	nop
  404df4:	03c0e825 	move	sp,s8
  404df8:	8fbf0044 	lw	ra,68(sp)
  404dfc:	8fbe0040 	lw	s8,64(sp)
  404e00:	8fb0003c 	lw	s0,60(sp)
  404e04:	27bd0048 	addiu	sp,sp,72
  404e08:	03e00008 	jr	ra
  404e0c:	00000000 	nop

00404e10 <memcpy>:
memcpy():
/home/git/21373271/21373271/lib/string.c:3
#include <types.h>

void *memcpy(void *dst, const void *src, size_t n) {
  404e10:	27bdfff0 	addiu	sp,sp,-16
  404e14:	afbe000c 	sw	s8,12(sp)
  404e18:	03a0f025 	move	s8,sp
  404e1c:	afc40010 	sw	a0,16(s8)
  404e20:	afc50014 	sw	a1,20(s8)
  404e24:	afc60018 	sw	a2,24(s8)
/home/git/21373271/21373271/lib/string.c:4
	void *dstaddr = dst;
  404e28:	8fc20010 	lw	v0,16(s8)
  404e2c:	00000000 	nop
  404e30:	afc20000 	sw	v0,0(s8)
/home/git/21373271/21373271/lib/string.c:5
	void *max = dst + n;
  404e34:	8fc30010 	lw	v1,16(s8)
  404e38:	8fc20018 	lw	v0,24(s8)
  404e3c:	00000000 	nop
  404e40:	00621021 	addu	v0,v1,v0
  404e44:	afc20004 	sw	v0,4(s8)
/home/git/21373271/21373271/lib/string.c:7

	if (((u_long)src & 3) != ((u_long)dst & 3)) {
  404e48:	8fc30014 	lw	v1,20(s8)
  404e4c:	8fc20010 	lw	v0,16(s8)
  404e50:	00000000 	nop
  404e54:	00621026 	xor	v0,v1,v0
  404e58:	30420003 	andi	v0,v0,0x3
  404e5c:	10400022 	beqz	v0,404ee8 <memcpy+0xd8>
  404e60:	00000000 	nop
/home/git/21373271/21373271/lib/string.c:8
		while (dst < max) {
  404e64:	1000000c 	b	404e98 <memcpy+0x88>
  404e68:	00000000 	nop
/home/git/21373271/21373271/lib/string.c:9
			*(char *)dst++ = *(char *)src++;
  404e6c:	8fc30014 	lw	v1,20(s8)
  404e70:	00000000 	nop
  404e74:	24620001 	addiu	v0,v1,1
  404e78:	afc20014 	sw	v0,20(s8)
  404e7c:	8fc20010 	lw	v0,16(s8)
  404e80:	00000000 	nop
  404e84:	24440001 	addiu	a0,v0,1
  404e88:	afc40010 	sw	a0,16(s8)
  404e8c:	80630000 	lb	v1,0(v1)
  404e90:	00000000 	nop
  404e94:	a0430000 	sb	v1,0(v0)
/home/git/21373271/21373271/lib/string.c:8
		while (dst < max) {
  404e98:	8fc30010 	lw	v1,16(s8)
  404e9c:	8fc20004 	lw	v0,4(s8)
  404ea0:	00000000 	nop
  404ea4:	0062102b 	sltu	v0,v1,v0
  404ea8:	1440fff0 	bnez	v0,404e6c <memcpy+0x5c>
  404eac:	00000000 	nop
/home/git/21373271/21373271/lib/string.c:11
		}
		return dstaddr;
  404eb0:	8fc20000 	lw	v0,0(s8)
  404eb4:	10000043 	b	404fc4 <memcpy+0x1b4>
  404eb8:	00000000 	nop
/home/git/21373271/21373271/lib/string.c:15
	}

	while (((u_long)dst & 3) && dst < max) {
		*(char *)dst++ = *(char *)src++;
  404ebc:	8fc30014 	lw	v1,20(s8)
  404ec0:	00000000 	nop
  404ec4:	24620001 	addiu	v0,v1,1
  404ec8:	afc20014 	sw	v0,20(s8)
  404ecc:	8fc20010 	lw	v0,16(s8)
  404ed0:	00000000 	nop
  404ed4:	24440001 	addiu	a0,v0,1
  404ed8:	afc40010 	sw	a0,16(s8)
  404edc:	80630000 	lb	v1,0(v1)
  404ee0:	00000000 	nop
  404ee4:	a0430000 	sb	v1,0(v0)
/home/git/21373271/21373271/lib/string.c:14
	while (((u_long)dst & 3) && dst < max) {
  404ee8:	8fc20010 	lw	v0,16(s8)
  404eec:	00000000 	nop
  404ef0:	30420003 	andi	v0,v0,0x3
  404ef4:	10400017 	beqz	v0,404f54 <memcpy+0x144>
  404ef8:	00000000 	nop
/home/git/21373271/21373271/lib/string.c:14 (discriminator 1)
  404efc:	8fc30010 	lw	v1,16(s8)
  404f00:	8fc20004 	lw	v0,4(s8)
  404f04:	00000000 	nop
  404f08:	0062102b 	sltu	v0,v1,v0
  404f0c:	1440ffeb 	bnez	v0,404ebc <memcpy+0xac>
  404f10:	00000000 	nop
/home/git/21373271/21373271/lib/string.c:19
	}

	// copy machine words while possible
	while (dst + 4 <= max) {
  404f14:	1000000f 	b	404f54 <memcpy+0x144>
  404f18:	00000000 	nop
/home/git/21373271/21373271/lib/string.c:20
		*(uint32_t *)dst = *(uint32_t *)src;
  404f1c:	8fc20014 	lw	v0,20(s8)
  404f20:	00000000 	nop
  404f24:	8c430000 	lw	v1,0(v0)
  404f28:	8fc20010 	lw	v0,16(s8)
  404f2c:	00000000 	nop
  404f30:	ac430000 	sw	v1,0(v0)
/home/git/21373271/21373271/lib/string.c:21
		dst += 4;
  404f34:	8fc20010 	lw	v0,16(s8)
  404f38:	00000000 	nop
  404f3c:	24420004 	addiu	v0,v0,4
  404f40:	afc20010 	sw	v0,16(s8)
/home/git/21373271/21373271/lib/string.c:22
		src += 4;
  404f44:	8fc20014 	lw	v0,20(s8)
  404f48:	00000000 	nop
  404f4c:	24420004 	addiu	v0,v0,4
  404f50:	afc20014 	sw	v0,20(s8)
/home/git/21373271/21373271/lib/string.c:19
	while (dst + 4 <= max) {
  404f54:	8fc20010 	lw	v0,16(s8)
  404f58:	00000000 	nop
  404f5c:	24420004 	addiu	v0,v0,4
  404f60:	8fc30004 	lw	v1,4(s8)
  404f64:	00000000 	nop
  404f68:	0062102b 	sltu	v0,v1,v0
  404f6c:	1040ffeb 	beqz	v0,404f1c <memcpy+0x10c>
  404f70:	00000000 	nop
/home/git/21373271/21373271/lib/string.c:26
	}

	// finish the remaining 0-3 bytes
	while (dst < max) {
  404f74:	1000000c 	b	404fa8 <memcpy+0x198>
  404f78:	00000000 	nop
/home/git/21373271/21373271/lib/string.c:27
		*(char *)dst++ = *(char *)src++;
  404f7c:	8fc30014 	lw	v1,20(s8)
  404f80:	00000000 	nop
  404f84:	24620001 	addiu	v0,v1,1
  404f88:	afc20014 	sw	v0,20(s8)
  404f8c:	8fc20010 	lw	v0,16(s8)
  404f90:	00000000 	nop
  404f94:	24440001 	addiu	a0,v0,1
  404f98:	afc40010 	sw	a0,16(s8)
  404f9c:	80630000 	lb	v1,0(v1)
  404fa0:	00000000 	nop
  404fa4:	a0430000 	sb	v1,0(v0)
/home/git/21373271/21373271/lib/string.c:26
	while (dst < max) {
  404fa8:	8fc30010 	lw	v1,16(s8)
  404fac:	8fc20004 	lw	v0,4(s8)
  404fb0:	00000000 	nop
  404fb4:	0062102b 	sltu	v0,v1,v0
  404fb8:	1440fff0 	bnez	v0,404f7c <memcpy+0x16c>
  404fbc:	00000000 	nop
/home/git/21373271/21373271/lib/string.c:29
	}
	return dstaddr;
  404fc0:	8fc20000 	lw	v0,0(s8)
/home/git/21373271/21373271/lib/string.c:30
}
  404fc4:	03c0e825 	move	sp,s8
  404fc8:	8fbe000c 	lw	s8,12(sp)
  404fcc:	27bd0010 	addiu	sp,sp,16
  404fd0:	03e00008 	jr	ra
  404fd4:	00000000 	nop

00404fd8 <memset>:
memset():
/home/git/21373271/21373271/lib/string.c:32

void *memset(void *dst, int c, size_t n) {
  404fd8:	27bdffe8 	addiu	sp,sp,-24
  404fdc:	afbe0014 	sw	s8,20(sp)
  404fe0:	03a0f025 	move	s8,sp
  404fe4:	afc40018 	sw	a0,24(s8)
  404fe8:	afc5001c 	sw	a1,28(s8)
  404fec:	afc60020 	sw	a2,32(s8)
/home/git/21373271/21373271/lib/string.c:33
	void *dstaddr = dst;
  404ff0:	8fc20018 	lw	v0,24(s8)
  404ff4:	00000000 	nop
  404ff8:	afc20000 	sw	v0,0(s8)
/home/git/21373271/21373271/lib/string.c:34
	void *max = dst + n;
  404ffc:	8fc30018 	lw	v1,24(s8)
  405000:	8fc20020 	lw	v0,32(s8)
  405004:	00000000 	nop
  405008:	00621021 	addu	v0,v1,v0
  40500c:	afc20004 	sw	v0,4(s8)
/home/git/21373271/21373271/lib/string.c:35
	u_char byte = c & 0xff;
  405010:	8fc2001c 	lw	v0,28(s8)
  405014:	00000000 	nop
  405018:	a3c20008 	sb	v0,8(s8)
/home/git/21373271/21373271/lib/string.c:36
	uint32_t word = byte | byte << 8 | byte << 16 | byte << 24;
  40501c:	93c30008 	lbu	v1,8(s8)
  405020:	93c20008 	lbu	v0,8(s8)
  405024:	00000000 	nop
  405028:	00021200 	sll	v0,v0,0x8
  40502c:	00621825 	or	v1,v1,v0
  405030:	93c20008 	lbu	v0,8(s8)
  405034:	00000000 	nop
  405038:	00021400 	sll	v0,v0,0x10
  40503c:	00621825 	or	v1,v1,v0
  405040:	93c20008 	lbu	v0,8(s8)
  405044:	00000000 	nop
  405048:	00021600 	sll	v0,v0,0x18
  40504c:	00621025 	or	v0,v1,v0
  405050:	afc2000c 	sw	v0,12(s8)
/home/git/21373271/21373271/lib/string.c:38

	while (((u_long)dst & 3) && dst < max) {
  405054:	10000008 	b	405078 <memset+0xa0>
  405058:	00000000 	nop
/home/git/21373271/21373271/lib/string.c:39
		*(u_char *)dst++ = byte;
  40505c:	8fc20018 	lw	v0,24(s8)
  405060:	00000000 	nop
  405064:	24430001 	addiu	v1,v0,1
  405068:	afc30018 	sw	v1,24(s8)
  40506c:	93c30008 	lbu	v1,8(s8)
  405070:	00000000 	nop
  405074:	a0430000 	sb	v1,0(v0)
/home/git/21373271/21373271/lib/string.c:38
	while (((u_long)dst & 3) && dst < max) {
  405078:	8fc20018 	lw	v0,24(s8)
  40507c:	00000000 	nop
  405080:	30420003 	andi	v0,v0,0x3
  405084:	10400011 	beqz	v0,4050cc <memset+0xf4>
  405088:	00000000 	nop
/home/git/21373271/21373271/lib/string.c:38 (discriminator 1)
  40508c:	8fc30018 	lw	v1,24(s8)
  405090:	8fc20004 	lw	v0,4(s8)
  405094:	00000000 	nop
  405098:	0062102b 	sltu	v0,v1,v0
  40509c:	1440ffef 	bnez	v0,40505c <memset+0x84>
  4050a0:	00000000 	nop
/home/git/21373271/21373271/lib/string.c:43
	}

	// fill machine words while possible
	while (dst + 4 <= max) {
  4050a4:	10000009 	b	4050cc <memset+0xf4>
  4050a8:	00000000 	nop
/home/git/21373271/21373271/lib/string.c:44
		*(uint32_t *)dst = word;
  4050ac:	8fc20018 	lw	v0,24(s8)
  4050b0:	8fc3000c 	lw	v1,12(s8)
  4050b4:	00000000 	nop
  4050b8:	ac430000 	sw	v1,0(v0)
/home/git/21373271/21373271/lib/string.c:45
		dst += 4;
  4050bc:	8fc20018 	lw	v0,24(s8)
  4050c0:	00000000 	nop
  4050c4:	24420004 	addiu	v0,v0,4
  4050c8:	afc20018 	sw	v0,24(s8)
/home/git/21373271/21373271/lib/string.c:43
	while (dst + 4 <= max) {
  4050cc:	8fc20018 	lw	v0,24(s8)
  4050d0:	00000000 	nop
  4050d4:	24420004 	addiu	v0,v0,4
  4050d8:	8fc30004 	lw	v1,4(s8)
  4050dc:	00000000 	nop
  4050e0:	0062102b 	sltu	v0,v1,v0
  4050e4:	1040fff1 	beqz	v0,4050ac <memset+0xd4>
  4050e8:	00000000 	nop
/home/git/21373271/21373271/lib/string.c:49
	}

	// finish the remaining 0-3 bytes
	while (dst < max) {
  4050ec:	10000008 	b	405110 <memset+0x138>
  4050f0:	00000000 	nop
/home/git/21373271/21373271/lib/string.c:50
		*(u_char *)dst++ = byte;
  4050f4:	8fc20018 	lw	v0,24(s8)
  4050f8:	00000000 	nop
  4050fc:	24430001 	addiu	v1,v0,1
  405100:	afc30018 	sw	v1,24(s8)
  405104:	93c30008 	lbu	v1,8(s8)
  405108:	00000000 	nop
  40510c:	a0430000 	sb	v1,0(v0)
/home/git/21373271/21373271/lib/string.c:49
	while (dst < max) {
  405110:	8fc30018 	lw	v1,24(s8)
  405114:	8fc20004 	lw	v0,4(s8)
  405118:	00000000 	nop
  40511c:	0062102b 	sltu	v0,v1,v0
  405120:	1440fff4 	bnez	v0,4050f4 <memset+0x11c>
  405124:	00000000 	nop
/home/git/21373271/21373271/lib/string.c:52
	}
	return dstaddr;
  405128:	8fc20000 	lw	v0,0(s8)
/home/git/21373271/21373271/lib/string.c:53
}
  40512c:	03c0e825 	move	sp,s8
  405130:	8fbe0014 	lw	s8,20(sp)
  405134:	27bd0018 	addiu	sp,sp,24
  405138:	03e00008 	jr	ra
  40513c:	00000000 	nop

00405140 <strlen>:
strlen():
/home/git/21373271/21373271/lib/string.c:55

size_t strlen(const char *s) {
  405140:	27bdfff0 	addiu	sp,sp,-16
  405144:	afbe000c 	sw	s8,12(sp)
  405148:	03a0f025 	move	s8,sp
  40514c:	afc40010 	sw	a0,16(s8)
/home/git/21373271/21373271/lib/string.c:58
	int n;

	for (n = 0; *s; s++) {
  405150:	afc00000 	sw	zero,0(s8)
  405154:	10000009 	b	40517c <strlen+0x3c>
  405158:	00000000 	nop
/home/git/21373271/21373271/lib/string.c:59 (discriminator 3)
		n++;
  40515c:	8fc20000 	lw	v0,0(s8)
  405160:	00000000 	nop
  405164:	24420001 	addiu	v0,v0,1
  405168:	afc20000 	sw	v0,0(s8)
/home/git/21373271/21373271/lib/string.c:58 (discriminator 3)
	for (n = 0; *s; s++) {
  40516c:	8fc20010 	lw	v0,16(s8)
  405170:	00000000 	nop
  405174:	24420001 	addiu	v0,v0,1
  405178:	afc20010 	sw	v0,16(s8)
/home/git/21373271/21373271/lib/string.c:58 (discriminator 1)
  40517c:	8fc20010 	lw	v0,16(s8)
  405180:	00000000 	nop
  405184:	80420000 	lb	v0,0(v0)
  405188:	00000000 	nop
  40518c:	1440fff3 	bnez	v0,40515c <strlen+0x1c>
  405190:	00000000 	nop
/home/git/21373271/21373271/lib/string.c:62
	}

	return n;
  405194:	8fc20000 	lw	v0,0(s8)
/home/git/21373271/21373271/lib/string.c:63
}
  405198:	03c0e825 	move	sp,s8
  40519c:	8fbe000c 	lw	s8,12(sp)
  4051a0:	27bd0010 	addiu	sp,sp,16
  4051a4:	03e00008 	jr	ra
  4051a8:	00000000 	nop

004051ac <strcpy>:
strcpy():
/home/git/21373271/21373271/lib/string.c:65

char *strcpy(char *dst, const char *src) {
  4051ac:	27bdfff0 	addiu	sp,sp,-16
  4051b0:	afbe000c 	sw	s8,12(sp)
  4051b4:	03a0f025 	move	s8,sp
  4051b8:	afc40010 	sw	a0,16(s8)
  4051bc:	afc50014 	sw	a1,20(s8)
/home/git/21373271/21373271/lib/string.c:66
	char *ret = dst;
  4051c0:	8fc20010 	lw	v0,16(s8)
  4051c4:	00000000 	nop
  4051c8:	afc20000 	sw	v0,0(s8)
/home/git/21373271/21373271/lib/string.c:68

	while ((*dst++ = *src++) != 0) {
  4051cc:	00000000 	nop
/home/git/21373271/21373271/lib/string.c:68 (discriminator 1)
  4051d0:	8fc30014 	lw	v1,20(s8)
  4051d4:	00000000 	nop
  4051d8:	24620001 	addiu	v0,v1,1
  4051dc:	afc20014 	sw	v0,20(s8)
  4051e0:	8fc20010 	lw	v0,16(s8)
  4051e4:	00000000 	nop
  4051e8:	24440001 	addiu	a0,v0,1
  4051ec:	afc40010 	sw	a0,16(s8)
  4051f0:	80630000 	lb	v1,0(v1)
  4051f4:	00000000 	nop
  4051f8:	a0430000 	sb	v1,0(v0)
  4051fc:	80420000 	lb	v0,0(v0)
  405200:	00000000 	nop
  405204:	1440fff2 	bnez	v0,4051d0 <strcpy+0x24>
  405208:	00000000 	nop
/home/git/21373271/21373271/lib/string.c:71
	}

	return ret;
  40520c:	8fc20000 	lw	v0,0(s8)
/home/git/21373271/21373271/lib/string.c:72
}
  405210:	03c0e825 	move	sp,s8
  405214:	8fbe000c 	lw	s8,12(sp)
  405218:	27bd0010 	addiu	sp,sp,16
  40521c:	03e00008 	jr	ra
  405220:	00000000 	nop

00405224 <strchr>:
strchr():
/home/git/21373271/21373271/lib/string.c:74

const char *strchr(const char *s, int c) {
  405224:	27bdfff8 	addiu	sp,sp,-8
  405228:	afbe0004 	sw	s8,4(sp)
  40522c:	03a0f025 	move	s8,sp
  405230:	afc40008 	sw	a0,8(s8)
  405234:	afc5000c 	sw	a1,12(s8)
/home/git/21373271/21373271/lib/string.c:75
	for (; *s; s++) {
  405238:	10000011 	b	405280 <strchr+0x5c>
  40523c:	00000000 	nop
/home/git/21373271/21373271/lib/string.c:76
		if (*s == c) {
  405240:	8fc20008 	lw	v0,8(s8)
  405244:	00000000 	nop
  405248:	80420000 	lb	v0,0(v0)
  40524c:	00000000 	nop
  405250:	00401825 	move	v1,v0
  405254:	8fc2000c 	lw	v0,12(s8)
  405258:	00000000 	nop
  40525c:	14430004 	bne	v0,v1,405270 <strchr+0x4c>
  405260:	00000000 	nop
/home/git/21373271/21373271/lib/string.c:77
			return s;
  405264:	8fc20008 	lw	v0,8(s8)
  405268:	1000000c 	b	40529c <strchr+0x78>
  40526c:	00000000 	nop
/home/git/21373271/21373271/lib/string.c:75
	for (; *s; s++) {
  405270:	8fc20008 	lw	v0,8(s8)
  405274:	00000000 	nop
  405278:	24420001 	addiu	v0,v0,1
  40527c:	afc20008 	sw	v0,8(s8)
/home/git/21373271/21373271/lib/string.c:75 (discriminator 1)
  405280:	8fc20008 	lw	v0,8(s8)
  405284:	00000000 	nop
  405288:	80420000 	lb	v0,0(v0)
  40528c:	00000000 	nop
  405290:	1440ffeb 	bnez	v0,405240 <strchr+0x1c>
  405294:	00000000 	nop
/home/git/21373271/21373271/lib/string.c:80
		}
	}
	return 0;
  405298:	00001025 	move	v0,zero
/home/git/21373271/21373271/lib/string.c:81
}
  40529c:	03c0e825 	move	sp,s8
  4052a0:	8fbe0004 	lw	s8,4(sp)
  4052a4:	27bd0008 	addiu	sp,sp,8
  4052a8:	03e00008 	jr	ra
  4052ac:	00000000 	nop

004052b0 <strcmp>:
strcmp():
/home/git/21373271/21373271/lib/string.c:83

int strcmp(const char *p, const char *q) {
  4052b0:	27bdfff8 	addiu	sp,sp,-8
  4052b4:	afbe0004 	sw	s8,4(sp)
  4052b8:	03a0f025 	move	s8,sp
  4052bc:	afc40008 	sw	a0,8(s8)
  4052c0:	afc5000c 	sw	a1,12(s8)
/home/git/21373271/21373271/lib/string.c:84
	while (*p && *p == *q) {
  4052c4:	10000009 	b	4052ec <strcmp+0x3c>
  4052c8:	00000000 	nop
/home/git/21373271/21373271/lib/string.c:85
		p++, q++;
  4052cc:	8fc20008 	lw	v0,8(s8)
  4052d0:	00000000 	nop
  4052d4:	24420001 	addiu	v0,v0,1
  4052d8:	afc20008 	sw	v0,8(s8)
  4052dc:	8fc2000c 	lw	v0,12(s8)
  4052e0:	00000000 	nop
  4052e4:	24420001 	addiu	v0,v0,1
  4052e8:	afc2000c 	sw	v0,12(s8)
/home/git/21373271/21373271/lib/string.c:84
	while (*p && *p == *q) {
  4052ec:	8fc20008 	lw	v0,8(s8)
  4052f0:	00000000 	nop
  4052f4:	80420000 	lb	v0,0(v0)
  4052f8:	00000000 	nop
  4052fc:	1040000a 	beqz	v0,405328 <strcmp+0x78>
  405300:	00000000 	nop
/home/git/21373271/21373271/lib/string.c:84 (discriminator 1)
  405304:	8fc20008 	lw	v0,8(s8)
  405308:	00000000 	nop
  40530c:	80430000 	lb	v1,0(v0)
  405310:	8fc2000c 	lw	v0,12(s8)
  405314:	00000000 	nop
  405318:	80420000 	lb	v0,0(v0)
  40531c:	00000000 	nop
  405320:	1062ffea 	beq	v1,v0,4052cc <strcmp+0x1c>
  405324:	00000000 	nop
/home/git/21373271/21373271/lib/string.c:88
	}

	if ((u_int)*p < (u_int)*q) {
  405328:	8fc20008 	lw	v0,8(s8)
  40532c:	00000000 	nop
  405330:	80420000 	lb	v0,0(v0)
  405334:	00000000 	nop
  405338:	304300ff 	andi	v1,v0,0xff
  40533c:	8fc2000c 	lw	v0,12(s8)
  405340:	00000000 	nop
  405344:	80420000 	lb	v0,0(v0)
  405348:	00000000 	nop
  40534c:	304200ff 	andi	v0,v0,0xff
  405350:	0062102b 	sltu	v0,v1,v0
  405354:	10400004 	beqz	v0,405368 <strcmp+0xb8>
  405358:	00000000 	nop
/home/git/21373271/21373271/lib/string.c:89
		return -1;
  40535c:	2402ffff 	li	v0,-1
  405360:	10000012 	b	4053ac <strcmp+0xfc>
  405364:	00000000 	nop
/home/git/21373271/21373271/lib/string.c:92
	}

	if ((u_int)*p > (u_int)*q) {
  405368:	8fc20008 	lw	v0,8(s8)
  40536c:	00000000 	nop
  405370:	80420000 	lb	v0,0(v0)
  405374:	00000000 	nop
  405378:	304300ff 	andi	v1,v0,0xff
  40537c:	8fc2000c 	lw	v0,12(s8)
  405380:	00000000 	nop
  405384:	80420000 	lb	v0,0(v0)
  405388:	00000000 	nop
  40538c:	304200ff 	andi	v0,v0,0xff
  405390:	0043102b 	sltu	v0,v0,v1
  405394:	10400004 	beqz	v0,4053a8 <strcmp+0xf8>
  405398:	00000000 	nop
/home/git/21373271/21373271/lib/string.c:93
		return 1;
  40539c:	24020001 	li	v0,1
  4053a0:	10000002 	b	4053ac <strcmp+0xfc>
  4053a4:	00000000 	nop
/home/git/21373271/21373271/lib/string.c:96
	}

	return 0;
  4053a8:	00001025 	move	v0,zero
/home/git/21373271/21373271/lib/string.c:97
}
  4053ac:	03c0e825 	move	sp,s8
  4053b0:	8fbe0004 	lw	s8,4(sp)
  4053b4:	27bd0008 	addiu	sp,sp,8
  4053b8:	03e00008 	jr	ra
  4053bc:	00000000 	nop

004053c0 <diskaddr>:
diskaddr():
/home/git/21373271/21373271/fs/fs.c:14
  4053c0:	27bdfff8 	addiu	sp,sp,-8
  4053c4:	afbe0004 	sw	s8,4(sp)
  4053c8:	03a0f025 	move	s8,sp
  4053cc:	afc40008 	sw	a0,8(s8)
/home/git/21373271/21373271/fs/fs.c:16
  4053d0:	8fc30008 	lw	v1,8(s8)
  4053d4:	3c020001 	lui	v0,0x1
  4053d8:	00621021 	addu	v0,v1,v0
  4053dc:	00021300 	sll	v0,v0,0xc
/home/git/21373271/21373271/fs/fs.c:17
  4053e0:	03c0e825 	move	sp,s8
  4053e4:	8fbe0004 	lw	s8,4(sp)
  4053e8:	27bd0008 	addiu	sp,sp,8
  4053ec:	03e00008 	jr	ra
  4053f0:	00000000 	nop

004053f4 <va_is_mapped>:
va_is_mapped():
/home/git/21373271/21373271/fs/fs.c:21
  4053f4:	27bdfff8 	addiu	sp,sp,-8
  4053f8:	afbe0004 	sw	s8,4(sp)
  4053fc:	03a0f025 	move	s8,sp
  405400:	afc40008 	sw	a0,8(s8)
/home/git/21373271/21373271/fs/fs.c:22
  405404:	8fc20008 	lw	v0,8(s8)
  405408:	00000000 	nop
  40540c:	00021582 	srl	v0,v0,0x16
  405410:	00021880 	sll	v1,v0,0x2
  405414:	3c027fdf 	lui	v0,0x7fdf
  405418:	3442f000 	ori	v0,v0,0xf000
  40541c:	00621021 	addu	v0,v1,v0
  405420:	8c420000 	lw	v0,0(v0)
  405424:	00000000 	nop
  405428:	30420200 	andi	v0,v0,0x200
  40542c:	1040000f 	beqz	v0,40546c <va_is_mapped+0x78>
  405430:	00000000 	nop
/home/git/21373271/21373271/fs/fs.c:22 (discriminator 1)
  405434:	8fc20008 	lw	v0,8(s8)
  405438:	00000000 	nop
  40543c:	00021302 	srl	v0,v0,0xc
  405440:	00021880 	sll	v1,v0,0x2
  405444:	3c027fc0 	lui	v0,0x7fc0
  405448:	00621021 	addu	v0,v1,v0
  40544c:	8c420000 	lw	v0,0(v0)
  405450:	00000000 	nop
  405454:	30420200 	andi	v0,v0,0x200
  405458:	10400004 	beqz	v0,40546c <va_is_mapped+0x78>
  40545c:	00000000 	nop
/home/git/21373271/21373271/fs/fs.c:22 (discriminator 3)
  405460:	24020001 	li	v0,1
  405464:	10000002 	b	405470 <va_is_mapped+0x7c>
  405468:	00000000 	nop
/home/git/21373271/21373271/fs/fs.c:22 (discriminator 4)
  40546c:	00001025 	move	v0,zero
/home/git/21373271/21373271/fs/fs.c:23 (discriminator 7)
  405470:	03c0e825 	move	sp,s8
  405474:	8fbe0004 	lw	s8,4(sp)
  405478:	27bd0008 	addiu	sp,sp,8
  40547c:	03e00008 	jr	ra
  405480:	00000000 	nop

00405484 <block_is_mapped>:
block_is_mapped():
/home/git/21373271/21373271/fs/fs.c:28
  405484:	27bdffe0 	addiu	sp,sp,-32
  405488:	afbf001c 	sw	ra,28(sp)
  40548c:	afbe0018 	sw	s8,24(sp)
  405490:	03a0f025 	move	s8,sp
  405494:	afc40020 	sw	a0,32(s8)
/home/git/21373271/21373271/fs/fs.c:29
  405498:	8fc40020 	lw	a0,32(s8)
  40549c:	0c1014f0 	jal	4053c0 <diskaddr>
  4054a0:	00000000 	nop
  4054a4:	afc20010 	sw	v0,16(s8)
/home/git/21373271/21373271/fs/fs.c:30
  4054a8:	8fc40010 	lw	a0,16(s8)
  4054ac:	0c1014fd 	jal	4053f4 <va_is_mapped>
  4054b0:	00000000 	nop
  4054b4:	10400004 	beqz	v0,4054c8 <block_is_mapped+0x44>
  4054b8:	00000000 	nop
/home/git/21373271/21373271/fs/fs.c:31
  4054bc:	8fc20010 	lw	v0,16(s8)
  4054c0:	10000002 	b	4054cc <block_is_mapped+0x48>
  4054c4:	00000000 	nop
/home/git/21373271/21373271/fs/fs.c:33
  4054c8:	00001025 	move	v0,zero
/home/git/21373271/21373271/fs/fs.c:34
  4054cc:	03c0e825 	move	sp,s8
  4054d0:	8fbf001c 	lw	ra,28(sp)
  4054d4:	8fbe0018 	lw	s8,24(sp)
  4054d8:	27bd0020 	addiu	sp,sp,32
  4054dc:	03e00008 	jr	ra
  4054e0:	00000000 	nop

004054e4 <va_is_dirty>:
va_is_dirty():
/home/git/21373271/21373271/fs/fs.c:38
  4054e4:	27bdfff8 	addiu	sp,sp,-8
  4054e8:	afbe0004 	sw	s8,4(sp)
  4054ec:	03a0f025 	move	s8,sp
  4054f0:	afc40008 	sw	a0,8(s8)
/home/git/21373271/21373271/fs/fs.c:39
  4054f4:	8fc20008 	lw	v0,8(s8)
  4054f8:	00000000 	nop
  4054fc:	00021302 	srl	v0,v0,0xc
  405500:	00021880 	sll	v1,v0,0x2
  405504:	3c027fc0 	lui	v0,0x7fc0
  405508:	00621021 	addu	v0,v1,v0
  40550c:	8c420000 	lw	v0,0(v0)
  405510:	00000000 	nop
  405514:	30420002 	andi	v0,v0,0x2
/home/git/21373271/21373271/fs/fs.c:40
  405518:	03c0e825 	move	sp,s8
  40551c:	8fbe0004 	lw	s8,4(sp)
  405520:	27bd0008 	addiu	sp,sp,8
  405524:	03e00008 	jr	ra
  405528:	00000000 	nop

0040552c <block_is_dirty>:
block_is_dirty():
/home/git/21373271/21373271/fs/fs.c:44
  40552c:	27bdffe0 	addiu	sp,sp,-32
  405530:	afbf001c 	sw	ra,28(sp)
  405534:	afbe0018 	sw	s8,24(sp)
  405538:	03a0f025 	move	s8,sp
  40553c:	afc40020 	sw	a0,32(s8)
/home/git/21373271/21373271/fs/fs.c:45
  405540:	8fc40020 	lw	a0,32(s8)
  405544:	0c1014f0 	jal	4053c0 <diskaddr>
  405548:	00000000 	nop
  40554c:	afc20010 	sw	v0,16(s8)
/home/git/21373271/21373271/fs/fs.c:46
  405550:	8fc40010 	lw	a0,16(s8)
  405554:	0c1014fd 	jal	4053f4 <va_is_mapped>
  405558:	00000000 	nop
  40555c:	10400009 	beqz	v0,405584 <block_is_dirty+0x58>
  405560:	00000000 	nop
/home/git/21373271/21373271/fs/fs.c:46 (discriminator 1)
  405564:	8fc40010 	lw	a0,16(s8)
  405568:	0c101539 	jal	4054e4 <va_is_dirty>
  40556c:	00000000 	nop
  405570:	10400004 	beqz	v0,405584 <block_is_dirty+0x58>
  405574:	00000000 	nop
/home/git/21373271/21373271/fs/fs.c:46 (discriminator 3)
  405578:	24020001 	li	v0,1
  40557c:	10000002 	b	405588 <block_is_dirty+0x5c>
  405580:	00000000 	nop
/home/git/21373271/21373271/fs/fs.c:46 (discriminator 4)
  405584:	00001025 	move	v0,zero
/home/git/21373271/21373271/fs/fs.c:47 (discriminator 7)
  405588:	03c0e825 	move	sp,s8
  40558c:	8fbf001c 	lw	ra,28(sp)
  405590:	8fbe0018 	lw	s8,24(sp)
  405594:	27bd0020 	addiu	sp,sp,32
  405598:	03e00008 	jr	ra
  40559c:	00000000 	nop

004055a0 <dirty_block>:
dirty_block():
/home/git/21373271/21373271/fs/fs.c:51
  4055a0:	27bdffd8 	addiu	sp,sp,-40
  4055a4:	afbf0024 	sw	ra,36(sp)
  4055a8:	afbe0020 	sw	s8,32(sp)
  4055ac:	03a0f025 	move	s8,sp
  4055b0:	afc40028 	sw	a0,40(s8)
/home/git/21373271/21373271/fs/fs.c:52
  4055b4:	8fc40028 	lw	a0,40(s8)
  4055b8:	0c1014f0 	jal	4053c0 <diskaddr>
  4055bc:	00000000 	nop
  4055c0:	afc20018 	sw	v0,24(s8)
/home/git/21373271/21373271/fs/fs.c:54
  4055c4:	8fc40018 	lw	a0,24(s8)
  4055c8:	0c1014fd 	jal	4053f4 <va_is_mapped>
  4055cc:	00000000 	nop
  4055d0:	14400004 	bnez	v0,4055e4 <dirty_block+0x44>
  4055d4:	00000000 	nop
/home/git/21373271/21373271/fs/fs.c:55
  4055d8:	2402fff6 	li	v0,-10
  4055dc:	10000011 	b	405624 <dirty_block+0x84>
  4055e0:	00000000 	nop
/home/git/21373271/21373271/fs/fs.c:58
  4055e4:	8fc40018 	lw	a0,24(s8)
  4055e8:	0c101539 	jal	4054e4 <va_is_dirty>
  4055ec:	00000000 	nop
  4055f0:	10400004 	beqz	v0,405604 <dirty_block+0x64>
  4055f4:	00000000 	nop
/home/git/21373271/21373271/fs/fs.c:59
  4055f8:	00001025 	move	v0,zero
  4055fc:	10000009 	b	405624 <dirty_block+0x84>
  405600:	00000000 	nop
/home/git/21373271/21373271/fs/fs.c:62
  405604:	24020402 	li	v0,1026
  405608:	afa20010 	sw	v0,16(sp)
  40560c:	8fc70018 	lw	a3,24(s8)
  405610:	00003025 	move	a2,zero
  405614:	8fc50018 	lw	a1,24(s8)
  405618:	00002025 	move	a0,zero
  40561c:	0c100577 	jal	4015dc <syscall_mem_map>
  405620:	00000000 	nop
/home/git/21373271/21373271/fs/fs.c:63
  405624:	03c0e825 	move	sp,s8
  405628:	8fbf0024 	lw	ra,36(sp)
  40562c:	8fbe0020 	lw	s8,32(sp)
  405630:	27bd0028 	addiu	sp,sp,40
  405634:	03e00008 	jr	ra
  405638:	00000000 	nop

0040563c <write_block>:
write_block():
/home/git/21373271/21373271/fs/fs.c:67
  40563c:	27bdffe0 	addiu	sp,sp,-32
  405640:	afbf001c 	sw	ra,28(sp)
  405644:	afbe0018 	sw	s8,24(sp)
  405648:	03a0f025 	move	s8,sp
  40564c:	afc40020 	sw	a0,32(s8)
/home/git/21373271/21373271/fs/fs.c:69
  405650:	8fc40020 	lw	a0,32(s8)
  405654:	0c101521 	jal	405484 <block_is_mapped>
  405658:	00000000 	nop
  40565c:	14400009 	bnez	v0,405684 <write_block+0x48>
  405660:	00000000 	nop
/home/git/21373271/21373271/fs/fs.c:70
  405664:	8fc70020 	lw	a3,32(s8)
  405668:	3c020040 	lui	v0,0x40
  40566c:	24467c50 	addiu	a2,v0,31824
  405670:	24050046 	li	a1,70
  405674:	3c020040 	lui	v0,0x40
  405678:	24447c6c 	addiu	a0,v0,31852
  40567c:	0c100393 	jal	400e4c <_user_panic>
  405680:	00000000 	nop
/home/git/21373271/21373271/fs/fs.c:74
  405684:	8fc40020 	lw	a0,32(s8)
  405688:	0c1014f0 	jal	4053c0 <diskaddr>
  40568c:	00000000 	nop
  405690:	afc20010 	sw	v0,16(s8)
/home/git/21373271/21373271/fs/fs.c:75
  405694:	8fc20020 	lw	v0,32(s8)
  405698:	00000000 	nop
  40569c:	000210c0 	sll	v0,v0,0x3
  4056a0:	24070008 	li	a3,8
  4056a4:	8fc60010 	lw	a2,16(s8)
  4056a8:	00402825 	move	a1,v0
  4056ac:	00002025 	move	a0,zero
  4056b0:	0c101d74 	jal	4075d0 <ide_write>
  4056b4:	00000000 	nop
/home/git/21373271/21373271/fs/fs.c:76
  4056b8:	00000000 	nop
  4056bc:	03c0e825 	move	sp,s8
  4056c0:	8fbf001c 	lw	ra,28(sp)
  4056c4:	8fbe0018 	lw	s8,24(sp)
  4056c8:	27bd0020 	addiu	sp,sp,32
  4056cc:	03e00008 	jr	ra
  4056d0:	00000000 	nop

004056d4 <read_block>:
read_block():
/home/git/21373271/21373271/fs/fs.c:93
  4056d4:	27bdffe0 	addiu	sp,sp,-32
  4056d8:	afbf001c 	sw	ra,28(sp)
  4056dc:	afbe0018 	sw	s8,24(sp)
  4056e0:	03a0f025 	move	s8,sp
  4056e4:	afc40020 	sw	a0,32(s8)
  4056e8:	afc50024 	sw	a1,36(s8)
  4056ec:	afc60028 	sw	a2,40(s8)
/home/git/21373271/21373271/fs/fs.c:95
  4056f0:	3c020041 	lui	v0,0x41
  4056f4:	8c420000 	lw	v0,0(v0)
  4056f8:	00000000 	nop
  4056fc:	10400012 	beqz	v0,405748 <read_block+0x74>
  405700:	00000000 	nop
/home/git/21373271/21373271/fs/fs.c:95 (discriminator 1)
  405704:	3c020041 	lui	v0,0x41
  405708:	8c420000 	lw	v0,0(v0)
  40570c:	00000000 	nop
  405710:	8c420004 	lw	v0,4(v0)
  405714:	8fc30020 	lw	v1,32(s8)
  405718:	00000000 	nop
  40571c:	0062102b 	sltu	v0,v1,v0
  405720:	14400009 	bnez	v0,405748 <read_block+0x74>
  405724:	00000000 	nop
/home/git/21373271/21373271/fs/fs.c:96
  405728:	8fc70020 	lw	a3,32(s8)
  40572c:	3c020040 	lui	v0,0x40
  405730:	24467c74 	addiu	a2,v0,31860
  405734:	24050060 	li	a1,96
  405738:	3c020040 	lui	v0,0x40
  40573c:	24447c6c 	addiu	a0,v0,31852
  405740:	0c100393 	jal	400e4c <_user_panic>
  405744:	00000000 	nop
/home/git/21373271/21373271/fs/fs.c:104
  405748:	3c020041 	lui	v0,0x41
  40574c:	8c420004 	lw	v0,4(v0)
  405750:	00000000 	nop
  405754:	1040000e 	beqz	v0,405790 <read_block+0xbc>
  405758:	00000000 	nop
/home/git/21373271/21373271/fs/fs.c:104 (discriminator 1)
  40575c:	8fc40020 	lw	a0,32(s8)
  405760:	0c101668 	jal	4059a0 <block_is_free>
  405764:	00000000 	nop
  405768:	10400009 	beqz	v0,405790 <read_block+0xbc>
  40576c:	00000000 	nop
/home/git/21373271/21373271/fs/fs.c:105
  405770:	8fc70020 	lw	a3,32(s8)
  405774:	3c020040 	lui	v0,0x40
  405778:	24467c98 	addiu	a2,v0,31896
  40577c:	24050069 	li	a1,105
  405780:	3c020040 	lui	v0,0x40
  405784:	24447c6c 	addiu	a0,v0,31852
  405788:	0c100393 	jal	400e4c <_user_panic>
  40578c:	00000000 	nop
/home/git/21373271/21373271/fs/fs.c:109
  405790:	8fc40020 	lw	a0,32(s8)
  405794:	0c1014f0 	jal	4053c0 <diskaddr>
  405798:	00000000 	nop
  40579c:	afc20010 	sw	v0,16(s8)
/home/git/21373271/21373271/fs/fs.c:116
  4057a0:	8fc40020 	lw	a0,32(s8)
  4057a4:	0c101521 	jal	405484 <block_is_mapped>
  4057a8:	00000000 	nop
  4057ac:	1040000a 	beqz	v0,4057d8 <read_block+0x104>
  4057b0:	00000000 	nop
/home/git/21373271/21373271/fs/fs.c:117
  4057b4:	8fc20028 	lw	v0,40(s8)
  4057b8:	00000000 	nop
  4057bc:	1040001b 	beqz	v0,40582c <read_block+0x158>
  4057c0:	00000000 	nop
/home/git/21373271/21373271/fs/fs.c:118
  4057c4:	8fc20028 	lw	v0,40(s8)
  4057c8:	00000000 	nop
  4057cc:	ac400000 	sw	zero,0(v0)
  4057d0:	10000016 	b	40582c <read_block+0x158>
  4057d4:	00000000 	nop
/home/git/21373271/21373271/fs/fs.c:121
  4057d8:	8fc20028 	lw	v0,40(s8)
  4057dc:	00000000 	nop
  4057e0:	10400004 	beqz	v0,4057f4 <read_block+0x120>
  4057e4:	00000000 	nop
/home/git/21373271/21373271/fs/fs.c:122
  4057e8:	8fc20028 	lw	v0,40(s8)
  4057ec:	24030001 	li	v1,1
  4057f0:	ac430000 	sw	v1,0(v0)
/home/git/21373271/21373271/fs/fs.c:124
  4057f4:	24060400 	li	a2,1024
  4057f8:	8fc50010 	lw	a1,16(s8)
  4057fc:	00002025 	move	a0,zero
  405800:	0c100564 	jal	401590 <syscall_mem_alloc>
  405804:	00000000 	nop
/home/git/21373271/21373271/fs/fs.c:125
  405808:	8fc20020 	lw	v0,32(s8)
  40580c:	00000000 	nop
  405810:	000210c0 	sll	v0,v0,0x3
  405814:	24070008 	li	a3,8
  405818:	8fc60010 	lw	a2,16(s8)
  40581c:	00402825 	move	a1,v0
  405820:	00002025 	move	a0,zero
  405824:	0c101cc8 	jal	407320 <ide_read>
  405828:	00000000 	nop
/home/git/21373271/21373271/fs/fs.c:129
  40582c:	8fc20024 	lw	v0,36(s8)
  405830:	00000000 	nop
  405834:	10400005 	beqz	v0,40584c <read_block+0x178>
  405838:	00000000 	nop
/home/git/21373271/21373271/fs/fs.c:130
  40583c:	8fc20024 	lw	v0,36(s8)
  405840:	8fc30010 	lw	v1,16(s8)
  405844:	00000000 	nop
  405848:	ac430000 	sw	v1,0(v0)
/home/git/21373271/21373271/fs/fs.c:132
  40584c:	00001025 	move	v0,zero
/home/git/21373271/21373271/fs/fs.c:133
  405850:	03c0e825 	move	sp,s8
  405854:	8fbf001c 	lw	ra,28(sp)
  405858:	8fbe0018 	lw	s8,24(sp)
  40585c:	27bd0020 	addiu	sp,sp,32
  405860:	03e00008 	jr	ra
  405864:	00000000 	nop

00405868 <map_block>:
map_block():
/home/git/21373271/21373271/fs/fs.c:137
  405868:	27bdffe8 	addiu	sp,sp,-24
  40586c:	afbf0014 	sw	ra,20(sp)
  405870:	afbe0010 	sw	s8,16(sp)
  405874:	03a0f025 	move	s8,sp
  405878:	afc40018 	sw	a0,24(s8)
/home/git/21373271/21373271/fs/fs.c:141
  40587c:	8fc40018 	lw	a0,24(s8)
  405880:	0c101521 	jal	405484 <block_is_mapped>
  405884:	00000000 	nop
  405888:	10400004 	beqz	v0,40589c <map_block+0x34>
  40588c:	00000000 	nop
/home/git/21373271/21373271/fs/fs.c:142
  405890:	00001025 	move	v0,zero
  405894:	10000009 	b	4058bc <map_block+0x54>
  405898:	00000000 	nop
/home/git/21373271/21373271/fs/fs.c:147
  40589c:	8fc40018 	lw	a0,24(s8)
  4058a0:	0c1014f0 	jal	4053c0 <diskaddr>
  4058a4:	00000000 	nop
  4058a8:	24060600 	li	a2,1536
  4058ac:	00402825 	move	a1,v0
  4058b0:	00002025 	move	a0,zero
  4058b4:	0c100564 	jal	401590 <syscall_mem_alloc>
  4058b8:	00000000 	nop
/home/git/21373271/21373271/fs/fs.c:148
  4058bc:	03c0e825 	move	sp,s8
  4058c0:	8fbf0014 	lw	ra,20(sp)
  4058c4:	8fbe0010 	lw	s8,16(sp)
  4058c8:	27bd0018 	addiu	sp,sp,24
  4058cc:	03e00008 	jr	ra
  4058d0:	00000000 	nop

004058d4 <unmap_block>:
unmap_block():
/home/git/21373271/21373271/fs/fs.c:152
  4058d4:	27bdffe0 	addiu	sp,sp,-32
  4058d8:	afbf001c 	sw	ra,28(sp)
  4058dc:	afbe0018 	sw	s8,24(sp)
  4058e0:	03a0f025 	move	s8,sp
  4058e4:	afc40020 	sw	a0,32(s8)
/home/git/21373271/21373271/fs/fs.c:156
  4058e8:	8fc40020 	lw	a0,32(s8)
  4058ec:	0c101521 	jal	405484 <block_is_mapped>
  4058f0:	00000000 	nop
  4058f4:	afc20010 	sw	v0,16(s8)
/home/git/21373271/21373271/fs/fs.c:157
  4058f8:	8fc20010 	lw	v0,16(s8)
  4058fc:	00000000 	nop
  405900:	10400020 	beqz	v0,405984 <unmap_block+0xb0>
  405904:	00000000 	nop
/home/git/21373271/21373271/fs/fs.c:164
  405908:	8fc40020 	lw	a0,32(s8)
  40590c:	0c101668 	jal	4059a0 <block_is_free>
  405910:	00000000 	nop
  405914:	14400009 	bnez	v0,40593c <unmap_block+0x68>
  405918:	00000000 	nop
/home/git/21373271/21373271/fs/fs.c:164 (discriminator 1)
  40591c:	8fc40020 	lw	a0,32(s8)
  405920:	0c10154b 	jal	40552c <block_is_dirty>
  405924:	00000000 	nop
  405928:	10400004 	beqz	v0,40593c <unmap_block+0x68>
  40592c:	00000000 	nop
/home/git/21373271/21373271/fs/fs.c:165
  405930:	8fc40020 	lw	a0,32(s8)
  405934:	0c10158f 	jal	40563c <write_block>
  405938:	00000000 	nop
/home/git/21373271/21373271/fs/fs.c:169
  40593c:	8fc50010 	lw	a1,16(s8)
  405940:	00002025 	move	a0,zero
  405944:	0c100591 	jal	401644 <syscall_mem_unmap>
  405948:	00000000 	nop
/home/git/21373271/21373271/fs/fs.c:170
  40594c:	8fc40020 	lw	a0,32(s8)
  405950:	0c101521 	jal	405484 <block_is_mapped>
  405954:	00000000 	nop
  405958:	1040000b 	beqz	v0,405988 <unmap_block+0xb4>
  40595c:	00000000 	nop
/home/git/21373271/21373271/fs/fs.c:170 (discriminator 1)
  405960:	3c020040 	lui	v0,0x40
  405964:	24477cb4 	addiu	a3,v0,31924
  405968:	3c020040 	lui	v0,0x40
  40596c:	24467cd0 	addiu	a2,v0,31952
  405970:	240500aa 	li	a1,170
  405974:	3c020040 	lui	v0,0x40
  405978:	24447c6c 	addiu	a0,v0,31852
  40597c:	0c100393 	jal	400e4c <_user_panic>
  405980:	00000000 	nop
/home/git/21373271/21373271/fs/fs.c:158
  405984:	00000000 	nop
/home/git/21373271/21373271/fs/fs.c:171
  405988:	03c0e825 	move	sp,s8
  40598c:	8fbf001c 	lw	ra,28(sp)
  405990:	8fbe0018 	lw	s8,24(sp)
  405994:	27bd0020 	addiu	sp,sp,32
  405998:	03e00008 	jr	ra
  40599c:	00000000 	nop

004059a0 <block_is_free>:
block_is_free():
/home/git/21373271/21373271/fs/fs.c:178
  4059a0:	27bdfff8 	addiu	sp,sp,-8
  4059a4:	afbe0004 	sw	s8,4(sp)
  4059a8:	03a0f025 	move	s8,sp
  4059ac:	afc40008 	sw	a0,8(s8)
/home/git/21373271/21373271/fs/fs.c:179
  4059b0:	3c020041 	lui	v0,0x41
  4059b4:	8c420000 	lw	v0,0(v0)
  4059b8:	00000000 	nop
  4059bc:	1040000a 	beqz	v0,4059e8 <block_is_free+0x48>
  4059c0:	00000000 	nop
/home/git/21373271/21373271/fs/fs.c:179 (discriminator 1)
  4059c4:	3c020041 	lui	v0,0x41
  4059c8:	8c420000 	lw	v0,0(v0)
  4059cc:	00000000 	nop
  4059d0:	8c420004 	lw	v0,4(v0)
  4059d4:	8fc30008 	lw	v1,8(s8)
  4059d8:	00000000 	nop
  4059dc:	0062102b 	sltu	v0,v1,v0
  4059e0:	14400004 	bnez	v0,4059f4 <block_is_free+0x54>
  4059e4:	00000000 	nop
/home/git/21373271/21373271/fs/fs.c:180
  4059e8:	00001025 	move	v0,zero
  4059ec:	10000015 	b	405a44 <block_is_free+0xa4>
  4059f0:	00000000 	nop
/home/git/21373271/21373271/fs/fs.c:183
  4059f4:	3c020041 	lui	v0,0x41
  4059f8:	8c430004 	lw	v1,4(v0)
  4059fc:	8fc20008 	lw	v0,8(s8)
  405a00:	00000000 	nop
  405a04:	00021142 	srl	v0,v0,0x5
  405a08:	00021080 	sll	v0,v0,0x2
  405a0c:	00621021 	addu	v0,v1,v0
  405a10:	8c420000 	lw	v0,0(v0)
  405a14:	8fc30008 	lw	v1,8(s8)
  405a18:	00000000 	nop
  405a1c:	3063001f 	andi	v1,v1,0x1f
  405a20:	24040001 	li	a0,1
  405a24:	00641804 	sllv	v1,a0,v1
  405a28:	00431024 	and	v0,v0,v1
  405a2c:	10400004 	beqz	v0,405a40 <block_is_free+0xa0>
  405a30:	00000000 	nop
/home/git/21373271/21373271/fs/fs.c:184
  405a34:	24020001 	li	v0,1
  405a38:	10000002 	b	405a44 <block_is_free+0xa4>
  405a3c:	00000000 	nop
/home/git/21373271/21373271/fs/fs.c:187
  405a40:	00001025 	move	v0,zero
/home/git/21373271/21373271/fs/fs.c:188
  405a44:	03c0e825 	move	sp,s8
  405a48:	8fbe0004 	lw	s8,4(sp)
  405a4c:	27bd0008 	addiu	sp,sp,8
  405a50:	03e00008 	jr	ra
  405a54:	00000000 	nop

00405a58 <free_block>:
free_block():
/home/git/21373271/21373271/fs/fs.c:192
  405a58:	27bdfff8 	addiu	sp,sp,-8
  405a5c:	afbe0004 	sw	s8,4(sp)
  405a60:	03a0f025 	move	s8,sp
  405a64:	afc40008 	sw	a0,8(s8)
/home/git/21373271/21373271/fs/fs.c:196
  405a68:	8fc20008 	lw	v0,8(s8)
  405a6c:	00000000 	nop
  405a70:	10400025 	beqz	v0,405b08 <free_block+0xb0>
  405a74:	00000000 	nop
/home/git/21373271/21373271/fs/fs.c:196 (discriminator 1)
  405a78:	3c020041 	lui	v0,0x41
  405a7c:	8c420000 	lw	v0,0(v0)
  405a80:	00000000 	nop
  405a84:	1040000a 	beqz	v0,405ab0 <free_block+0x58>
  405a88:	00000000 	nop
/home/git/21373271/21373271/fs/fs.c:196 (discriminator 2)
  405a8c:	3c020041 	lui	v0,0x41
  405a90:	8c420000 	lw	v0,0(v0)
  405a94:	00000000 	nop
  405a98:	8c420004 	lw	v0,4(v0)
  405a9c:	8fc30008 	lw	v1,8(s8)
  405aa0:	00000000 	nop
  405aa4:	0062102b 	sltu	v0,v1,v0
  405aa8:	10400017 	beqz	v0,405b08 <free_block+0xb0>
  405aac:	00000000 	nop
/home/git/21373271/21373271/fs/fs.c:199
  405ab0:	3c020041 	lui	v0,0x41
  405ab4:	8c440004 	lw	a0,4(v0)
  405ab8:	8fc20008 	lw	v0,8(s8)
  405abc:	00000000 	nop
  405ac0:	00021142 	srl	v0,v0,0x5
  405ac4:	00021880 	sll	v1,v0,0x2
  405ac8:	00831821 	addu	v1,a0,v1
  405acc:	8c630000 	lw	v1,0(v1)
  405ad0:	8fc40008 	lw	a0,8(s8)
  405ad4:	00000000 	nop
  405ad8:	3084001f 	andi	a0,a0,0x1f
  405adc:	24050001 	li	a1,1
  405ae0:	00852004 	sllv	a0,a1,a0
  405ae4:	00802825 	move	a1,a0
  405ae8:	3c040041 	lui	a0,0x41
  405aec:	8c840004 	lw	a0,4(a0)
  405af0:	00021080 	sll	v0,v0,0x2
  405af4:	00821021 	addu	v0,a0,v0
  405af8:	00651825 	or	v1,v1,a1
  405afc:	ac430000 	sw	v1,0(v0)
  405b00:	10000002 	b	405b0c <free_block+0xb4>
  405b04:	00000000 	nop
/home/git/21373271/21373271/fs/fs.c:197
  405b08:	00000000 	nop
/home/git/21373271/21373271/fs/fs.c:204
  405b0c:	03c0e825 	move	sp,s8
  405b10:	8fbe0004 	lw	s8,4(sp)
  405b14:	27bd0008 	addiu	sp,sp,8
  405b18:	03e00008 	jr	ra
  405b1c:	00000000 	nop

00405b20 <alloc_block_num>:
alloc_block_num():
/home/git/21373271/21373271/fs/fs.c:212
  405b20:	27bdffe0 	addiu	sp,sp,-32
  405b24:	afbf001c 	sw	ra,28(sp)
  405b28:	afbe0018 	sw	s8,24(sp)
  405b2c:	03a0f025 	move	s8,sp
/home/git/21373271/21373271/fs/fs.c:216
  405b30:	24020003 	li	v0,3
  405b34:	afc20010 	sw	v0,16(s8)
  405b38:	10000050 	b	405c7c <alloc_block_num+0x15c>
  405b3c:	00000000 	nop
/home/git/21373271/21373271/fs/fs.c:217
  405b40:	3c020041 	lui	v0,0x41
  405b44:	8c430004 	lw	v1,4(v0)
  405b48:	8fc20010 	lw	v0,16(s8)
  405b4c:	00000000 	nop
  405b50:	04410002 	bgez	v0,405b5c <alloc_block_num+0x3c>
  405b54:	00000000 	nop
  405b58:	2442001f 	addiu	v0,v0,31
  405b5c:	00021143 	sra	v0,v0,0x5
  405b60:	00021080 	sll	v0,v0,0x2
  405b64:	00621021 	addu	v0,v1,v0
  405b68:	8c430000 	lw	v1,0(v0)
  405b6c:	8fc40010 	lw	a0,16(s8)
  405b70:	3c028000 	lui	v0,0x8000
  405b74:	3442001f 	ori	v0,v0,0x1f
  405b78:	00821024 	and	v0,a0,v0
  405b7c:	04410005 	bgez	v0,405b94 <alloc_block_num+0x74>
  405b80:	00000000 	nop
  405b84:	2442ffff 	addiu	v0,v0,-1
  405b88:	2404ffe0 	li	a0,-32
  405b8c:	00441025 	or	v0,v0,a0
  405b90:	24420001 	addiu	v0,v0,1
  405b94:	00402025 	move	a0,v0
  405b98:	24020001 	li	v0,1
  405b9c:	00821004 	sllv	v0,v0,a0
  405ba0:	00621024 	and	v0,v1,v0
  405ba4:	10400031 	beqz	v0,405c6c <alloc_block_num+0x14c>
  405ba8:	00000000 	nop
/home/git/21373271/21373271/fs/fs.c:218
  405bac:	3c020041 	lui	v0,0x41
  405bb0:	8c430004 	lw	v1,4(v0)
  405bb4:	8fc20010 	lw	v0,16(s8)
  405bb8:	00000000 	nop
  405bbc:	04410002 	bgez	v0,405bc8 <alloc_block_num+0xa8>
  405bc0:	00000000 	nop
  405bc4:	2442001f 	addiu	v0,v0,31
  405bc8:	00021143 	sra	v0,v0,0x5
  405bcc:	00403025 	move	a2,v0
  405bd0:	00c01025 	move	v0,a2
  405bd4:	00021080 	sll	v0,v0,0x2
  405bd8:	00621021 	addu	v0,v1,v0
  405bdc:	8c430000 	lw	v1,0(v0)
  405be0:	8fc40010 	lw	a0,16(s8)
  405be4:	3c028000 	lui	v0,0x8000
  405be8:	3442001f 	ori	v0,v0,0x1f
  405bec:	00821024 	and	v0,a0,v0
  405bf0:	04410005 	bgez	v0,405c08 <alloc_block_num+0xe8>
  405bf4:	00000000 	nop
  405bf8:	2442ffff 	addiu	v0,v0,-1
  405bfc:	2404ffe0 	li	a0,-32
  405c00:	00441025 	or	v0,v0,a0
  405c04:	24420001 	addiu	v0,v0,1
  405c08:	00402025 	move	a0,v0
  405c0c:	24020001 	li	v0,1
  405c10:	00821004 	sllv	v0,v0,a0
  405c14:	00021027 	nor	v0,zero,v0
  405c18:	00402825 	move	a1,v0
  405c1c:	3c020041 	lui	v0,0x41
  405c20:	8c440004 	lw	a0,4(v0)
  405c24:	00c01025 	move	v0,a2
  405c28:	00021080 	sll	v0,v0,0x2
  405c2c:	00821021 	addu	v0,a0,v0
  405c30:	00651824 	and	v1,v1,a1
  405c34:	ac430000 	sw	v1,0(v0)
/home/git/21373271/21373271/fs/fs.c:219
  405c38:	8fc20010 	lw	v0,16(s8)
  405c3c:	00000000 	nop
  405c40:	04410002 	bgez	v0,405c4c <alloc_block_num+0x12c>
  405c44:	00000000 	nop
  405c48:	24427fff 	addiu	v0,v0,32767
  405c4c:	000213c3 	sra	v0,v0,0xf
  405c50:	24420002 	addiu	v0,v0,2
  405c54:	00402025 	move	a0,v0
  405c58:	0c10158f 	jal	40563c <write_block>
  405c5c:	00000000 	nop
/home/git/21373271/21373271/fs/fs.c:220
  405c60:	8fc20010 	lw	v0,16(s8)
  405c64:	1000000f 	b	405ca4 <alloc_block_num+0x184>
  405c68:	00000000 	nop
/home/git/21373271/21373271/fs/fs.c:216 (discriminator 2)
  405c6c:	8fc20010 	lw	v0,16(s8)
  405c70:	00000000 	nop
  405c74:	24420001 	addiu	v0,v0,1
  405c78:	afc20010 	sw	v0,16(s8)
/home/git/21373271/21373271/fs/fs.c:216 (discriminator 1)
  405c7c:	3c020041 	lui	v0,0x41
  405c80:	8c420000 	lw	v0,0(v0)
  405c84:	00000000 	nop
  405c88:	8c430004 	lw	v1,4(v0)
  405c8c:	8fc20010 	lw	v0,16(s8)
  405c90:	00000000 	nop
  405c94:	0043102b 	sltu	v0,v0,v1
  405c98:	1440ffa9 	bnez	v0,405b40 <alloc_block_num+0x20>
  405c9c:	00000000 	nop
/home/git/21373271/21373271/fs/fs.c:224
  405ca0:	2402fff8 	li	v0,-8
/home/git/21373271/21373271/fs/fs.c:225
  405ca4:	03c0e825 	move	sp,s8
  405ca8:	8fbf001c 	lw	ra,28(sp)
  405cac:	8fbe0018 	lw	s8,24(sp)
  405cb0:	27bd0020 	addiu	sp,sp,32
  405cb4:	03e00008 	jr	ra
  405cb8:	00000000 	nop

00405cbc <alloc_block>:
alloc_block():
/home/git/21373271/21373271/fs/fs.c:229
  405cbc:	27bdffe0 	addiu	sp,sp,-32
  405cc0:	afbf001c 	sw	ra,28(sp)
  405cc4:	afbe0018 	sw	s8,24(sp)
  405cc8:	03a0f025 	move	s8,sp
/home/git/21373271/21373271/fs/fs.c:232
  405ccc:	0c1016c8 	jal	405b20 <alloc_block_num>
  405cd0:	00000000 	nop
  405cd4:	afc20010 	sw	v0,16(s8)
  405cd8:	8fc20010 	lw	v0,16(s8)
  405cdc:	00000000 	nop
  405ce0:	04410004 	bgez	v0,405cf4 <alloc_block+0x38>
  405ce4:	00000000 	nop
/home/git/21373271/21373271/fs/fs.c:233
  405ce8:	8fc20010 	lw	v0,16(s8)
  405cec:	10000017 	b	405d4c <alloc_block+0x90>
  405cf0:	00000000 	nop
/home/git/21373271/21373271/fs/fs.c:235
  405cf4:	8fc20010 	lw	v0,16(s8)
  405cf8:	00000000 	nop
  405cfc:	afc20014 	sw	v0,20(s8)
/home/git/21373271/21373271/fs/fs.c:238
  405d00:	8fc20014 	lw	v0,20(s8)
  405d04:	00000000 	nop
  405d08:	00402025 	move	a0,v0
  405d0c:	0c10161a 	jal	405868 <map_block>
  405d10:	00000000 	nop
  405d14:	afc20010 	sw	v0,16(s8)
  405d18:	8fc20010 	lw	v0,16(s8)
  405d1c:	00000000 	nop
  405d20:	04410009 	bgez	v0,405d48 <alloc_block+0x8c>
  405d24:	00000000 	nop
/home/git/21373271/21373271/fs/fs.c:239
  405d28:	8fc20014 	lw	v0,20(s8)
  405d2c:	00000000 	nop
  405d30:	00402025 	move	a0,v0
  405d34:	0c101696 	jal	405a58 <free_block>
  405d38:	00000000 	nop
/home/git/21373271/21373271/fs/fs.c:240
  405d3c:	8fc20010 	lw	v0,16(s8)
  405d40:	10000002 	b	405d4c <alloc_block+0x90>
  405d44:	00000000 	nop
/home/git/21373271/21373271/fs/fs.c:244
  405d48:	8fc20014 	lw	v0,20(s8)
/home/git/21373271/21373271/fs/fs.c:245
  405d4c:	03c0e825 	move	sp,s8
  405d50:	8fbf001c 	lw	ra,28(sp)
  405d54:	8fbe0018 	lw	s8,24(sp)
  405d58:	27bd0020 	addiu	sp,sp,32
  405d5c:	03e00008 	jr	ra
  405d60:	00000000 	nop

00405d64 <read_super>:
read_super():
/home/git/21373271/21373271/fs/fs.c:252
  405d64:	27bdffd8 	addiu	sp,sp,-40
  405d68:	afbf0024 	sw	ra,36(sp)
  405d6c:	afbe0020 	sw	s8,32(sp)
  405d70:	03a0f025 	move	s8,sp
/home/git/21373271/21373271/fs/fs.c:257
  405d74:	27c2001c 	addiu	v0,s8,28
  405d78:	00003025 	move	a2,zero
  405d7c:	00402825 	move	a1,v0
  405d80:	24040001 	li	a0,1
  405d84:	0c1015b5 	jal	4056d4 <read_block>
  405d88:	00000000 	nop
  405d8c:	afc20018 	sw	v0,24(s8)
  405d90:	8fc20018 	lw	v0,24(s8)
  405d94:	00000000 	nop
  405d98:	04410009 	bgez	v0,405dc0 <read_super+0x5c>
  405d9c:	00000000 	nop
/home/git/21373271/21373271/fs/fs.c:258
  405da0:	8fc70018 	lw	a3,24(s8)
  405da4:	3c020040 	lui	v0,0x40
  405da8:	24467ce8 	addiu	a2,v0,31976
  405dac:	24050102 	li	a1,258
  405db0:	3c020040 	lui	v0,0x40
  405db4:	24447c6c 	addiu	a0,v0,31852
  405db8:	0c100393 	jal	400e4c <_user_panic>
  405dbc:	00000000 	nop
/home/git/21373271/21373271/fs/fs.c:261
  405dc0:	8fc3001c 	lw	v1,28(s8)
  405dc4:	3c020041 	lui	v0,0x41
  405dc8:	ac430000 	sw	v1,0(v0)
/home/git/21373271/21373271/fs/fs.c:264
  405dcc:	3c020041 	lui	v0,0x41
  405dd0:	8c420000 	lw	v0,0(v0)
  405dd4:	00000000 	nop
  405dd8:	8c430000 	lw	v1,0(v0)
  405ddc:	3c026828 	lui	v0,0x6828
  405de0:	34426097 	ori	v0,v0,0x6097
  405de4:	10620010 	beq	v1,v0,405e28 <read_super+0xc4>
  405de8:	00000000 	nop
/home/git/21373271/21373271/fs/fs.c:265
  405dec:	3c020041 	lui	v0,0x41
  405df0:	8c420000 	lw	v0,0(v0)
  405df4:	00000000 	nop
  405df8:	8c430000 	lw	v1,0(v0)
  405dfc:	3c026828 	lui	v0,0x6828
  405e00:	34426097 	ori	v0,v0,0x6097
  405e04:	afa20010 	sw	v0,16(sp)
  405e08:	00603825 	move	a3,v1
  405e0c:	3c020040 	lui	v0,0x40
  405e10:	24467d04 	addiu	a2,v0,32004
  405e14:	24050109 	li	a1,265
  405e18:	3c020040 	lui	v0,0x40
  405e1c:	24447c6c 	addiu	a0,v0,31852
  405e20:	0c100393 	jal	400e4c <_user_panic>
  405e24:	00000000 	nop
/home/git/21373271/21373271/fs/fs.c:269
  405e28:	3c020041 	lui	v0,0x41
  405e2c:	8c420000 	lw	v0,0(v0)
  405e30:	00000000 	nop
  405e34:	8c430004 	lw	v1,4(v0)
  405e38:	3c020004 	lui	v0,0x4
  405e3c:	34420001 	ori	v0,v0,0x1
  405e40:	0062102b 	sltu	v0,v1,v0
  405e44:	14400008 	bnez	v0,405e68 <read_super+0x104>
  405e48:	00000000 	nop
/home/git/21373271/21373271/fs/fs.c:270
  405e4c:	3c020040 	lui	v0,0x40
  405e50:	24467d28 	addiu	a2,v0,32040
  405e54:	2405010e 	li	a1,270
  405e58:	3c020040 	lui	v0,0x40
  405e5c:	24447c6c 	addiu	a0,v0,31852
  405e60:	0c100393 	jal	400e4c <_user_panic>
  405e64:	00000000 	nop
/home/git/21373271/21373271/fs/fs.c:273
  405e68:	3c020040 	lui	v0,0x40
  405e6c:	24447d44 	addiu	a0,v0,32068
  405e70:	0c10037c 	jal	400df0 <debugf>
  405e74:	00000000 	nop
/home/git/21373271/21373271/fs/fs.c:274
  405e78:	00000000 	nop
  405e7c:	03c0e825 	move	sp,s8
  405e80:	8fbf0024 	lw	ra,36(sp)
  405e84:	8fbe0020 	lw	s8,32(sp)
  405e88:	27bd0028 	addiu	sp,sp,40
  405e8c:	03e00008 	jr	ra
  405e90:	00000000 	nop

00405e94 <read_bitmap>:
read_bitmap():
/home/git/21373271/21373271/fs/fs.c:283
  405e94:	27bdffd8 	addiu	sp,sp,-40
  405e98:	afbf0024 	sw	ra,36(sp)
  405e9c:	afbe0020 	sw	s8,32(sp)
  405ea0:	03a0f025 	move	s8,sp
/home/git/21373271/21373271/fs/fs.c:285
  405ea4:	afc00014 	sw	zero,20(s8)
/home/git/21373271/21373271/fs/fs.c:288
  405ea8:	3c020041 	lui	v0,0x41
  405eac:	8c420000 	lw	v0,0(v0)
  405eb0:	00000000 	nop
  405eb4:	8c420004 	lw	v0,4(v0)
  405eb8:	00000000 	nop
  405ebc:	000213c2 	srl	v0,v0,0xf
  405ec0:	24420001 	addiu	v0,v0,1
  405ec4:	afc20018 	sw	v0,24(s8)
/home/git/21373271/21373271/fs/fs.c:289
  405ec8:	afc00010 	sw	zero,16(s8)
  405ecc:	1000000d 	b	405f04 <read_bitmap+0x70>
  405ed0:	00000000 	nop
/home/git/21373271/21373271/fs/fs.c:290 (discriminator 3)
  405ed4:	8fc20010 	lw	v0,16(s8)
  405ed8:	00000000 	nop
  405edc:	24420002 	addiu	v0,v0,2
  405ee0:	00003025 	move	a2,zero
  405ee4:	8fc50014 	lw	a1,20(s8)
  405ee8:	00402025 	move	a0,v0
  405eec:	0c1015b5 	jal	4056d4 <read_block>
  405ef0:	00000000 	nop
/home/git/21373271/21373271/fs/fs.c:289 (discriminator 3)
  405ef4:	8fc20010 	lw	v0,16(s8)
  405ef8:	00000000 	nop
  405efc:	24420001 	addiu	v0,v0,1
  405f00:	afc20010 	sw	v0,16(s8)
/home/git/21373271/21373271/fs/fs.c:289 (discriminator 1)
  405f04:	8fc30010 	lw	v1,16(s8)
  405f08:	8fc20018 	lw	v0,24(s8)
  405f0c:	00000000 	nop
  405f10:	0062102b 	sltu	v0,v1,v0
  405f14:	1440ffef 	bnez	v0,405ed4 <read_bitmap+0x40>
  405f18:	00000000 	nop
/home/git/21373271/21373271/fs/fs.c:293
  405f1c:	24040002 	li	a0,2
  405f20:	0c1014f0 	jal	4053c0 <diskaddr>
  405f24:	00000000 	nop
  405f28:	00401825 	move	v1,v0
  405f2c:	3c020041 	lui	v0,0x41
  405f30:	ac430004 	sw	v1,4(v0)
/home/git/21373271/21373271/fs/fs.c:297
  405f34:	00002025 	move	a0,zero
  405f38:	0c101668 	jal	4059a0 <block_is_free>
  405f3c:	00000000 	nop
  405f40:	1040000a 	beqz	v0,405f6c <read_bitmap+0xd8>
  405f44:	00000000 	nop
/home/git/21373271/21373271/fs/fs.c:297 (discriminator 1)
  405f48:	3c020040 	lui	v0,0x40
  405f4c:	24477d58 	addiu	a3,v0,32088
  405f50:	3c020040 	lui	v0,0x40
  405f54:	24467cd0 	addiu	a2,v0,31952
  405f58:	24050129 	li	a1,297
  405f5c:	3c020040 	lui	v0,0x40
  405f60:	24447c6c 	addiu	a0,v0,31852
  405f64:	0c100393 	jal	400e4c <_user_panic>
  405f68:	00000000 	nop
/home/git/21373271/21373271/fs/fs.c:298
  405f6c:	24040001 	li	a0,1
  405f70:	0c101668 	jal	4059a0 <block_is_free>
  405f74:	00000000 	nop
  405f78:	1040000a 	beqz	v0,405fa4 <read_bitmap+0x110>
  405f7c:	00000000 	nop
/home/git/21373271/21373271/fs/fs.c:298 (discriminator 1)
  405f80:	3c020040 	lui	v0,0x40
  405f84:	24477d6c 	addiu	a3,v0,32108
  405f88:	3c020040 	lui	v0,0x40
  405f8c:	24467cd0 	addiu	a2,v0,31952
  405f90:	2405012a 	li	a1,298
  405f94:	3c020040 	lui	v0,0x40
  405f98:	24447c6c 	addiu	a0,v0,31852
  405f9c:	0c100393 	jal	400e4c <_user_panic>
  405fa0:	00000000 	nop
/home/git/21373271/21373271/fs/fs.c:301
  405fa4:	afc00010 	sw	zero,16(s8)
  405fa8:	10000016 	b	406004 <read_bitmap+0x170>
  405fac:	00000000 	nop
/home/git/21373271/21373271/fs/fs.c:302
  405fb0:	8fc20010 	lw	v0,16(s8)
  405fb4:	00000000 	nop
  405fb8:	24420002 	addiu	v0,v0,2
  405fbc:	00402025 	move	a0,v0
  405fc0:	0c101668 	jal	4059a0 <block_is_free>
  405fc4:	00000000 	nop
  405fc8:	1040000a 	beqz	v0,405ff4 <read_bitmap+0x160>
  405fcc:	00000000 	nop
/home/git/21373271/21373271/fs/fs.c:302 (discriminator 1)
  405fd0:	3c020040 	lui	v0,0x40
  405fd4:	24477d80 	addiu	a3,v0,32128
  405fd8:	3c020040 	lui	v0,0x40
  405fdc:	24467cd0 	addiu	a2,v0,31952
  405fe0:	2405012e 	li	a1,302
  405fe4:	3c020040 	lui	v0,0x40
  405fe8:	24447c6c 	addiu	a0,v0,31852
  405fec:	0c100393 	jal	400e4c <_user_panic>
  405ff0:	00000000 	nop
/home/git/21373271/21373271/fs/fs.c:301 (discriminator 2)
  405ff4:	8fc20010 	lw	v0,16(s8)
  405ff8:	00000000 	nop
  405ffc:	24420001 	addiu	v0,v0,1
  406000:	afc20010 	sw	v0,16(s8)
/home/git/21373271/21373271/fs/fs.c:301 (discriminator 1)
  406004:	8fc30010 	lw	v1,16(s8)
  406008:	8fc20018 	lw	v0,24(s8)
  40600c:	00000000 	nop
  406010:	0062102b 	sltu	v0,v1,v0
  406014:	1440ffe6 	bnez	v0,405fb0 <read_bitmap+0x11c>
  406018:	00000000 	nop
/home/git/21373271/21373271/fs/fs.c:305
  40601c:	3c020040 	lui	v0,0x40
  406020:	24447d98 	addiu	a0,v0,32152
  406024:	0c10037c 	jal	400df0 <debugf>
  406028:	00000000 	nop
/home/git/21373271/21373271/fs/fs.c:306
  40602c:	00000000 	nop
  406030:	03c0e825 	move	sp,s8
  406034:	8fbf0024 	lw	ra,36(sp)
  406038:	8fbe0020 	lw	s8,32(sp)
  40603c:	27bd0028 	addiu	sp,sp,40
  406040:	03e00008 	jr	ra
  406044:	00000000 	nop

00406048 <check_write_block>:
check_write_block():
/home/git/21373271/21373271/fs/fs.c:310
  406048:	27bdffe0 	addiu	sp,sp,-32
  40604c:	afbf001c 	sw	ra,28(sp)
  406050:	afbe0018 	sw	s8,24(sp)
  406054:	afb00014 	sw	s0,20(sp)
  406058:	03a0f025 	move	s8,sp
/home/git/21373271/21373271/fs/fs.c:311
  40605c:	3c020041 	lui	v0,0x41
  406060:	ac400000 	sw	zero,0(v0)
/home/git/21373271/21373271/fs/fs.c:315
  406064:	00003025 	move	a2,zero
  406068:	00002825 	move	a1,zero
  40606c:	00002025 	move	a0,zero
  406070:	0c1015b5 	jal	4056d4 <read_block>
  406074:	00000000 	nop
/home/git/21373271/21373271/fs/fs.c:316
  406078:	00002025 	move	a0,zero
  40607c:	0c1014f0 	jal	4053c0 <diskaddr>
  406080:	00000000 	nop
  406084:	00408025 	move	s0,v0
  406088:	24040001 	li	a0,1
  40608c:	0c1014f0 	jal	4053c0 <diskaddr>
  406090:	00000000 	nop
  406094:	24061000 	li	a2,4096
  406098:	00402825 	move	a1,v0
  40609c:	02002025 	move	a0,s0
  4060a0:	0c101384 	jal	404e10 <memcpy>
  4060a4:	00000000 	nop
/home/git/21373271/21373271/fs/fs.c:319
  4060a8:	24040001 	li	a0,1
  4060ac:	0c1014f0 	jal	4053c0 <diskaddr>
  4060b0:	00000000 	nop
  4060b4:	00401825 	move	v1,v0
  4060b8:	3c020040 	lui	v0,0x40
  4060bc:	24457db0 	addiu	a1,v0,32176
  4060c0:	00602025 	move	a0,v1
  4060c4:	0c10146b 	jal	4051ac <strcpy>
  4060c8:	00000000 	nop
/home/git/21373271/21373271/fs/fs.c:320
  4060cc:	24040001 	li	a0,1
  4060d0:	0c10158f 	jal	40563c <write_block>
  4060d4:	00000000 	nop
/home/git/21373271/21373271/fs/fs.c:321
  4060d8:	24040001 	li	a0,1
  4060dc:	0c101521 	jal	405484 <block_is_mapped>
  4060e0:	00000000 	nop
  4060e4:	1440000a 	bnez	v0,406110 <check_write_block+0xc8>
  4060e8:	00000000 	nop
/home/git/21373271/21373271/fs/fs.c:321 (discriminator 1)
  4060ec:	3c020040 	lui	v0,0x40
  4060f0:	24477db8 	addiu	a3,v0,32184
  4060f4:	3c020040 	lui	v0,0x40
  4060f8:	24467cd0 	addiu	a2,v0,31952
  4060fc:	24050141 	li	a1,321
  406100:	3c020040 	lui	v0,0x40
  406104:	24447c6c 	addiu	a0,v0,31852
  406108:	0c100393 	jal	400e4c <_user_panic>
  40610c:	00000000 	nop
/home/git/21373271/21373271/fs/fs.c:324
  406110:	24040001 	li	a0,1
  406114:	0c1014f0 	jal	4053c0 <diskaddr>
  406118:	00000000 	nop
  40611c:	00402825 	move	a1,v0
  406120:	00002025 	move	a0,zero
  406124:	0c100591 	jal	401644 <syscall_mem_unmap>
  406128:	00000000 	nop
/home/git/21373271/21373271/fs/fs.c:325
  40612c:	24040001 	li	a0,1
  406130:	0c101521 	jal	405484 <block_is_mapped>
  406134:	00000000 	nop
  406138:	1040000a 	beqz	v0,406164 <check_write_block+0x11c>
  40613c:	00000000 	nop
/home/git/21373271/21373271/fs/fs.c:325 (discriminator 1)
  406140:	3c020040 	lui	v0,0x40
  406144:	24477dcc 	addiu	a3,v0,32204
  406148:	3c020040 	lui	v0,0x40
  40614c:	24467cd0 	addiu	a2,v0,31952
  406150:	24050145 	li	a1,325
  406154:	3c020040 	lui	v0,0x40
  406158:	24447c6c 	addiu	a0,v0,31852
  40615c:	0c100393 	jal	400e4c <_user_panic>
  406160:	00000000 	nop
/home/git/21373271/21373271/fs/fs.c:328
  406164:	00003025 	move	a2,zero
  406168:	00002825 	move	a1,zero
  40616c:	24040001 	li	a0,1
  406170:	0c1015b5 	jal	4056d4 <read_block>
  406174:	00000000 	nop
/home/git/21373271/21373271/fs/fs.c:329
  406178:	24040001 	li	a0,1
  40617c:	0c1014f0 	jal	4053c0 <diskaddr>
  406180:	00000000 	nop
  406184:	00401825 	move	v1,v0
  406188:	3c020040 	lui	v0,0x40
  40618c:	24457db0 	addiu	a1,v0,32176
  406190:	00602025 	move	a0,v1
  406194:	0c1014ac 	jal	4052b0 <strcmp>
  406198:	00000000 	nop
  40619c:	1040000a 	beqz	v0,4061c8 <check_write_block+0x180>
  4061a0:	00000000 	nop
/home/git/21373271/21373271/fs/fs.c:329 (discriminator 1)
  4061a4:	3c020040 	lui	v0,0x40
  4061a8:	24477de0 	addiu	a3,v0,32224
  4061ac:	3c020040 	lui	v0,0x40
  4061b0:	24467cd0 	addiu	a2,v0,31952
  4061b4:	24050149 	li	a1,329
  4061b8:	3c020040 	lui	v0,0x40
  4061bc:	24447c6c 	addiu	a0,v0,31852
  4061c0:	0c100393 	jal	400e4c <_user_panic>
  4061c4:	00000000 	nop
/home/git/21373271/21373271/fs/fs.c:332
  4061c8:	24040001 	li	a0,1
  4061cc:	0c1014f0 	jal	4053c0 <diskaddr>
  4061d0:	00000000 	nop
  4061d4:	00408025 	move	s0,v0
  4061d8:	00002025 	move	a0,zero
  4061dc:	0c1014f0 	jal	4053c0 <diskaddr>
  4061e0:	00000000 	nop
  4061e4:	24061000 	li	a2,4096
  4061e8:	00402825 	move	a1,v0
  4061ec:	02002025 	move	a0,s0
  4061f0:	0c101384 	jal	404e10 <memcpy>
  4061f4:	00000000 	nop
/home/git/21373271/21373271/fs/fs.c:333
  4061f8:	24040001 	li	a0,1
  4061fc:	0c10158f 	jal	40563c <write_block>
  406200:	00000000 	nop
/home/git/21373271/21373271/fs/fs.c:334
  406204:	24040001 	li	a0,1
  406208:	0c1014f0 	jal	4053c0 <diskaddr>
  40620c:	00000000 	nop
  406210:	00401825 	move	v1,v0
  406214:	3c020041 	lui	v0,0x41
  406218:	ac430000 	sw	v1,0(v0)
/home/git/21373271/21373271/fs/fs.c:335
  40621c:	00000000 	nop
  406220:	03c0e825 	move	sp,s8
  406224:	8fbf001c 	lw	ra,28(sp)
  406228:	8fbe0018 	lw	s8,24(sp)
  40622c:	8fb00014 	lw	s0,20(sp)
  406230:	27bd0020 	addiu	sp,sp,32
  406234:	03e00008 	jr	ra
  406238:	00000000 	nop

0040623c <fs_init>:
fs_init():
/home/git/21373271/21373271/fs/fs.c:343
  40623c:	27bdffe8 	addiu	sp,sp,-24
  406240:	afbf0014 	sw	ra,20(sp)
  406244:	afbe0010 	sw	s8,16(sp)
  406248:	03a0f025 	move	s8,sp
/home/git/21373271/21373271/fs/fs.c:344
  40624c:	0c101759 	jal	405d64 <read_super>
  406250:	00000000 	nop
/home/git/21373271/21373271/fs/fs.c:345
  406254:	0c101812 	jal	406048 <check_write_block>
  406258:	00000000 	nop
/home/git/21373271/21373271/fs/fs.c:346
  40625c:	0c1017a5 	jal	405e94 <read_bitmap>
  406260:	00000000 	nop
/home/git/21373271/21373271/fs/fs.c:347
  406264:	00000000 	nop
  406268:	03c0e825 	move	sp,s8
  40626c:	8fbf0014 	lw	ra,20(sp)
  406270:	8fbe0010 	lw	s8,16(sp)
  406274:	27bd0018 	addiu	sp,sp,24
  406278:	03e00008 	jr	ra
  40627c:	00000000 	nop

00406280 <file_block_walk>:
file_block_walk():
/home/git/21373271/21373271/fs/fs.c:362
  406280:	27bdffd8 	addiu	sp,sp,-40
  406284:	afbf0024 	sw	ra,36(sp)
  406288:	afbe0020 	sw	s8,32(sp)
  40628c:	03a0f025 	move	s8,sp
  406290:	afc40028 	sw	a0,40(s8)
  406294:	afc5002c 	sw	a1,44(s8)
  406298:	afc60030 	sw	a2,48(s8)
  40629c:	afc70034 	sw	a3,52(s8)
/home/git/21373271/21373271/fs/fs.c:367
  4062a0:	8fc2002c 	lw	v0,44(s8)
  4062a4:	00000000 	nop
  4062a8:	2c42000a 	sltiu	v0,v0,10
  4062ac:	1040000b 	beqz	v0,4062dc <file_block_walk+0x5c>
  4062b0:	00000000 	nop
/home/git/21373271/21373271/fs/fs.c:370
  4062b4:	8fc2002c 	lw	v0,44(s8)
  4062b8:	00000000 	nop
  4062bc:	24420022 	addiu	v0,v0,34
  4062c0:	00021080 	sll	v0,v0,0x2
  4062c4:	8fc30028 	lw	v1,40(s8)
  4062c8:	00000000 	nop
  4062cc:	00621021 	addu	v0,v1,v0
  4062d0:	afc20010 	sw	v0,16(s8)
  4062d4:	1000003d 	b	4063cc <file_block_walk+0x14c>
  4062d8:	00000000 	nop
/home/git/21373271/21373271/fs/fs.c:371
  4062dc:	8fc2002c 	lw	v0,44(s8)
  4062e0:	00000000 	nop
  4062e4:	2c420400 	sltiu	v0,v0,1024
  4062e8:	10400035 	beqz	v0,4063c0 <file_block_walk+0x140>
  4062ec:	00000000 	nop
/home/git/21373271/21373271/fs/fs.c:374
  4062f0:	8fc20028 	lw	v0,40(s8)
  4062f4:	00000000 	nop
  4062f8:	8c4200b0 	lw	v0,176(v0)
  4062fc:	00000000 	nop
  406300:	14400016 	bnez	v0,40635c <file_block_walk+0xdc>
  406304:	00000000 	nop
/home/git/21373271/21373271/fs/fs.c:375
  406308:	8fc20034 	lw	v0,52(s8)
  40630c:	00000000 	nop
  406310:	14400004 	bnez	v0,406324 <file_block_walk+0xa4>
  406314:	00000000 	nop
/home/git/21373271/21373271/fs/fs.c:376
  406318:	2402fff6 	li	v0,-10
  40631c:	10000030 	b	4063e0 <file_block_walk+0x160>
  406320:	00000000 	nop
/home/git/21373271/21373271/fs/fs.c:379
  406324:	0c10172f 	jal	405cbc <alloc_block>
  406328:	00000000 	nop
  40632c:	afc20014 	sw	v0,20(s8)
  406330:	8fc20014 	lw	v0,20(s8)
  406334:	00000000 	nop
  406338:	04410004 	bgez	v0,40634c <file_block_walk+0xcc>
  40633c:	00000000 	nop
/home/git/21373271/21373271/fs/fs.c:380
  406340:	8fc20014 	lw	v0,20(s8)
  406344:	10000026 	b	4063e0 <file_block_walk+0x160>
  406348:	00000000 	nop
/home/git/21373271/21373271/fs/fs.c:382
  40634c:	8fc30014 	lw	v1,20(s8)
  406350:	8fc20028 	lw	v0,40(s8)
  406354:	00000000 	nop
  406358:	ac4300b0 	sw	v1,176(v0)
/home/git/21373271/21373271/fs/fs.c:386
  40635c:	8fc20028 	lw	v0,40(s8)
  406360:	00000000 	nop
  406364:	8c4200b0 	lw	v0,176(v0)
  406368:	27c30018 	addiu	v1,s8,24
  40636c:	00003025 	move	a2,zero
  406370:	00602825 	move	a1,v1
  406374:	00402025 	move	a0,v0
  406378:	0c1015b5 	jal	4056d4 <read_block>
  40637c:	00000000 	nop
  406380:	afc20014 	sw	v0,20(s8)
  406384:	8fc20014 	lw	v0,20(s8)
  406388:	00000000 	nop
  40638c:	04410004 	bgez	v0,4063a0 <file_block_walk+0x120>
  406390:	00000000 	nop
/home/git/21373271/21373271/fs/fs.c:387
  406394:	8fc20014 	lw	v0,20(s8)
  406398:	10000011 	b	4063e0 <file_block_walk+0x160>
  40639c:	00000000 	nop
/home/git/21373271/21373271/fs/fs.c:389
  4063a0:	8fc30018 	lw	v1,24(s8)
  4063a4:	8fc2002c 	lw	v0,44(s8)
  4063a8:	00000000 	nop
  4063ac:	00021080 	sll	v0,v0,0x2
  4063b0:	00621021 	addu	v0,v1,v0
  4063b4:	afc20010 	sw	v0,16(s8)
  4063b8:	10000004 	b	4063cc <file_block_walk+0x14c>
  4063bc:	00000000 	nop
/home/git/21373271/21373271/fs/fs.c:391
  4063c0:	2402fffd 	li	v0,-3
  4063c4:	10000006 	b	4063e0 <file_block_walk+0x160>
  4063c8:	00000000 	nop
/home/git/21373271/21373271/fs/fs.c:395
  4063cc:	8fc20030 	lw	v0,48(s8)
  4063d0:	8fc30010 	lw	v1,16(s8)
  4063d4:	00000000 	nop
  4063d8:	ac430000 	sw	v1,0(v0)
/home/git/21373271/21373271/fs/fs.c:396
  4063dc:	00001025 	move	v0,zero
/home/git/21373271/21373271/fs/fs.c:397 (discriminator 1)
  4063e0:	03c0e825 	move	sp,s8
  4063e4:	8fbf0024 	lw	ra,36(sp)
  4063e8:	8fbe0020 	lw	s8,32(sp)
  4063ec:	27bd0028 	addiu	sp,sp,40
  4063f0:	03e00008 	jr	ra
  4063f4:	00000000 	nop

004063f8 <file_map_block>:
file_map_block():
/home/git/21373271/21373271/fs/fs.c:410
  4063f8:	27bdffe0 	addiu	sp,sp,-32
  4063fc:	afbf001c 	sw	ra,28(sp)
  406400:	afbe0018 	sw	s8,24(sp)
  406404:	03a0f025 	move	s8,sp
  406408:	afc40020 	sw	a0,32(s8)
  40640c:	afc50024 	sw	a1,36(s8)
  406410:	afc60028 	sw	a2,40(s8)
  406414:	afc7002c 	sw	a3,44(s8)
/home/git/21373271/21373271/fs/fs.c:415
  406418:	27c20014 	addiu	v0,s8,20
  40641c:	8fc7002c 	lw	a3,44(s8)
  406420:	00403025 	move	a2,v0
  406424:	8fc50024 	lw	a1,36(s8)
  406428:	8fc40020 	lw	a0,32(s8)
  40642c:	0c1018a0 	jal	406280 <file_block_walk>
  406430:	00000000 	nop
  406434:	afc20010 	sw	v0,16(s8)
  406438:	8fc20010 	lw	v0,16(s8)
  40643c:	00000000 	nop
  406440:	04410004 	bgez	v0,406454 <file_map_block+0x5c>
  406444:	00000000 	nop
/home/git/21373271/21373271/fs/fs.c:416
  406448:	8fc20010 	lw	v0,16(s8)
  40644c:	10000023 	b	4064dc <file_map_block+0xe4>
  406450:	00000000 	nop
/home/git/21373271/21373271/fs/fs.c:420
  406454:	8fc20014 	lw	v0,20(s8)
  406458:	00000000 	nop
  40645c:	8c420000 	lw	v0,0(v0)
  406460:	00000000 	nop
  406464:	14400016 	bnez	v0,4064c0 <file_map_block+0xc8>
  406468:	00000000 	nop
/home/git/21373271/21373271/fs/fs.c:421
  40646c:	8fc2002c 	lw	v0,44(s8)
  406470:	00000000 	nop
  406474:	14400004 	bnez	v0,406488 <file_map_block+0x90>
  406478:	00000000 	nop
/home/git/21373271/21373271/fs/fs.c:422
  40647c:	2402fff6 	li	v0,-10
  406480:	10000016 	b	4064dc <file_map_block+0xe4>
  406484:	00000000 	nop
/home/git/21373271/21373271/fs/fs.c:425
  406488:	0c10172f 	jal	405cbc <alloc_block>
  40648c:	00000000 	nop
  406490:	afc20010 	sw	v0,16(s8)
  406494:	8fc20010 	lw	v0,16(s8)
  406498:	00000000 	nop
  40649c:	04410004 	bgez	v0,4064b0 <file_map_block+0xb8>
  4064a0:	00000000 	nop
/home/git/21373271/21373271/fs/fs.c:426
  4064a4:	8fc20010 	lw	v0,16(s8)
  4064a8:	1000000c 	b	4064dc <file_map_block+0xe4>
  4064ac:	00000000 	nop
/home/git/21373271/21373271/fs/fs.c:428
  4064b0:	8fc20014 	lw	v0,20(s8)
  4064b4:	8fc30010 	lw	v1,16(s8)
  4064b8:	00000000 	nop
  4064bc:	ac430000 	sw	v1,0(v0)
/home/git/21373271/21373271/fs/fs.c:432
  4064c0:	8fc20014 	lw	v0,20(s8)
  4064c4:	00000000 	nop
  4064c8:	8c430000 	lw	v1,0(v0)
  4064cc:	8fc20028 	lw	v0,40(s8)
  4064d0:	00000000 	nop
  4064d4:	ac430000 	sw	v1,0(v0)
/home/git/21373271/21373271/fs/fs.c:433
  4064d8:	00001025 	move	v0,zero
/home/git/21373271/21373271/fs/fs.c:434 (discriminator 1)
  4064dc:	03c0e825 	move	sp,s8
  4064e0:	8fbf001c 	lw	ra,28(sp)
  4064e4:	8fbe0018 	lw	s8,24(sp)
  4064e8:	27bd0020 	addiu	sp,sp,32
  4064ec:	03e00008 	jr	ra
  4064f0:	00000000 	nop

004064f4 <file_clear_block>:
file_clear_block():
/home/git/21373271/21373271/fs/fs.c:438
  4064f4:	27bdffe0 	addiu	sp,sp,-32
  4064f8:	afbf001c 	sw	ra,28(sp)
  4064fc:	afbe0018 	sw	s8,24(sp)
  406500:	03a0f025 	move	s8,sp
  406504:	afc40020 	sw	a0,32(s8)
  406508:	afc50024 	sw	a1,36(s8)
/home/git/21373271/21373271/fs/fs.c:442
  40650c:	27c20014 	addiu	v0,s8,20
  406510:	00003825 	move	a3,zero
  406514:	00403025 	move	a2,v0
  406518:	8fc50024 	lw	a1,36(s8)
  40651c:	8fc40020 	lw	a0,32(s8)
  406520:	0c1018a0 	jal	406280 <file_block_walk>
  406524:	00000000 	nop
  406528:	afc20010 	sw	v0,16(s8)
  40652c:	8fc20010 	lw	v0,16(s8)
  406530:	00000000 	nop
  406534:	04410004 	bgez	v0,406548 <file_clear_block+0x54>
  406538:	00000000 	nop
/home/git/21373271/21373271/fs/fs.c:443
  40653c:	8fc20010 	lw	v0,16(s8)
  406540:	10000012 	b	40658c <file_clear_block+0x98>
  406544:	00000000 	nop
/home/git/21373271/21373271/fs/fs.c:446
  406548:	8fc20014 	lw	v0,20(s8)
  40654c:	00000000 	nop
  406550:	8c420000 	lw	v0,0(v0)
  406554:	00000000 	nop
  406558:	1040000b 	beqz	v0,406588 <file_clear_block+0x94>
  40655c:	00000000 	nop
/home/git/21373271/21373271/fs/fs.c:447
  406560:	8fc20014 	lw	v0,20(s8)
  406564:	00000000 	nop
  406568:	8c420000 	lw	v0,0(v0)
  40656c:	00000000 	nop
  406570:	00402025 	move	a0,v0
  406574:	0c101696 	jal	405a58 <free_block>
  406578:	00000000 	nop
/home/git/21373271/21373271/fs/fs.c:448
  40657c:	8fc20014 	lw	v0,20(s8)
  406580:	00000000 	nop
  406584:	ac400000 	sw	zero,0(v0)
/home/git/21373271/21373271/fs/fs.c:451
  406588:	00001025 	move	v0,zero
/home/git/21373271/21373271/fs/fs.c:452 (discriminator 1)
  40658c:	03c0e825 	move	sp,s8
  406590:	8fbf001c 	lw	ra,28(sp)
  406594:	8fbe0018 	lw	s8,24(sp)
  406598:	27bd0020 	addiu	sp,sp,32
  40659c:	03e00008 	jr	ra
  4065a0:	00000000 	nop

004065a4 <file_get_block>:
file_get_block():
/home/git/21373271/21373271/fs/fs.c:461
  4065a4:	27bdffd8 	addiu	sp,sp,-40
  4065a8:	afbf0024 	sw	ra,36(sp)
  4065ac:	afbe0020 	sw	s8,32(sp)
  4065b0:	03a0f025 	move	s8,sp
  4065b4:	afc40028 	sw	a0,40(s8)
  4065b8:	afc5002c 	sw	a1,44(s8)
  4065bc:	afc60030 	sw	a2,48(s8)
/home/git/21373271/21373271/fs/fs.c:467
  4065c0:	27c20014 	addiu	v0,s8,20
  4065c4:	24070001 	li	a3,1
  4065c8:	00403025 	move	a2,v0
  4065cc:	8fc5002c 	lw	a1,44(s8)
  4065d0:	8fc40028 	lw	a0,40(s8)
  4065d4:	0c1018fe 	jal	4063f8 <file_map_block>
  4065d8:	00000000 	nop
  4065dc:	afc20010 	sw	v0,16(s8)
  4065e0:	8fc20010 	lw	v0,16(s8)
  4065e4:	00000000 	nop
  4065e8:	04410004 	bgez	v0,4065fc <file_get_block+0x58>
  4065ec:	00000000 	nop
/home/git/21373271/21373271/fs/fs.c:468
  4065f0:	8fc20010 	lw	v0,16(s8)
  4065f4:	10000011 	b	40663c <file_get_block+0x98>
  4065f8:	00000000 	nop
/home/git/21373271/21373271/fs/fs.c:472
  4065fc:	8fc20014 	lw	v0,20(s8)
  406600:	27c30018 	addiu	v1,s8,24
  406604:	00603025 	move	a2,v1
  406608:	8fc50030 	lw	a1,48(s8)
  40660c:	00402025 	move	a0,v0
  406610:	0c1015b5 	jal	4056d4 <read_block>
  406614:	00000000 	nop
  406618:	afc20010 	sw	v0,16(s8)
  40661c:	8fc20010 	lw	v0,16(s8)
  406620:	00000000 	nop
  406624:	04410004 	bgez	v0,406638 <file_get_block+0x94>
  406628:	00000000 	nop
/home/git/21373271/21373271/fs/fs.c:473
  40662c:	8fc20010 	lw	v0,16(s8)
  406630:	10000002 	b	40663c <file_get_block+0x98>
  406634:	00000000 	nop
/home/git/21373271/21373271/fs/fs.c:475
  406638:	00001025 	move	v0,zero
/home/git/21373271/21373271/fs/fs.c:476 (discriminator 1)
  40663c:	03c0e825 	move	sp,s8
  406640:	8fbf0024 	lw	ra,36(sp)
  406644:	8fbe0020 	lw	s8,32(sp)
  406648:	27bd0028 	addiu	sp,sp,40
  40664c:	03e00008 	jr	ra
  406650:	00000000 	nop

00406654 <file_dirty>:
file_dirty():
/home/git/21373271/21373271/fs/fs.c:480
  406654:	27bdffe0 	addiu	sp,sp,-32
  406658:	afbf001c 	sw	ra,28(sp)
  40665c:	afbe0018 	sw	s8,24(sp)
  406660:	03a0f025 	move	s8,sp
  406664:	afc40020 	sw	a0,32(s8)
  406668:	afc50024 	sw	a1,36(s8)
/home/git/21373271/21373271/fs/fs.c:484
  40666c:	8fc20024 	lw	v0,36(s8)
  406670:	00000000 	nop
  406674:	00021302 	srl	v0,v0,0xc
  406678:	27c30014 	addiu	v1,s8,20
  40667c:	00003825 	move	a3,zero
  406680:	00603025 	move	a2,v1
  406684:	00402825 	move	a1,v0
  406688:	8fc40020 	lw	a0,32(s8)
  40668c:	0c1018fe 	jal	4063f8 <file_map_block>
  406690:	00000000 	nop
  406694:	afc20010 	sw	v0,16(s8)
  406698:	8fc20010 	lw	v0,16(s8)
  40669c:	00000000 	nop
  4066a0:	04410004 	bgez	v0,4066b4 <file_dirty+0x60>
  4066a4:	00000000 	nop
/home/git/21373271/21373271/fs/fs.c:485
  4066a8:	8fc20010 	lw	v0,16(s8)
  4066ac:	10000006 	b	4066c8 <file_dirty+0x74>
  4066b0:	00000000 	nop
/home/git/21373271/21373271/fs/fs.c:488
  4066b4:	8fc20014 	lw	v0,20(s8)
  4066b8:	00000000 	nop
  4066bc:	00402025 	move	a0,v0
  4066c0:	0c101568 	jal	4055a0 <dirty_block>
  4066c4:	00000000 	nop
/home/git/21373271/21373271/fs/fs.c:489 (discriminator 1)
  4066c8:	03c0e825 	move	sp,s8
  4066cc:	8fbf001c 	lw	ra,28(sp)
  4066d0:	8fbe0018 	lw	s8,24(sp)
  4066d4:	27bd0020 	addiu	sp,sp,32
  4066d8:	03e00008 	jr	ra
  4066dc:	00000000 	nop

004066e0 <dir_lookup>:
dir_lookup():
/home/git/21373271/21373271/fs/fs.c:497
  4066e0:	27bdffd0 	addiu	sp,sp,-48
  4066e4:	afbf002c 	sw	ra,44(sp)
  4066e8:	afbe0028 	sw	s8,40(sp)
  4066ec:	03a0f025 	move	s8,sp
  4066f0:	afc40030 	sw	a0,48(s8)
  4066f4:	afc50034 	sw	a1,52(s8)
  4066f8:	afc60038 	sw	a2,56(s8)
/home/git/21373271/21373271/fs/fs.c:500
  4066fc:	8fc20030 	lw	v0,48(s8)
  406700:	00000000 	nop
  406704:	8c420080 	lw	v0,128(v0)
  406708:	00000000 	nop
  40670c:	24420fff 	addiu	v0,v0,4095
  406710:	00021302 	srl	v0,v0,0xc
  406714:	afc20018 	sw	v0,24(s8)
/home/git/21373271/21373271/fs/fs.c:504
  406718:	afc00010 	sw	zero,16(s8)
  40671c:	1000003a 	b	406808 <dir_lookup+0x128>
  406720:	00000000 	nop
/home/git/21373271/21373271/fs/fs.c:508
  406724:	8fc20010 	lw	v0,16(s8)
  406728:	27c30024 	addiu	v1,s8,36
  40672c:	00603025 	move	a2,v1
  406730:	00402825 	move	a1,v0
  406734:	8fc40030 	lw	a0,48(s8)
  406738:	0c101969 	jal	4065a4 <file_get_block>
  40673c:	00000000 	nop
  406740:	afc2001c 	sw	v0,28(s8)
  406744:	8fc2001c 	lw	v0,28(s8)
  406748:	00000000 	nop
  40674c:	04410004 	bgez	v0,406760 <dir_lookup+0x80>
  406750:	00000000 	nop
/home/git/21373271/21373271/fs/fs.c:509
  406754:	8fc2001c 	lw	v0,28(s8)
  406758:	10000032 	b	406824 <dir_lookup+0x144>
  40675c:	00000000 	nop
/home/git/21373271/21373271/fs/fs.c:511
  406760:	8fc20024 	lw	v0,36(s8)
  406764:	00000000 	nop
  406768:	afc20020 	sw	v0,32(s8)
/home/git/21373271/21373271/fs/fs.c:514
  40676c:	8fc20020 	lw	v0,32(s8)
  406770:	00000000 	nop
  406774:	afc20014 	sw	v0,20(s8)
  406778:	10000017 	b	4067d8 <dir_lookup+0xf8>
  40677c:	00000000 	nop
/home/git/21373271/21373271/fs/fs.c:519
  406780:	8fc20014 	lw	v0,20(s8)
  406784:	8fc50034 	lw	a1,52(s8)
  406788:	00402025 	move	a0,v0
  40678c:	0c1014ac 	jal	4052b0 <strcmp>
  406790:	00000000 	nop
  406794:	1440000c 	bnez	v0,4067c8 <dir_lookup+0xe8>
  406798:	00000000 	nop
/home/git/21373271/21373271/fs/fs.c:520
  40679c:	8fc20038 	lw	v0,56(s8)
  4067a0:	8fc30014 	lw	v1,20(s8)
  4067a4:	00000000 	nop
  4067a8:	ac430000 	sw	v1,0(v0)
/home/git/21373271/21373271/fs/fs.c:521
  4067ac:	8fc20014 	lw	v0,20(s8)
  4067b0:	8fc30030 	lw	v1,48(s8)
  4067b4:	00000000 	nop
  4067b8:	ac4300b4 	sw	v1,180(v0)
/home/git/21373271/21373271/fs/fs.c:522
  4067bc:	00001025 	move	v0,zero
  4067c0:	10000018 	b	406824 <dir_lookup+0x144>
  4067c4:	00000000 	nop
/home/git/21373271/21373271/fs/fs.c:514 (discriminator 2)
  4067c8:	8fc20014 	lw	v0,20(s8)
  4067cc:	00000000 	nop
  4067d0:	24420100 	addiu	v0,v0,256
  4067d4:	afc20014 	sw	v0,20(s8)
/home/git/21373271/21373271/fs/fs.c:514 (discriminator 1)
  4067d8:	8fc20020 	lw	v0,32(s8)
  4067dc:	00000000 	nop
  4067e0:	24421000 	addiu	v0,v0,4096
  4067e4:	8fc30014 	lw	v1,20(s8)
  4067e8:	00000000 	nop
  4067ec:	0062102b 	sltu	v0,v1,v0
  4067f0:	1440ffe3 	bnez	v0,406780 <dir_lookup+0xa0>
  4067f4:	00000000 	nop
/home/git/21373271/21373271/fs/fs.c:504
  4067f8:	8fc20010 	lw	v0,16(s8)
  4067fc:	00000000 	nop
  406800:	24420001 	addiu	v0,v0,1
  406804:	afc20010 	sw	v0,16(s8)
/home/git/21373271/21373271/fs/fs.c:504 (discriminator 1)
  406808:	8fc20010 	lw	v0,16(s8)
  40680c:	8fc30018 	lw	v1,24(s8)
  406810:	00000000 	nop
  406814:	0043102b 	sltu	v0,v0,v1
  406818:	1440ffc2 	bnez	v0,406724 <dir_lookup+0x44>
  40681c:	00000000 	nop
/home/git/21373271/21373271/fs/fs.c:526
  406820:	2402fff6 	li	v0,-10
/home/git/21373271/21373271/fs/fs.c:527
  406824:	03c0e825 	move	sp,s8
  406828:	8fbf002c 	lw	ra,44(sp)
  40682c:	8fbe0028 	lw	s8,40(sp)
  406830:	27bd0030 	addiu	sp,sp,48
  406834:	03e00008 	jr	ra
  406838:	00000000 	nop

0040683c <dir_alloc_file>:
dir_alloc_file():
/home/git/21373271/21373271/fs/fs.c:532
  40683c:	27bdffd0 	addiu	sp,sp,-48
  406840:	afbf002c 	sw	ra,44(sp)
  406844:	afbe0028 	sw	s8,40(sp)
  406848:	03a0f025 	move	s8,sp
  40684c:	afc40030 	sw	a0,48(s8)
  406850:	afc50034 	sw	a1,52(s8)
/home/git/21373271/21373271/fs/fs.c:538
  406854:	8fc20030 	lw	v0,48(s8)
  406858:	00000000 	nop
  40685c:	8c420080 	lw	v0,128(v0)
  406860:	00000000 	nop
  406864:	00021302 	srl	v0,v0,0xc
  406868:	afc20018 	sw	v0,24(s8)
/home/git/21373271/21373271/fs/fs.c:540
  40686c:	afc00010 	sw	zero,16(s8)
  406870:	10000038 	b	406954 <dir_alloc_file+0x118>
  406874:	00000000 	nop
/home/git/21373271/21373271/fs/fs.c:542
  406878:	27c20024 	addiu	v0,s8,36
  40687c:	00403025 	move	a2,v0
  406880:	8fc50010 	lw	a1,16(s8)
  406884:	8fc40030 	lw	a0,48(s8)
  406888:	0c101969 	jal	4065a4 <file_get_block>
  40688c:	00000000 	nop
  406890:	afc2001c 	sw	v0,28(s8)
  406894:	8fc2001c 	lw	v0,28(s8)
  406898:	00000000 	nop
  40689c:	04410004 	bgez	v0,4068b0 <dir_alloc_file+0x74>
  4068a0:	00000000 	nop
/home/git/21373271/21373271/fs/fs.c:543
  4068a4:	8fc2001c 	lw	v0,28(s8)
  4068a8:	1000004e 	b	4069e4 <dir_alloc_file+0x1a8>
  4068ac:	00000000 	nop
/home/git/21373271/21373271/fs/fs.c:546
  4068b0:	8fc20024 	lw	v0,36(s8)
  4068b4:	00000000 	nop
  4068b8:	afc20020 	sw	v0,32(s8)
/home/git/21373271/21373271/fs/fs.c:548
  4068bc:	afc00014 	sw	zero,20(s8)
  4068c0:	1000001b 	b	406930 <dir_alloc_file+0xf4>
  4068c4:	00000000 	nop
/home/git/21373271/21373271/fs/fs.c:549
  4068c8:	8fc20014 	lw	v0,20(s8)
  4068cc:	00000000 	nop
  4068d0:	00021200 	sll	v0,v0,0x8
  4068d4:	8fc30020 	lw	v1,32(s8)
  4068d8:	00000000 	nop
  4068dc:	00621021 	addu	v0,v1,v0
  4068e0:	80420000 	lb	v0,0(v0)
  4068e4:	00000000 	nop
  4068e8:	1440000d 	bnez	v0,406920 <dir_alloc_file+0xe4>
  4068ec:	00000000 	nop
/home/git/21373271/21373271/fs/fs.c:550
  4068f0:	8fc20014 	lw	v0,20(s8)
  4068f4:	00000000 	nop
  4068f8:	00021200 	sll	v0,v0,0x8
  4068fc:	8fc30020 	lw	v1,32(s8)
  406900:	00000000 	nop
  406904:	00621821 	addu	v1,v1,v0
  406908:	8fc20034 	lw	v0,52(s8)
  40690c:	00000000 	nop
  406910:	ac430000 	sw	v1,0(v0)
/home/git/21373271/21373271/fs/fs.c:551
  406914:	00001025 	move	v0,zero
  406918:	10000032 	b	4069e4 <dir_alloc_file+0x1a8>
  40691c:	00000000 	nop
/home/git/21373271/21373271/fs/fs.c:548 (discriminator 2)
  406920:	8fc20014 	lw	v0,20(s8)
  406924:	00000000 	nop
  406928:	24420001 	addiu	v0,v0,1
  40692c:	afc20014 	sw	v0,20(s8)
/home/git/21373271/21373271/fs/fs.c:548 (discriminator 1)
  406930:	8fc20014 	lw	v0,20(s8)
  406934:	00000000 	nop
  406938:	2c420010 	sltiu	v0,v0,16
  40693c:	1440ffe2 	bnez	v0,4068c8 <dir_alloc_file+0x8c>
  406940:	00000000 	nop
/home/git/21373271/21373271/fs/fs.c:540 (discriminator 2)
  406944:	8fc20010 	lw	v0,16(s8)
  406948:	00000000 	nop
  40694c:	24420001 	addiu	v0,v0,1
  406950:	afc20010 	sw	v0,16(s8)
/home/git/21373271/21373271/fs/fs.c:540 (discriminator 1)
  406954:	8fc30010 	lw	v1,16(s8)
  406958:	8fc20018 	lw	v0,24(s8)
  40695c:	00000000 	nop
  406960:	0062102b 	sltu	v0,v1,v0
  406964:	1440ffc4 	bnez	v0,406878 <dir_alloc_file+0x3c>
  406968:	00000000 	nop
/home/git/21373271/21373271/fs/fs.c:558
  40696c:	8fc20030 	lw	v0,48(s8)
  406970:	00000000 	nop
  406974:	8c420080 	lw	v0,128(v0)
  406978:	00000000 	nop
  40697c:	24431000 	addiu	v1,v0,4096
  406980:	8fc20030 	lw	v0,48(s8)
  406984:	00000000 	nop
  406988:	ac430080 	sw	v1,128(v0)
/home/git/21373271/21373271/fs/fs.c:559
  40698c:	27c20024 	addiu	v0,s8,36
  406990:	00403025 	move	a2,v0
  406994:	8fc50010 	lw	a1,16(s8)
  406998:	8fc40030 	lw	a0,48(s8)
  40699c:	0c101969 	jal	4065a4 <file_get_block>
  4069a0:	00000000 	nop
  4069a4:	afc2001c 	sw	v0,28(s8)
  4069a8:	8fc2001c 	lw	v0,28(s8)
  4069ac:	00000000 	nop
  4069b0:	04410004 	bgez	v0,4069c4 <dir_alloc_file+0x188>
  4069b4:	00000000 	nop
/home/git/21373271/21373271/fs/fs.c:560
  4069b8:	8fc2001c 	lw	v0,28(s8)
  4069bc:	10000009 	b	4069e4 <dir_alloc_file+0x1a8>
  4069c0:	00000000 	nop
/home/git/21373271/21373271/fs/fs.c:562
  4069c4:	8fc20024 	lw	v0,36(s8)
  4069c8:	00000000 	nop
  4069cc:	afc20020 	sw	v0,32(s8)
/home/git/21373271/21373271/fs/fs.c:563
  4069d0:	8fc20034 	lw	v0,52(s8)
  4069d4:	8fc30020 	lw	v1,32(s8)
  4069d8:	00000000 	nop
  4069dc:	ac430000 	sw	v1,0(v0)
/home/git/21373271/21373271/fs/fs.c:565
  4069e0:	00001025 	move	v0,zero
/home/git/21373271/21373271/fs/fs.c:566 (discriminator 1)
  4069e4:	03c0e825 	move	sp,s8
  4069e8:	8fbf002c 	lw	ra,44(sp)
  4069ec:	8fbe0028 	lw	s8,40(sp)
  4069f0:	27bd0030 	addiu	sp,sp,48
  4069f4:	03e00008 	jr	ra
  4069f8:	00000000 	nop

004069fc <skip_slash>:
skip_slash():
/home/git/21373271/21373271/fs/fs.c:570
  4069fc:	27bdfff8 	addiu	sp,sp,-8
  406a00:	afbe0004 	sw	s8,4(sp)
  406a04:	03a0f025 	move	s8,sp
  406a08:	afc40008 	sw	a0,8(s8)
/home/git/21373271/21373271/fs/fs.c:571
  406a0c:	10000005 	b	406a24 <skip_slash+0x28>
  406a10:	00000000 	nop
/home/git/21373271/21373271/fs/fs.c:572
  406a14:	8fc20008 	lw	v0,8(s8)
  406a18:	00000000 	nop
  406a1c:	24420001 	addiu	v0,v0,1
  406a20:	afc20008 	sw	v0,8(s8)
/home/git/21373271/21373271/fs/fs.c:571
  406a24:	8fc20008 	lw	v0,8(s8)
  406a28:	00000000 	nop
  406a2c:	80430000 	lb	v1,0(v0)
  406a30:	2402002f 	li	v0,47
  406a34:	1062fff7 	beq	v1,v0,406a14 <skip_slash+0x18>
  406a38:	00000000 	nop
/home/git/21373271/21373271/fs/fs.c:574
  406a3c:	8fc20008 	lw	v0,8(s8)
/home/git/21373271/21373271/fs/fs.c:575
  406a40:	03c0e825 	move	sp,s8
  406a44:	8fbe0004 	lw	s8,4(sp)
  406a48:	27bd0008 	addiu	sp,sp,8
  406a4c:	03e00008 	jr	ra
  406a50:	00000000 	nop

00406a54 <walk_path>:
walk_path():
/home/git/21373271/21373271/fs/fs.c:585
  406a54:	27bdff58 	addiu	sp,sp,-168
  406a58:	afbf00a4 	sw	ra,164(sp)
  406a5c:	afbe00a0 	sw	s8,160(sp)
  406a60:	03a0f025 	move	s8,sp
  406a64:	afc400a8 	sw	a0,168(s8)
  406a68:	afc500ac 	sw	a1,172(s8)
  406a6c:	afc600b0 	sw	a2,176(s8)
  406a70:	afc700b4 	sw	a3,180(s8)
/home/git/21373271/21373271/fs/fs.c:592
  406a74:	8fc400a8 	lw	a0,168(s8)
  406a78:	0c101a7f 	jal	4069fc <skip_slash>
  406a7c:	00000000 	nop
  406a80:	afc200a8 	sw	v0,168(s8)
/home/git/21373271/21373271/fs/fs.c:593
  406a84:	3c020041 	lui	v0,0x41
  406a88:	8c420000 	lw	v0,0(v0)
  406a8c:	00000000 	nop
  406a90:	24420008 	addiu	v0,v0,8
  406a94:	afc2009c 	sw	v0,156(s8)
/home/git/21373271/21373271/fs/fs.c:594
  406a98:	afc00010 	sw	zero,16(s8)
/home/git/21373271/21373271/fs/fs.c:595
  406a9c:	a3c0001c 	sb	zero,28(s8)
/home/git/21373271/21373271/fs/fs.c:597
  406aa0:	8fc200ac 	lw	v0,172(s8)
  406aa4:	00000000 	nop
  406aa8:	10400004 	beqz	v0,406abc <walk_path+0x68>
  406aac:	00000000 	nop
/home/git/21373271/21373271/fs/fs.c:598
  406ab0:	8fc200ac 	lw	v0,172(s8)
  406ab4:	00000000 	nop
  406ab8:	ac400000 	sw	zero,0(v0)
/home/git/21373271/21373271/fs/fs.c:601
  406abc:	8fc200b0 	lw	v0,176(s8)
  406ac0:	00000000 	nop
  406ac4:	ac400000 	sw	zero,0(v0)
/home/git/21373271/21373271/fs/fs.c:604
  406ac8:	1000006e 	b	406c84 <walk_path+0x230>
  406acc:	00000000 	nop
/home/git/21373271/21373271/fs/fs.c:605
  406ad0:	8fc2009c 	lw	v0,156(s8)
  406ad4:	00000000 	nop
  406ad8:	afc20010 	sw	v0,16(s8)
/home/git/21373271/21373271/fs/fs.c:606
  406adc:	8fc200a8 	lw	v0,168(s8)
  406ae0:	00000000 	nop
  406ae4:	afc20014 	sw	v0,20(s8)
/home/git/21373271/21373271/fs/fs.c:608
  406ae8:	10000005 	b	406b00 <walk_path+0xac>
  406aec:	00000000 	nop
/home/git/21373271/21373271/fs/fs.c:609
  406af0:	8fc200a8 	lw	v0,168(s8)
  406af4:	00000000 	nop
  406af8:	24420001 	addiu	v0,v0,1
  406afc:	afc200a8 	sw	v0,168(s8)
/home/git/21373271/21373271/fs/fs.c:608
  406b00:	8fc200a8 	lw	v0,168(s8)
  406b04:	00000000 	nop
  406b08:	80430000 	lb	v1,0(v0)
  406b0c:	2402002f 	li	v0,47
  406b10:	10620007 	beq	v1,v0,406b30 <walk_path+0xdc>
  406b14:	00000000 	nop
/home/git/21373271/21373271/fs/fs.c:608 (discriminator 1)
  406b18:	8fc200a8 	lw	v0,168(s8)
  406b1c:	00000000 	nop
  406b20:	80420000 	lb	v0,0(v0)
  406b24:	00000000 	nop
  406b28:	1440fff1 	bnez	v0,406af0 <walk_path+0x9c>
  406b2c:	00000000 	nop
/home/git/21373271/21373271/fs/fs.c:612
  406b30:	8fc300a8 	lw	v1,168(s8)
  406b34:	8fc20014 	lw	v0,20(s8)
  406b38:	00000000 	nop
  406b3c:	00621023 	subu	v0,v1,v0
  406b40:	28420080 	slti	v0,v0,128
  406b44:	14400004 	bnez	v0,406b58 <walk_path+0x104>
  406b48:	00000000 	nop
/home/git/21373271/21373271/fs/fs.c:613
  406b4c:	2402fff5 	li	v0,-11
  406b50:	1000005f 	b	406cd0 <walk_path+0x27c>
  406b54:	00000000 	nop
/home/git/21373271/21373271/fs/fs.c:616
  406b58:	8fc300a8 	lw	v1,168(s8)
  406b5c:	8fc20014 	lw	v0,20(s8)
  406b60:	00000000 	nop
  406b64:	00621023 	subu	v0,v1,v0
  406b68:	27c3001c 	addiu	v1,s8,28
  406b6c:	00403025 	move	a2,v0
  406b70:	8fc50014 	lw	a1,20(s8)
  406b74:	00602025 	move	a0,v1
  406b78:	0c101384 	jal	404e10 <memcpy>
  406b7c:	00000000 	nop
/home/git/21373271/21373271/fs/fs.c:617
  406b80:	8fc300a8 	lw	v1,168(s8)
  406b84:	8fc20014 	lw	v0,20(s8)
  406b88:	00000000 	nop
  406b8c:	00621023 	subu	v0,v1,v0
  406b90:	27c30010 	addiu	v1,s8,16
  406b94:	00621021 	addu	v0,v1,v0
  406b98:	a040000c 	sb	zero,12(v0)
/home/git/21373271/21373271/fs/fs.c:618
  406b9c:	8fc400a8 	lw	a0,168(s8)
  406ba0:	0c101a7f 	jal	4069fc <skip_slash>
  406ba4:	00000000 	nop
  406ba8:	afc200a8 	sw	v0,168(s8)
/home/git/21373271/21373271/fs/fs.c:619
  406bac:	8fc20010 	lw	v0,16(s8)
  406bb0:	00000000 	nop
  406bb4:	8c430084 	lw	v1,132(v0)
  406bb8:	24020001 	li	v0,1
  406bbc:	10620004 	beq	v1,v0,406bd0 <walk_path+0x17c>
  406bc0:	00000000 	nop
/home/git/21373271/21373271/fs/fs.c:620
  406bc4:	2402fff6 	li	v0,-10
  406bc8:	10000041 	b	406cd0 <walk_path+0x27c>
  406bcc:	00000000 	nop
/home/git/21373271/21373271/fs/fs.c:623
  406bd0:	27c3009c 	addiu	v1,s8,156
  406bd4:	27c2001c 	addiu	v0,s8,28
  406bd8:	00603025 	move	a2,v1
  406bdc:	00402825 	move	a1,v0
  406be0:	8fc40010 	lw	a0,16(s8)
  406be4:	0c1019b8 	jal	4066e0 <dir_lookup>
  406be8:	00000000 	nop
  406bec:	afc20018 	sw	v0,24(s8)
  406bf0:	8fc20018 	lw	v0,24(s8)
  406bf4:	00000000 	nop
  406bf8:	04410022 	bgez	v0,406c84 <walk_path+0x230>
  406bfc:	00000000 	nop
/home/git/21373271/21373271/fs/fs.c:624
  406c00:	8fc30018 	lw	v1,24(s8)
  406c04:	2402fff6 	li	v0,-10
  406c08:	1462001b 	bne	v1,v0,406c78 <walk_path+0x224>
  406c0c:	00000000 	nop
/home/git/21373271/21373271/fs/fs.c:624 (discriminator 1)
  406c10:	8fc200a8 	lw	v0,168(s8)
  406c14:	00000000 	nop
  406c18:	80420000 	lb	v0,0(v0)
  406c1c:	00000000 	nop
  406c20:	14400015 	bnez	v0,406c78 <walk_path+0x224>
  406c24:	00000000 	nop
/home/git/21373271/21373271/fs/fs.c:625
  406c28:	8fc200ac 	lw	v0,172(s8)
  406c2c:	00000000 	nop
  406c30:	10400005 	beqz	v0,406c48 <walk_path+0x1f4>
  406c34:	00000000 	nop
/home/git/21373271/21373271/fs/fs.c:626
  406c38:	8fc200ac 	lw	v0,172(s8)
  406c3c:	8fc30010 	lw	v1,16(s8)
  406c40:	00000000 	nop
  406c44:	ac430000 	sw	v1,0(v0)
/home/git/21373271/21373271/fs/fs.c:629
  406c48:	8fc200b4 	lw	v0,180(s8)
  406c4c:	00000000 	nop
  406c50:	10400006 	beqz	v0,406c6c <walk_path+0x218>
  406c54:	00000000 	nop
/home/git/21373271/21373271/fs/fs.c:630
  406c58:	27c2001c 	addiu	v0,s8,28
  406c5c:	00402825 	move	a1,v0
  406c60:	8fc400b4 	lw	a0,180(s8)
  406c64:	0c10146b 	jal	4051ac <strcpy>
  406c68:	00000000 	nop
/home/git/21373271/21373271/fs/fs.c:633
  406c6c:	8fc200b0 	lw	v0,176(s8)
  406c70:	00000000 	nop
  406c74:	ac400000 	sw	zero,0(v0)
/home/git/21373271/21373271/fs/fs.c:636
  406c78:	8fc20018 	lw	v0,24(s8)
  406c7c:	10000014 	b	406cd0 <walk_path+0x27c>
  406c80:	00000000 	nop
/home/git/21373271/21373271/fs/fs.c:604
  406c84:	8fc200a8 	lw	v0,168(s8)
  406c88:	00000000 	nop
  406c8c:	80420000 	lb	v0,0(v0)
  406c90:	00000000 	nop
  406c94:	1440ff8e 	bnez	v0,406ad0 <walk_path+0x7c>
  406c98:	00000000 	nop
/home/git/21373271/21373271/fs/fs.c:640
  406c9c:	8fc200ac 	lw	v0,172(s8)
  406ca0:	00000000 	nop
  406ca4:	10400005 	beqz	v0,406cbc <walk_path+0x268>
  406ca8:	00000000 	nop
/home/git/21373271/21373271/fs/fs.c:641
  406cac:	8fc200ac 	lw	v0,172(s8)
  406cb0:	8fc30010 	lw	v1,16(s8)
  406cb4:	00000000 	nop
  406cb8:	ac430000 	sw	v1,0(v0)
/home/git/21373271/21373271/fs/fs.c:644
  406cbc:	8fc3009c 	lw	v1,156(s8)
  406cc0:	8fc200b0 	lw	v0,176(s8)
  406cc4:	00000000 	nop
  406cc8:	ac430000 	sw	v1,0(v0)
/home/git/21373271/21373271/fs/fs.c:645
  406ccc:	00001025 	move	v0,zero
/home/git/21373271/21373271/fs/fs.c:646 (discriminator 1)
  406cd0:	03c0e825 	move	sp,s8
  406cd4:	8fbf00a4 	lw	ra,164(sp)
  406cd8:	8fbe00a0 	lw	s8,160(sp)
  406cdc:	27bd00a8 	addiu	sp,sp,168
  406ce0:	03e00008 	jr	ra
  406ce4:	00000000 	nop

00406ce8 <file_open>:
file_open():
/home/git/21373271/21373271/fs/fs.c:654
  406ce8:	27bdffe8 	addiu	sp,sp,-24
  406cec:	afbf0014 	sw	ra,20(sp)
  406cf0:	afbe0010 	sw	s8,16(sp)
  406cf4:	03a0f025 	move	s8,sp
  406cf8:	afc40018 	sw	a0,24(s8)
  406cfc:	afc5001c 	sw	a1,28(s8)
/home/git/21373271/21373271/fs/fs.c:655
  406d00:	00003825 	move	a3,zero
  406d04:	8fc6001c 	lw	a2,28(s8)
  406d08:	00002825 	move	a1,zero
  406d0c:	8fc40018 	lw	a0,24(s8)
  406d10:	0c101a95 	jal	406a54 <walk_path>
  406d14:	00000000 	nop
/home/git/21373271/21373271/fs/fs.c:656
  406d18:	03c0e825 	move	sp,s8
  406d1c:	8fbf0014 	lw	ra,20(sp)
  406d20:	8fbe0010 	lw	s8,16(sp)
  406d24:	27bd0018 	addiu	sp,sp,24
  406d28:	03e00008 	jr	ra
  406d2c:	00000000 	nop

00406d30 <file_create>:
file_create():
/home/git/21373271/21373271/fs/fs.c:664
  406d30:	27bdff58 	addiu	sp,sp,-168
  406d34:	afbf00a4 	sw	ra,164(sp)
  406d38:	afbe00a0 	sw	s8,160(sp)
  406d3c:	03a0f025 	move	s8,sp
  406d40:	afc400a8 	sw	a0,168(s8)
  406d44:	afc500ac 	sw	a1,172(s8)
/home/git/21373271/21373271/fs/fs.c:669
  406d48:	27c40014 	addiu	a0,s8,20
  406d4c:	27c30098 	addiu	v1,s8,152
  406d50:	27c20094 	addiu	v0,s8,148
  406d54:	00803825 	move	a3,a0
  406d58:	00603025 	move	a2,v1
  406d5c:	00402825 	move	a1,v0
  406d60:	8fc400a8 	lw	a0,168(s8)
  406d64:	0c101a95 	jal	406a54 <walk_path>
  406d68:	00000000 	nop
  406d6c:	afc20010 	sw	v0,16(s8)
  406d70:	8fc20010 	lw	v0,16(s8)
  406d74:	00000000 	nop
  406d78:	14400004 	bnez	v0,406d8c <file_create+0x5c>
  406d7c:	00000000 	nop
/home/git/21373271/21373271/fs/fs.c:670
  406d80:	2402fff4 	li	v0,-12
  406d84:	10000022 	b	406e10 <file_create+0xe0>
  406d88:	00000000 	nop
/home/git/21373271/21373271/fs/fs.c:673
  406d8c:	8fc30010 	lw	v1,16(s8)
  406d90:	2402fff6 	li	v0,-10
  406d94:	14620005 	bne	v1,v0,406dac <file_create+0x7c>
  406d98:	00000000 	nop
/home/git/21373271/21373271/fs/fs.c:673 (discriminator 1)
  406d9c:	8fc20094 	lw	v0,148(s8)
  406da0:	00000000 	nop
  406da4:	14400004 	bnez	v0,406db8 <file_create+0x88>
  406da8:	00000000 	nop
/home/git/21373271/21373271/fs/fs.c:674
  406dac:	8fc20010 	lw	v0,16(s8)
  406db0:	10000017 	b	406e10 <file_create+0xe0>
  406db4:	00000000 	nop
/home/git/21373271/21373271/fs/fs.c:677
  406db8:	8fc20094 	lw	v0,148(s8)
  406dbc:	27c30098 	addiu	v1,s8,152
  406dc0:	00602825 	move	a1,v1
  406dc4:	00402025 	move	a0,v0
  406dc8:	0c101a0f 	jal	40683c <dir_alloc_file>
  406dcc:	00000000 	nop
  406dd0:	04410004 	bgez	v0,406de4 <file_create+0xb4>
  406dd4:	00000000 	nop
/home/git/21373271/21373271/fs/fs.c:678
  406dd8:	8fc20010 	lw	v0,16(s8)
  406ddc:	1000000c 	b	406e10 <file_create+0xe0>
  406de0:	00000000 	nop
/home/git/21373271/21373271/fs/fs.c:681
  406de4:	8fc20098 	lw	v0,152(s8)
  406de8:	27c30014 	addiu	v1,s8,20
  406dec:	00602825 	move	a1,v1
  406df0:	00402025 	move	a0,v0
  406df4:	0c10146b 	jal	4051ac <strcpy>
  406df8:	00000000 	nop
/home/git/21373271/21373271/fs/fs.c:682
  406dfc:	8fc30098 	lw	v1,152(s8)
  406e00:	8fc200ac 	lw	v0,172(s8)
  406e04:	00000000 	nop
  406e08:	ac430000 	sw	v1,0(v0)
/home/git/21373271/21373271/fs/fs.c:683
  406e0c:	00001025 	move	v0,zero
/home/git/21373271/21373271/fs/fs.c:684 (discriminator 1)
  406e10:	03c0e825 	move	sp,s8
  406e14:	8fbf00a4 	lw	ra,164(sp)
  406e18:	8fbe00a0 	lw	s8,160(sp)
  406e1c:	27bd00a8 	addiu	sp,sp,168
  406e20:	03e00008 	jr	ra
  406e24:	00000000 	nop

00406e28 <file_truncate>:
file_truncate():
/home/git/21373271/21373271/fs/fs.c:698
  406e28:	27bdffd8 	addiu	sp,sp,-40
  406e2c:	afbf0024 	sw	ra,36(sp)
  406e30:	afbe0020 	sw	s8,32(sp)
  406e34:	03a0f025 	move	s8,sp
  406e38:	afc40028 	sw	a0,40(s8)
  406e3c:	afc5002c 	sw	a1,44(s8)
/home/git/21373271/21373271/fs/fs.c:701
  406e40:	8fc20028 	lw	v0,40(s8)
  406e44:	00000000 	nop
  406e48:	8c420080 	lw	v0,128(v0)
  406e4c:	00000000 	nop
  406e50:	00021302 	srl	v0,v0,0xc
  406e54:	24420001 	addiu	v0,v0,1
  406e58:	afc20018 	sw	v0,24(s8)
/home/git/21373271/21373271/fs/fs.c:702
  406e5c:	8fc2002c 	lw	v0,44(s8)
  406e60:	00000000 	nop
  406e64:	00021302 	srl	v0,v0,0xc
  406e68:	24420001 	addiu	v0,v0,1
  406e6c:	afc20014 	sw	v0,20(s8)
/home/git/21373271/21373271/fs/fs.c:704
  406e70:	8fc2002c 	lw	v0,44(s8)
  406e74:	00000000 	nop
  406e78:	14400002 	bnez	v0,406e84 <file_truncate+0x5c>
  406e7c:	00000000 	nop
/home/git/21373271/21373271/fs/fs.c:705
  406e80:	afc00014 	sw	zero,20(s8)
/home/git/21373271/21373271/fs/fs.c:708
  406e84:	8fc20014 	lw	v0,20(s8)
  406e88:	00000000 	nop
  406e8c:	2c42000b 	sltiu	v0,v0,11
  406e90:	10400026 	beqz	v0,406f2c <file_truncate+0x104>
  406e94:	00000000 	nop
/home/git/21373271/21373271/fs/fs.c:709
  406e98:	8fc20014 	lw	v0,20(s8)
  406e9c:	00000000 	nop
  406ea0:	afc20010 	sw	v0,16(s8)
  406ea4:	10000009 	b	406ecc <file_truncate+0xa4>
  406ea8:	00000000 	nop
/home/git/21373271/21373271/fs/fs.c:710 (discriminator 3)
  406eac:	8fc50010 	lw	a1,16(s8)
  406eb0:	8fc40028 	lw	a0,40(s8)
  406eb4:	0c10193d 	jal	4064f4 <file_clear_block>
  406eb8:	00000000 	nop
/home/git/21373271/21373271/fs/fs.c:709 (discriminator 3)
  406ebc:	8fc20010 	lw	v0,16(s8)
  406ec0:	00000000 	nop
  406ec4:	24420001 	addiu	v0,v0,1
  406ec8:	afc20010 	sw	v0,16(s8)
/home/git/21373271/21373271/fs/fs.c:709 (discriminator 1)
  406ecc:	8fc30010 	lw	v1,16(s8)
  406ed0:	8fc20018 	lw	v0,24(s8)
  406ed4:	00000000 	nop
  406ed8:	0062102b 	sltu	v0,v1,v0
  406edc:	1440fff3 	bnez	v0,406eac <file_truncate+0x84>
  406ee0:	00000000 	nop
/home/git/21373271/21373271/fs/fs.c:712
  406ee4:	8fc20028 	lw	v0,40(s8)
  406ee8:	00000000 	nop
  406eec:	8c4200b0 	lw	v0,176(v0)
  406ef0:	00000000 	nop
  406ef4:	10400020 	beqz	v0,406f78 <file_truncate+0x150>
  406ef8:	00000000 	nop
/home/git/21373271/21373271/fs/fs.c:713
  406efc:	8fc20028 	lw	v0,40(s8)
  406f00:	00000000 	nop
  406f04:	8c4200b0 	lw	v0,176(v0)
  406f08:	00000000 	nop
  406f0c:	00402025 	move	a0,v0
  406f10:	0c101696 	jal	405a58 <free_block>
  406f14:	00000000 	nop
/home/git/21373271/21373271/fs/fs.c:714
  406f18:	8fc20028 	lw	v0,40(s8)
  406f1c:	00000000 	nop
  406f20:	ac4000b0 	sw	zero,176(v0)
  406f24:	10000014 	b	406f78 <file_truncate+0x150>
  406f28:	00000000 	nop
/home/git/21373271/21373271/fs/fs.c:717
  406f2c:	8fc20014 	lw	v0,20(s8)
  406f30:	00000000 	nop
  406f34:	afc20010 	sw	v0,16(s8)
  406f38:	10000009 	b	406f60 <file_truncate+0x138>
  406f3c:	00000000 	nop
/home/git/21373271/21373271/fs/fs.c:718 (discriminator 3)
  406f40:	8fc50010 	lw	a1,16(s8)
  406f44:	8fc40028 	lw	a0,40(s8)
  406f48:	0c10193d 	jal	4064f4 <file_clear_block>
  406f4c:	00000000 	nop
/home/git/21373271/21373271/fs/fs.c:717 (discriminator 3)
  406f50:	8fc20010 	lw	v0,16(s8)
  406f54:	00000000 	nop
  406f58:	24420001 	addiu	v0,v0,1
  406f5c:	afc20010 	sw	v0,16(s8)
/home/git/21373271/21373271/fs/fs.c:717 (discriminator 1)
  406f60:	8fc30010 	lw	v1,16(s8)
  406f64:	8fc20018 	lw	v0,24(s8)
  406f68:	00000000 	nop
  406f6c:	0062102b 	sltu	v0,v1,v0
  406f70:	1440fff3 	bnez	v0,406f40 <file_truncate+0x118>
  406f74:	00000000 	nop
/home/git/21373271/21373271/fs/fs.c:722
  406f78:	8fc20028 	lw	v0,40(s8)
  406f7c:	8fc3002c 	lw	v1,44(s8)
  406f80:	00000000 	nop
  406f84:	ac430080 	sw	v1,128(v0)
/home/git/21373271/21373271/fs/fs.c:723
  406f88:	00000000 	nop
  406f8c:	03c0e825 	move	sp,s8
  406f90:	8fbf0024 	lw	ra,36(sp)
  406f94:	8fbe0020 	lw	s8,32(sp)
  406f98:	27bd0028 	addiu	sp,sp,40
  406f9c:	03e00008 	jr	ra
  406fa0:	00000000 	nop

00406fa4 <file_set_size>:
file_set_size():
/home/git/21373271/21373271/fs/fs.c:727
  406fa4:	27bdffe8 	addiu	sp,sp,-24
  406fa8:	afbf0014 	sw	ra,20(sp)
  406fac:	afbe0010 	sw	s8,16(sp)
  406fb0:	03a0f025 	move	s8,sp
  406fb4:	afc40018 	sw	a0,24(s8)
  406fb8:	afc5001c 	sw	a1,28(s8)
/home/git/21373271/21373271/fs/fs.c:728
  406fbc:	8fc20018 	lw	v0,24(s8)
  406fc0:	00000000 	nop
  406fc4:	8c420080 	lw	v0,128(v0)
  406fc8:	8fc3001c 	lw	v1,28(s8)
  406fcc:	00000000 	nop
  406fd0:	0062102b 	sltu	v0,v1,v0
  406fd4:	10400005 	beqz	v0,406fec <file_set_size+0x48>
  406fd8:	00000000 	nop
/home/git/21373271/21373271/fs/fs.c:729
  406fdc:	8fc5001c 	lw	a1,28(s8)
  406fe0:	8fc40018 	lw	a0,24(s8)
  406fe4:	0c101b8a 	jal	406e28 <file_truncate>
  406fe8:	00000000 	nop
/home/git/21373271/21373271/fs/fs.c:732
  406fec:	8fc20018 	lw	v0,24(s8)
  406ff0:	8fc3001c 	lw	v1,28(s8)
  406ff4:	00000000 	nop
  406ff8:	ac430080 	sw	v1,128(v0)
/home/git/21373271/21373271/fs/fs.c:734
  406ffc:	8fc20018 	lw	v0,24(s8)
  407000:	00000000 	nop
  407004:	8c4200b4 	lw	v0,180(v0)
  407008:	00000000 	nop
  40700c:	10400008 	beqz	v0,407030 <file_set_size+0x8c>
  407010:	00000000 	nop
/home/git/21373271/21373271/fs/fs.c:735
  407014:	8fc20018 	lw	v0,24(s8)
  407018:	00000000 	nop
  40701c:	8c4200b4 	lw	v0,180(v0)
  407020:	00000000 	nop
  407024:	00402025 	move	a0,v0
  407028:	0c101c13 	jal	40704c <file_flush>
  40702c:	00000000 	nop
/home/git/21373271/21373271/fs/fs.c:738
  407030:	00001025 	move	v0,zero
/home/git/21373271/21373271/fs/fs.c:739
  407034:	03c0e825 	move	sp,s8
  407038:	8fbf0014 	lw	ra,20(sp)
  40703c:	8fbe0010 	lw	s8,16(sp)
  407040:	27bd0018 	addiu	sp,sp,24
  407044:	03e00008 	jr	ra
  407048:	00000000 	nop

0040704c <file_flush>:
file_flush():
/home/git/21373271/21373271/fs/fs.c:748
  40704c:	27bdffd8 	addiu	sp,sp,-40
  407050:	afbf0024 	sw	ra,36(sp)
  407054:	afbe0020 	sw	s8,32(sp)
  407058:	03a0f025 	move	s8,sp
  40705c:	afc40028 	sw	a0,40(s8)
/home/git/21373271/21373271/fs/fs.c:755
  407060:	8fc20028 	lw	v0,40(s8)
  407064:	00000000 	nop
  407068:	8c420080 	lw	v0,128(v0)
  40706c:	00000000 	nop
  407070:	00021302 	srl	v0,v0,0xc
  407074:	24420001 	addiu	v0,v0,1
  407078:	afc20014 	sw	v0,20(s8)
/home/git/21373271/21373271/fs/fs.c:757
  40707c:	afc00010 	sw	zero,16(s8)
  407080:	10000020 	b	407104 <file_flush+0xb8>
  407084:	00000000 	nop
/home/git/21373271/21373271/fs/fs.c:758
  407088:	27c2001c 	addiu	v0,s8,28
  40708c:	00003825 	move	a3,zero
  407090:	00403025 	move	a2,v0
  407094:	8fc50010 	lw	a1,16(s8)
  407098:	8fc40028 	lw	a0,40(s8)
  40709c:	0c1018fe 	jal	4063f8 <file_map_block>
  4070a0:	00000000 	nop
  4070a4:	afc20018 	sw	v0,24(s8)
  4070a8:	8fc20018 	lw	v0,24(s8)
  4070ac:	00000000 	nop
  4070b0:	0440000f 	bltz	v0,4070f0 <file_flush+0xa4>
  4070b4:	00000000 	nop
/home/git/21373271/21373271/fs/fs.c:761
  4070b8:	8fc2001c 	lw	v0,28(s8)
  4070bc:	00000000 	nop
  4070c0:	00402025 	move	a0,v0
  4070c4:	0c10154b 	jal	40552c <block_is_dirty>
  4070c8:	00000000 	nop
  4070cc:	10400009 	beqz	v0,4070f4 <file_flush+0xa8>
  4070d0:	00000000 	nop
/home/git/21373271/21373271/fs/fs.c:762
  4070d4:	8fc2001c 	lw	v0,28(s8)
  4070d8:	00000000 	nop
  4070dc:	00402025 	move	a0,v0
  4070e0:	0c10158f 	jal	40563c <write_block>
  4070e4:	00000000 	nop
  4070e8:	10000002 	b	4070f4 <file_flush+0xa8>
  4070ec:	00000000 	nop
/home/git/21373271/21373271/fs/fs.c:759
  4070f0:	00000000 	nop
/home/git/21373271/21373271/fs/fs.c:757 (discriminator 2)
  4070f4:	8fc20010 	lw	v0,16(s8)
  4070f8:	00000000 	nop
  4070fc:	24420001 	addiu	v0,v0,1
  407100:	afc20010 	sw	v0,16(s8)
/home/git/21373271/21373271/fs/fs.c:757 (discriminator 1)
  407104:	8fc30010 	lw	v1,16(s8)
  407108:	8fc20014 	lw	v0,20(s8)
  40710c:	00000000 	nop
  407110:	0062102b 	sltu	v0,v1,v0
  407114:	1440ffdc 	bnez	v0,407088 <file_flush+0x3c>
  407118:	00000000 	nop
	...
/home/git/21373271/21373271/fs/fs.c:765
  407124:	03c0e825 	move	sp,s8
  407128:	8fbf0024 	lw	ra,36(sp)
  40712c:	8fbe0020 	lw	s8,32(sp)
  407130:	27bd0028 	addiu	sp,sp,40
  407134:	03e00008 	jr	ra
  407138:	00000000 	nop

0040713c <fs_sync>:
fs_sync():
/home/git/21373271/21373271/fs/fs.c:769
  40713c:	27bdffe0 	addiu	sp,sp,-32
  407140:	afbf001c 	sw	ra,28(sp)
  407144:	afbe0018 	sw	s8,24(sp)
  407148:	03a0f025 	move	s8,sp
/home/git/21373271/21373271/fs/fs.c:771
  40714c:	afc00010 	sw	zero,16(s8)
  407150:	10000011 	b	407198 <fs_sync+0x5c>
  407154:	00000000 	nop
/home/git/21373271/21373271/fs/fs.c:772
  407158:	8fc20010 	lw	v0,16(s8)
  40715c:	00000000 	nop
  407160:	00402025 	move	a0,v0
  407164:	0c10154b 	jal	40552c <block_is_dirty>
  407168:	00000000 	nop
  40716c:	10400006 	beqz	v0,407188 <fs_sync+0x4c>
  407170:	00000000 	nop
/home/git/21373271/21373271/fs/fs.c:773
  407174:	8fc20010 	lw	v0,16(s8)
  407178:	00000000 	nop
  40717c:	00402025 	move	a0,v0
  407180:	0c10158f 	jal	40563c <write_block>
  407184:	00000000 	nop
/home/git/21373271/21373271/fs/fs.c:771 (discriminator 2)
  407188:	8fc20010 	lw	v0,16(s8)
  40718c:	00000000 	nop
  407190:	24420001 	addiu	v0,v0,1
  407194:	afc20010 	sw	v0,16(s8)
/home/git/21373271/21373271/fs/fs.c:771 (discriminator 1)
  407198:	3c020041 	lui	v0,0x41
  40719c:	8c420000 	lw	v0,0(v0)
  4071a0:	00000000 	nop
  4071a4:	8c430004 	lw	v1,4(v0)
  4071a8:	8fc20010 	lw	v0,16(s8)
  4071ac:	00000000 	nop
  4071b0:	0043102b 	sltu	v0,v0,v1
  4071b4:	1440ffe8 	bnez	v0,407158 <fs_sync+0x1c>
  4071b8:	00000000 	nop
	...
/home/git/21373271/21373271/fs/fs.c:776
  4071c4:	03c0e825 	move	sp,s8
  4071c8:	8fbf001c 	lw	ra,28(sp)
  4071cc:	8fbe0018 	lw	s8,24(sp)
  4071d0:	27bd0020 	addiu	sp,sp,32
  4071d4:	03e00008 	jr	ra
  4071d8:	00000000 	nop

004071dc <file_close>:
file_close():
/home/git/21373271/21373271/fs/fs.c:780
  4071dc:	27bdffe8 	addiu	sp,sp,-24
  4071e0:	afbf0014 	sw	ra,20(sp)
  4071e4:	afbe0010 	sw	s8,16(sp)
  4071e8:	03a0f025 	move	s8,sp
  4071ec:	afc40018 	sw	a0,24(s8)
/home/git/21373271/21373271/fs/fs.c:782
  4071f0:	8fc40018 	lw	a0,24(s8)
  4071f4:	0c101c13 	jal	40704c <file_flush>
  4071f8:	00000000 	nop
/home/git/21373271/21373271/fs/fs.c:783
  4071fc:	8fc20018 	lw	v0,24(s8)
  407200:	00000000 	nop
  407204:	8c4200b4 	lw	v0,180(v0)
  407208:	00000000 	nop
  40720c:	10400008 	beqz	v0,407230 <file_close+0x54>
  407210:	00000000 	nop
/home/git/21373271/21373271/fs/fs.c:784
  407214:	8fc20018 	lw	v0,24(s8)
  407218:	00000000 	nop
  40721c:	8c4200b4 	lw	v0,180(v0)
  407220:	00000000 	nop
  407224:	00402025 	move	a0,v0
  407228:	0c101c13 	jal	40704c <file_flush>
  40722c:	00000000 	nop
/home/git/21373271/21373271/fs/fs.c:786
  407230:	00000000 	nop
  407234:	03c0e825 	move	sp,s8
  407238:	8fbf0014 	lw	ra,20(sp)
  40723c:	8fbe0010 	lw	s8,16(sp)
  407240:	27bd0018 	addiu	sp,sp,24
  407244:	03e00008 	jr	ra
  407248:	00000000 	nop

0040724c <file_remove>:
file_remove():
/home/git/21373271/21373271/fs/fs.c:790
  40724c:	27bdffe0 	addiu	sp,sp,-32
  407250:	afbf001c 	sw	ra,28(sp)
  407254:	afbe0018 	sw	s8,24(sp)
  407258:	03a0f025 	move	s8,sp
  40725c:	afc40020 	sw	a0,32(s8)
/home/git/21373271/21373271/fs/fs.c:795
  407260:	27c20014 	addiu	v0,s8,20
  407264:	00003825 	move	a3,zero
  407268:	00403025 	move	a2,v0
  40726c:	00002825 	move	a1,zero
  407270:	8fc40020 	lw	a0,32(s8)
  407274:	0c101a95 	jal	406a54 <walk_path>
  407278:	00000000 	nop
  40727c:	afc20010 	sw	v0,16(s8)
  407280:	8fc20010 	lw	v0,16(s8)
  407284:	00000000 	nop
  407288:	04410004 	bgez	v0,40729c <file_remove+0x50>
  40728c:	00000000 	nop
/home/git/21373271/21373271/fs/fs.c:796
  407290:	8fc20010 	lw	v0,16(s8)
  407294:	1000001c 	b	407308 <file_remove+0xbc>
  407298:	00000000 	nop
/home/git/21373271/21373271/fs/fs.c:800
  40729c:	8fc20014 	lw	v0,20(s8)
  4072a0:	00002825 	move	a1,zero
  4072a4:	00402025 	move	a0,v0
  4072a8:	0c101b8a 	jal	406e28 <file_truncate>
  4072ac:	00000000 	nop
/home/git/21373271/21373271/fs/fs.c:803
  4072b0:	8fc20014 	lw	v0,20(s8)
  4072b4:	00000000 	nop
  4072b8:	a0400000 	sb	zero,0(v0)
/home/git/21373271/21373271/fs/fs.c:806
  4072bc:	8fc20014 	lw	v0,20(s8)
  4072c0:	00000000 	nop
  4072c4:	00402025 	move	a0,v0
  4072c8:	0c101c13 	jal	40704c <file_flush>
  4072cc:	00000000 	nop
/home/git/21373271/21373271/fs/fs.c:807
  4072d0:	8fc20014 	lw	v0,20(s8)
  4072d4:	00000000 	nop
  4072d8:	8c4200b4 	lw	v0,180(v0)
  4072dc:	00000000 	nop
  4072e0:	10400008 	beqz	v0,407304 <file_remove+0xb8>
  4072e4:	00000000 	nop
/home/git/21373271/21373271/fs/fs.c:808
  4072e8:	8fc20014 	lw	v0,20(s8)
  4072ec:	00000000 	nop
  4072f0:	8c4200b4 	lw	v0,180(v0)
  4072f4:	00000000 	nop
  4072f8:	00402025 	move	a0,v0
  4072fc:	0c101c13 	jal	40704c <file_flush>
  407300:	00000000 	nop
/home/git/21373271/21373271/fs/fs.c:811
  407304:	00001025 	move	v0,zero
/home/git/21373271/21373271/fs/fs.c:812 (discriminator 1)
  407308:	03c0e825 	move	sp,s8
  40730c:	8fbf001c 	lw	ra,28(sp)
  407310:	8fbe0018 	lw	s8,24(sp)
  407314:	27bd0020 	addiu	sp,sp,32
  407318:	03e00008 	jr	ra
  40731c:	00000000 	nop

00407320 <ide_read>:
ide_read():
/home/git/21373271/21373271/fs/ide.c:28
  407320:	27bdffb0 	addiu	sp,sp,-80
  407324:	afbf004c 	sw	ra,76(sp)
  407328:	afbe0048 	sw	s8,72(sp)
  40732c:	03a0f025 	move	s8,sp
  407330:	afc40050 	sw	a0,80(s8)
  407334:	afc50054 	sw	a1,84(s8)
  407338:	afc60058 	sw	a2,88(s8)
  40733c:	afc7005c 	sw	a3,92(s8)
/home/git/21373271/21373271/fs/ide.c:29
  407340:	8fc20054 	lw	v0,84(s8)
  407344:	00000000 	nop
  407348:	00021240 	sll	v0,v0,0x9
  40734c:	afc20014 	sw	v0,20(s8)
/home/git/21373271/21373271/fs/ide.c:30
  407350:	8fc2005c 	lw	v0,92(s8)
  407354:	00000000 	nop
  407358:	00021240 	sll	v0,v0,0x9
  40735c:	8fc30014 	lw	v1,20(s8)
  407360:	00000000 	nop
  407364:	00621021 	addu	v0,v1,v0
  407368:	afc20018 	sw	v0,24(s8)
/home/git/21373271/21373271/fs/ide.c:31
  40736c:	afc00038 	sw	zero,56(s8)
/home/git/21373271/21373271/fs/ide.c:33
  407370:	afc00010 	sw	zero,16(s8)
  407374:	10000085 	b	40758c <ide_read+0x26c>
  407378:	00000000 	nop
/home/git/21373271/21373271/fs/ide.c:34
  40737c:	8fc20050 	lw	v0,80(s8)
  407380:	00000000 	nop
  407384:	afc2003c 	sw	v0,60(s8)
/home/git/21373271/21373271/fs/ide.c:35
  407388:	8fc30014 	lw	v1,20(s8)
  40738c:	8fc20010 	lw	v0,16(s8)
  407390:	00000000 	nop
  407394:	00621021 	addu	v0,v1,v0
  407398:	afc20040 	sw	v0,64(s8)
/home/git/21373271/21373271/fs/ide.c:36
  40739c:	8fc30058 	lw	v1,88(s8)
  4073a0:	8fc20010 	lw	v0,16(s8)
  4073a4:	00000000 	nop
  4073a8:	00621021 	addu	v0,v1,v0
  4073ac:	afc2001c 	sw	v0,28(s8)
/home/git/21373271/21373271/fs/ide.c:38
  4073b0:	27c3003c 	addiu	v1,s8,60
  4073b4:	24060004 	li	a2,4
  4073b8:	3c021300 	lui	v0,0x1300
  4073bc:	34450010 	ori	a1,v0,0x10
  4073c0:	00602025 	move	a0,v1
  4073c4:	0c100609 	jal	401824 <syscall_write_dev>
  4073c8:	00000000 	nop
  4073cc:	afc20020 	sw	v0,32(s8)
  4073d0:	8fc20020 	lw	v0,32(s8)
  4073d4:	00000000 	nop
  4073d8:	10400009 	beqz	v0,407400 <ide_read+0xe0>
  4073dc:	00000000 	nop
/home/git/21373271/21373271/fs/ide.c:38 (discriminator 1)
  4073e0:	8fc70020 	lw	a3,32(s8)
  4073e4:	3c020040 	lui	v0,0x40
  4073e8:	24467e10 	addiu	a2,v0,32272
  4073ec:	24050026 	li	a1,38
  4073f0:	3c020040 	lui	v0,0x40
  4073f4:	24447e68 	addiu	a0,v0,32360
  4073f8:	0c100393 	jal	400e4c <_user_panic>
  4073fc:	00000000 	nop
/home/git/21373271/21373271/fs/ide.c:39
  407400:	27c20040 	addiu	v0,s8,64
  407404:	24060004 	li	a2,4
  407408:	3c051300 	lui	a1,0x1300
  40740c:	00402025 	move	a0,v0
  407410:	0c100609 	jal	401824 <syscall_write_dev>
  407414:	00000000 	nop
  407418:	afc20024 	sw	v0,36(s8)
  40741c:	8fc20024 	lw	v0,36(s8)
  407420:	00000000 	nop
  407424:	10400009 	beqz	v0,40744c <ide_read+0x12c>
  407428:	00000000 	nop
/home/git/21373271/21373271/fs/ide.c:39 (discriminator 1)
  40742c:	8fc70024 	lw	a3,36(s8)
  407430:	3c020040 	lui	v0,0x40
  407434:	24467e70 	addiu	a2,v0,32368
  407438:	24050027 	li	a1,39
  40743c:	3c020040 	lui	v0,0x40
  407440:	24447e68 	addiu	a0,v0,32360
  407444:	0c100393 	jal	400e4c <_user_panic>
  407448:	00000000 	nop
/home/git/21373271/21373271/fs/ide.c:40
  40744c:	27c30038 	addiu	v1,s8,56
  407450:	24060004 	li	a2,4
  407454:	3c021300 	lui	v0,0x1300
  407458:	34450020 	ori	a1,v0,0x20
  40745c:	00602025 	move	a0,v1
  407460:	0c100609 	jal	401824 <syscall_write_dev>
  407464:	00000000 	nop
  407468:	afc20028 	sw	v0,40(s8)
  40746c:	8fc20028 	lw	v0,40(s8)
  407470:	00000000 	nop
  407474:	10400009 	beqz	v0,40749c <ide_read+0x17c>
  407478:	00000000 	nop
/home/git/21373271/21373271/fs/ide.c:40 (discriminator 1)
  40747c:	8fc70028 	lw	a3,40(s8)
  407480:	3c020040 	lui	v0,0x40
  407484:	24467ec4 	addiu	a2,v0,32452
  407488:	24050028 	li	a1,40
  40748c:	3c020040 	lui	v0,0x40
  407490:	24447e68 	addiu	a0,v0,32360
  407494:	0c100393 	jal	400e4c <_user_panic>
  407498:	00000000 	nop
/home/git/21373271/21373271/fs/ide.c:42
  40749c:	27c30044 	addiu	v1,s8,68
  4074a0:	24060004 	li	a2,4
  4074a4:	3c021300 	lui	v0,0x1300
  4074a8:	34450030 	ori	a1,v0,0x30
  4074ac:	00602025 	move	a0,v1
  4074b0:	0c10061c 	jal	401870 <syscall_read_dev>
  4074b4:	00000000 	nop
  4074b8:	afc2002c 	sw	v0,44(s8)
  4074bc:	8fc2002c 	lw	v0,44(s8)
  4074c0:	00000000 	nop
  4074c4:	10400009 	beqz	v0,4074ec <ide_read+0x1cc>
  4074c8:	00000000 	nop
/home/git/21373271/21373271/fs/ide.c:42 (discriminator 1)
  4074cc:	8fc7002c 	lw	a3,44(s8)
  4074d0:	3c020040 	lui	v0,0x40
  4074d4:	24467f28 	addiu	a2,v0,32552
  4074d8:	2405002a 	li	a1,42
  4074dc:	3c020040 	lui	v0,0x40
  4074e0:	24447e68 	addiu	a0,v0,32360
  4074e4:	0c100393 	jal	400e4c <_user_panic>
  4074e8:	00000000 	nop
/home/git/21373271/21373271/fs/ide.c:43
  4074ec:	8fc20044 	lw	v0,68(s8)
  4074f0:	00000000 	nop
  4074f4:	2c420001 	sltiu	v0,v0,1
  4074f8:	304200ff 	andi	v0,v0,0xff
  4074fc:	afc20030 	sw	v0,48(s8)
  407500:	8fc20030 	lw	v0,48(s8)
  407504:	00000000 	nop
  407508:	10400009 	beqz	v0,407530 <ide_read+0x210>
  40750c:	00000000 	nop
/home/git/21373271/21373271/fs/ide.c:43 (discriminator 1)
  407510:	8fc70030 	lw	a3,48(s8)
  407514:	3c020040 	lui	v0,0x40
  407518:	24467f88 	addiu	a2,v0,32648
  40751c:	2405002b 	li	a1,43
  407520:	3c020040 	lui	v0,0x40
  407524:	24447e68 	addiu	a0,v0,32360
  407528:	0c100393 	jal	400e4c <_user_panic>
  40752c:	00000000 	nop
/home/git/21373271/21373271/fs/ide.c:44
  407530:	24060200 	li	a2,512
  407534:	3c021300 	lui	v0,0x1300
  407538:	34454000 	ori	a1,v0,0x4000
  40753c:	8fc4001c 	lw	a0,28(s8)
  407540:	0c10061c 	jal	401870 <syscall_read_dev>
  407544:	00000000 	nop
  407548:	afc20034 	sw	v0,52(s8)
  40754c:	8fc20034 	lw	v0,52(s8)
  407550:	00000000 	nop
  407554:	10400009 	beqz	v0,40757c <ide_read+0x25c>
  407558:	00000000 	nop
/home/git/21373271/21373271/fs/ide.c:44 (discriminator 1)
  40755c:	8fc70034 	lw	a3,52(s8)
  407560:	3c020040 	lui	v0,0x40
  407564:	24467fa4 	addiu	a2,v0,32676
  407568:	2405002c 	li	a1,44
  40756c:	3c020040 	lui	v0,0x40
  407570:	24447e68 	addiu	a0,v0,32360
  407574:	0c100393 	jal	400e4c <_user_panic>
  407578:	00000000 	nop
/home/git/21373271/21373271/fs/ide.c:33 (discriminator 2)
  40757c:	8fc20010 	lw	v0,16(s8)
  407580:	00000000 	nop
  407584:	24420200 	addiu	v0,v0,512
  407588:	afc20010 	sw	v0,16(s8)
/home/git/21373271/21373271/fs/ide.c:33 (discriminator 1)
  40758c:	8fc30014 	lw	v1,20(s8)
  407590:	8fc20010 	lw	v0,16(s8)
  407594:	00000000 	nop
  407598:	00621021 	addu	v0,v1,v0
  40759c:	8fc30018 	lw	v1,24(s8)
  4075a0:	00000000 	nop
  4075a4:	0043102b 	sltu	v0,v0,v1
  4075a8:	1440ff74 	bnez	v0,40737c <ide_read+0x5c>
  4075ac:	00000000 	nop
	...
/home/git/21373271/21373271/fs/ide.c:46
  4075b8:	03c0e825 	move	sp,s8
  4075bc:	8fbf004c 	lw	ra,76(sp)
  4075c0:	8fbe0048 	lw	s8,72(sp)
  4075c4:	27bd0050 	addiu	sp,sp,80
  4075c8:	03e00008 	jr	ra
  4075cc:	00000000 	nop

004075d0 <ide_write>:
ide_write():
/home/git/21373271/21373271/fs/ide.c:64
  4075d0:	27bdffb0 	addiu	sp,sp,-80
  4075d4:	afbf004c 	sw	ra,76(sp)
  4075d8:	afbe0048 	sw	s8,72(sp)
  4075dc:	03a0f025 	move	s8,sp
  4075e0:	afc40050 	sw	a0,80(s8)
  4075e4:	afc50054 	sw	a1,84(s8)
  4075e8:	afc60058 	sw	a2,88(s8)
  4075ec:	afc7005c 	sw	a3,92(s8)
/home/git/21373271/21373271/fs/ide.c:65
  4075f0:	8fc20054 	lw	v0,84(s8)
  4075f4:	00000000 	nop
  4075f8:	00021240 	sll	v0,v0,0x9
  4075fc:	afc20014 	sw	v0,20(s8)
/home/git/21373271/21373271/fs/ide.c:66
  407600:	8fc2005c 	lw	v0,92(s8)
  407604:	00000000 	nop
  407608:	00021240 	sll	v0,v0,0x9
  40760c:	8fc30014 	lw	v1,20(s8)
  407610:	00000000 	nop
  407614:	00621021 	addu	v0,v1,v0
  407618:	afc20018 	sw	v0,24(s8)
/home/git/21373271/21373271/fs/ide.c:67
  40761c:	24020001 	li	v0,1
  407620:	afc20038 	sw	v0,56(s8)
/home/git/21373271/21373271/fs/ide.c:69
  407624:	afc00010 	sw	zero,16(s8)
  407628:	10000085 	b	407840 <ide_write+0x270>
  40762c:	00000000 	nop
/home/git/21373271/21373271/fs/ide.c:70
  407630:	8fc20050 	lw	v0,80(s8)
  407634:	00000000 	nop
  407638:	afc2003c 	sw	v0,60(s8)
/home/git/21373271/21373271/fs/ide.c:72
  40763c:	8fc30014 	lw	v1,20(s8)
  407640:	8fc20010 	lw	v0,16(s8)
  407644:	00000000 	nop
  407648:	00621021 	addu	v0,v1,v0
  40764c:	afc20040 	sw	v0,64(s8)
/home/git/21373271/21373271/fs/ide.c:73
  407650:	8fc30058 	lw	v1,88(s8)
  407654:	8fc20010 	lw	v0,16(s8)
  407658:	00000000 	nop
  40765c:	00621021 	addu	v0,v1,v0
  407660:	afc2001c 	sw	v0,28(s8)
/home/git/21373271/21373271/fs/ide.c:74
  407664:	24060200 	li	a2,512
  407668:	3c021300 	lui	v0,0x1300
  40766c:	34454000 	ori	a1,v0,0x4000
  407670:	8fc4001c 	lw	a0,28(s8)
  407674:	0c100609 	jal	401824 <syscall_write_dev>
  407678:	00000000 	nop
  40767c:	afc20020 	sw	v0,32(s8)
  407680:	8fc20020 	lw	v0,32(s8)
  407684:	00000000 	nop
  407688:	10400009 	beqz	v0,4076b0 <ide_write+0xe0>
  40768c:	00000000 	nop
/home/git/21373271/21373271/fs/ide.c:74 (discriminator 1)
  407690:	8fc70020 	lw	a3,32(s8)
  407694:	3c020041 	lui	v0,0x41
  407698:	24468008 	addiu	a2,v0,-32760
  40769c:	2405004a 	li	a1,74
  4076a0:	3c020040 	lui	v0,0x40
  4076a4:	24447e68 	addiu	a0,v0,32360
  4076a8:	0c100393 	jal	400e4c <_user_panic>
  4076ac:	00000000 	nop
/home/git/21373271/21373271/fs/ide.c:75
  4076b0:	27c3003c 	addiu	v1,s8,60
  4076b4:	24060004 	li	a2,4
  4076b8:	3c021300 	lui	v0,0x1300
  4076bc:	34450010 	ori	a1,v0,0x10
  4076c0:	00602025 	move	a0,v1
  4076c4:	0c100609 	jal	401824 <syscall_write_dev>
  4076c8:	00000000 	nop
  4076cc:	afc20024 	sw	v0,36(s8)
  4076d0:	8fc20024 	lw	v0,36(s8)
  4076d4:	00000000 	nop
  4076d8:	10400009 	beqz	v0,407700 <ide_write+0x130>
  4076dc:	00000000 	nop
/home/git/21373271/21373271/fs/ide.c:75 (discriminator 1)
  4076e0:	8fc70024 	lw	a3,36(s8)
  4076e4:	3c020040 	lui	v0,0x40
  4076e8:	24467e10 	addiu	a2,v0,32272
  4076ec:	2405004b 	li	a1,75
  4076f0:	3c020040 	lui	v0,0x40
  4076f4:	24447e68 	addiu	a0,v0,32360
  4076f8:	0c100393 	jal	400e4c <_user_panic>
  4076fc:	00000000 	nop
/home/git/21373271/21373271/fs/ide.c:76
  407700:	27c20040 	addiu	v0,s8,64
  407704:	24060004 	li	a2,4
  407708:	3c051300 	lui	a1,0x1300
  40770c:	00402025 	move	a0,v0
  407710:	0c100609 	jal	401824 <syscall_write_dev>
  407714:	00000000 	nop
  407718:	afc20028 	sw	v0,40(s8)
  40771c:	8fc20028 	lw	v0,40(s8)
  407720:	00000000 	nop
  407724:	10400009 	beqz	v0,40774c <ide_write+0x17c>
  407728:	00000000 	nop
/home/git/21373271/21373271/fs/ide.c:76 (discriminator 1)
  40772c:	8fc70028 	lw	a3,40(s8)
  407730:	3c020040 	lui	v0,0x40
  407734:	24467e70 	addiu	a2,v0,32368
  407738:	2405004c 	li	a1,76
  40773c:	3c020040 	lui	v0,0x40
  407740:	24447e68 	addiu	a0,v0,32360
  407744:	0c100393 	jal	400e4c <_user_panic>
  407748:	00000000 	nop
/home/git/21373271/21373271/fs/ide.c:77
  40774c:	27c30038 	addiu	v1,s8,56
  407750:	24060004 	li	a2,4
  407754:	3c021300 	lui	v0,0x1300
  407758:	34450020 	ori	a1,v0,0x20
  40775c:	00602025 	move	a0,v1
  407760:	0c100609 	jal	401824 <syscall_write_dev>
  407764:	00000000 	nop
  407768:	afc2002c 	sw	v0,44(s8)
  40776c:	8fc2002c 	lw	v0,44(s8)
  407770:	00000000 	nop
  407774:	10400009 	beqz	v0,40779c <ide_write+0x1cc>
  407778:	00000000 	nop
/home/git/21373271/21373271/fs/ide.c:77 (discriminator 1)
  40777c:	8fc7002c 	lw	a3,44(s8)
  407780:	3c020041 	lui	v0,0x41
  407784:	2446806c 	addiu	a2,v0,-32660
  407788:	2405004d 	li	a1,77
  40778c:	3c020040 	lui	v0,0x40
  407790:	24447e68 	addiu	a0,v0,32360
  407794:	0c100393 	jal	400e4c <_user_panic>
  407798:	00000000 	nop
/home/git/21373271/21373271/fs/ide.c:79
  40779c:	27c30044 	addiu	v1,s8,68
  4077a0:	24060004 	li	a2,4
  4077a4:	3c021300 	lui	v0,0x1300
  4077a8:	34450030 	ori	a1,v0,0x30
  4077ac:	00602025 	move	a0,v1
  4077b0:	0c10061c 	jal	401870 <syscall_read_dev>
  4077b4:	00000000 	nop
  4077b8:	afc20030 	sw	v0,48(s8)
  4077bc:	8fc20030 	lw	v0,48(s8)
  4077c0:	00000000 	nop
  4077c4:	10400009 	beqz	v0,4077ec <ide_write+0x21c>
  4077c8:	00000000 	nop
/home/git/21373271/21373271/fs/ide.c:79 (discriminator 1)
  4077cc:	8fc70030 	lw	a3,48(s8)
  4077d0:	3c020040 	lui	v0,0x40
  4077d4:	24467f28 	addiu	a2,v0,32552
  4077d8:	2405004f 	li	a1,79
  4077dc:	3c020040 	lui	v0,0x40
  4077e0:	24447e68 	addiu	a0,v0,32360
  4077e4:	0c100393 	jal	400e4c <_user_panic>
  4077e8:	00000000 	nop
/home/git/21373271/21373271/fs/ide.c:80
  4077ec:	8fc20044 	lw	v0,68(s8)
  4077f0:	00000000 	nop
  4077f4:	2c420001 	sltiu	v0,v0,1
  4077f8:	304200ff 	andi	v0,v0,0xff
  4077fc:	afc20034 	sw	v0,52(s8)
  407800:	8fc20034 	lw	v0,52(s8)
  407804:	00000000 	nop
  407808:	10400009 	beqz	v0,407830 <ide_write+0x260>
  40780c:	00000000 	nop
/home/git/21373271/21373271/fs/ide.c:80 (discriminator 1)
  407810:	8fc70034 	lw	a3,52(s8)
  407814:	3c020040 	lui	v0,0x40
  407818:	24467f88 	addiu	a2,v0,32648
  40781c:	24050050 	li	a1,80
  407820:	3c020040 	lui	v0,0x40
  407824:	24447e68 	addiu	a0,v0,32360
  407828:	0c100393 	jal	400e4c <_user_panic>
  40782c:	00000000 	nop
/home/git/21373271/21373271/fs/ide.c:69 (discriminator 2)
  407830:	8fc20010 	lw	v0,16(s8)
  407834:	00000000 	nop
  407838:	24420200 	addiu	v0,v0,512
  40783c:	afc20010 	sw	v0,16(s8)
/home/git/21373271/21373271/fs/ide.c:69 (discriminator 1)
  407840:	8fc30014 	lw	v1,20(s8)
  407844:	8fc20010 	lw	v0,16(s8)
  407848:	00000000 	nop
  40784c:	00621021 	addu	v0,v1,v0
  407850:	8fc30018 	lw	v1,24(s8)
  407854:	00000000 	nop
  407858:	0043102b 	sltu	v0,v0,v1
  40785c:	1440ff74 	bnez	v0,407630 <ide_write+0x60>
  407860:	00000000 	nop
	...
/home/git/21373271/21373271/fs/ide.c:82
  40786c:	03c0e825 	move	sp,s8
  407870:	8fbf004c 	lw	ra,76(sp)
  407874:	8fbe0048 	lw	s8,72(sp)
  407878:	27bd0050 	addiu	sp,sp,80
  40787c:	03e00008 	jr	ra
  407880:	00000000 	nop
	...
  407890:	61766e49 	0x61766e49
  407894:	2064696c 	addi	a0,v1,26988
  407898:	75716572 	jalx	5c595c8 <end+0x58495b8>
  40789c:	20747365 	addi	s4,v1,29541
  4078a0:	6d6f7266 	0x6d6f7266
  4078a4:	38302520 	xori	s0,at,0x2520
  4078a8:	6e203a78 	0x6e203a78
  4078ac:	7261206f 	0x7261206f
  4078b0:	656d7567 	0x656d7567
  4078b4:	7020746e 	0x7020746e
  4078b8:	0a656761 	j	9959d84 <end+0x9549d74>
  4078bc:	00000000 	nop
  4078c0:	61766e49 	0x61766e49
  4078c4:	2064696c 	addi	a0,v1,26988
  4078c8:	75716572 	jalx	5c595c8 <end+0x58495b8>
  4078cc:	20747365 	addi	s4,v1,29541
  4078d0:	65646f63 	0x65646f63
  4078d4:	20642520 	addi	a0,v1,9504
  4078d8:	6d6f7266 	0x6d6f7266
  4078dc:	38302520 	xori	s0,at,0x2520
  4078e0:	00000a78 	0xa78
  4078e4:	00400ac4 	0x400ac4
  4078e8:	004009e8 	0x4009e8
  4078ec:	00400a08 	0x400a08
  4078f0:	00400a28 	0x400a28
  4078f4:	00400a48 	0x400a48
  4078f8:	00400a68 	0x400a68
  4078fc:	00400a88 	0x400a88
  407900:	00400aa8 	0x400aa8
  407904:	69205346 	0x69205346
  407908:	75722073 	jalx	5c881cc <end+0x58781bc>
  40790c:	6e696e6e 	0x6e696e6e
  407910:	00000a67 	0xa67
	...
  407920:	63737973 	0x63737973
  407924:	5f6c6c61 	0x5f6c6c61
  407928:	6e697270 	0x6e697270
  40792c:	6f635f74 	0x6f635f74
  407930:	203a736e 	addi	k0,at,29550
  407934:	00006425 	0x6425
  407938:	2f62696c 	sltiu	v0,k1,26988
  40793c:	75626564 	jalx	5899590 <end+0x5489580>
  407940:	632e6667 	0x632e6667
  407944:	00000000 	nop
  407948:	696e6170 	0x696e6170
  40794c:	74612063 	jalx	184818c <end+0x143817c>
  407950:	3a732520 	xori	s3,s3,0x2520
  407954:	203a6425 	addi	k0,at,25637
  407958:	00000000 	nop
  40795c:	0000000a 	0xa
  407960:	746c6168 	jalx	1b185a0 <end+0x1708590>
  407964:	20746120 	addi	s4,v1,24864
  407968:	253a7325 	addiu	k0,t1,29477
  40796c:	00203a64 	0x203a64
  407970:	72657375 	0x72657375
  407974:	6c616820 	0x6c616820
  407978:	00000074 	0x74
  40797c:	00000000 	nop
  407980:	65726e75 	0x65726e75
  407984:	61686361 	0x61686361
  407988:	20656c62 	addi	a1,v1,27746
  40798c:	65646f63 	0x65646f63
  407990:	00000000 	nop
  407994:	2f62696c 	sltiu	v0,k1,26988
  407998:	6f62696c 	0x6f62696c
  40799c:	00632e73 	0x632e73
  4079a0:	61666770 	0x61666770
  4079a4:	20746c75 	addi	s4,v1,27765
  4079a8:	3a727265 	xori	s2,s3,0x7265
  4079ac:	574f4320 	0x574f4320
  4079b0:	746f6e20 	jalx	1bdb880 <end+0x17cb870>
  4079b4:	756f6620 	jalx	5bd9880 <end+0x57c9870>
  4079b8:	0000646e 	0x646e
  4079bc:	2f62696c 	sltiu	v0,k1,26988
  4079c0:	6b726f66 	0x6b726f66
  4079c4:	0000632e 	0x632e
  4079c8:	63737973 	0x63737973
  4079cc:	5f6c6c61 	0x5f6c6c61
  4079d0:	5f746573 	0x5f746573
  4079d4:	70617274 	0x70617274
  4079d8:	6d617266 	0x6d617266
  4079dc:	65722065 	0x65722065
  4079e0:	6e727574 	0x6e727574
  4079e4:	25206465 	addiu	zero,t1,25701
  4079e8:	00000064 	0x64
  4079ec:	00000000 	nop
  4079f0:	5f535953 	0x5f535953
  4079f4:	696e6170 	0x696e6170
  4079f8:	65722063 	0x65722063
  4079fc:	6e727574 	0x6e727574
  407a00:	25206465 	addiu	zero,t1,25701
  407a04:	00000064 	0x64
  407a08:	2f62696c 	sltiu	v0,k1,26988
  407a0c:	63737973 	0x63737973
  407a10:	5f6c6c61 	0x5f6c6c61
  407a14:	2e62696c 	sltiu	v0,s3,26988
  407a18:	00000063 	0x63
  407a1c:	00000000 	nop
  407a20:	3d3d2072 	0x3d3d2072
  407a24:	00003020 	add	a2,zero,zero
  407a28:	65737361 	0x65737361
  407a2c:	6f697472 	0x6f697472
  407a30:	6166206e 	0x6166206e
  407a34:	64656c69 	0x64656c69
  407a38:	7325203a 	0x7325203a
  407a3c:	00000000 	nop
  407a40:	2f62696c 	sltiu	v0,k1,26988
  407a44:	2e637069 	sltiu	v1,s3,28777
  407a48:	00000063 	0x63
  407a4c:	63737973 	0x63737973
  407a50:	5f6c6c61 	0x5f6c6c61
  407a54:	5f637069 	0x5f637069
  407a58:	76636572 	jalx	98d95c8 <end+0x94c95b8>
  407a5c:	72726520 	0x72726520
  407a60:	6425203a 	0x6425203a
	...
  407a70:	3830255b 	xori	s0,at,0x255b
  407a74:	75205d78 	jalx	48175e0 <end+0x44075d0>
  407a78:	6f6e6b6e 	0x6f6e6b6e
  407a7c:	64206e77 	0x64206e77
  407a80:	63697665 	0x63697665
  407a84:	79742065 	0x79742065
  407a88:	25206570 	addiu	zero,t1,25968
  407a8c:	00000a64 	0xa64
  407a90:	656c6966 	0x656c6966
  407a94:	00000000 	nop
  407a98:	6e6e6163 	0x6e6e6163
  407a9c:	6320746f 	0x6320746f
  407aa0:	65736f6c 	0x65736f6c
  407aa4:	65687420 	0x65687420
  407aa8:	6c696620 	0x6c696620
  407aac:	00000a65 	0xa65
  407ab0:	6e6e6163 	0x6e6e6163
  407ab4:	20746e6f 	addi	s4,v1,28271
  407ab8:	616d6e75 	0x616d6e75
  407abc:	68742070 	0x68742070
  407ac0:	69662065 	0x69662065
  407ac4:	0a2e656c 	j	8b995b0 <end+0x87895a0>
  407ac8:	00000000 	nop
  407acc:	75727466 	jalx	5c9d198 <end+0x588d188>
  407ad0:	7461636e 	jalx	1858db8 <end+0x1448da8>
  407ad4:	73203a65 	0x73203a65
  407ad8:	61637379 	0x61637379
  407adc:	6d5f6c6c 	0x6d5f6c6c
  407ae0:	755f6d65 	jalx	57db594 <end+0x53cb584>
  407ae4:	70616d6e 	0x70616d6e
  407ae8:	38302520 	xori	s0,at,0x2520
  407aec:	25203a78 	addiu	zero,t1,14968
  407af0:	00000065 	0x65
  407af4:	2f62696c 	sltiu	v0,k1,26988
  407af8:	656c6966 	0x656c6966
  407afc:	0000632e 	0x632e
  407b00:	70697366 	0x70697366
  407b04:	616d5f63 	0x616d5f63
  407b08:	75203a70 	jalx	480e9c0 <end+0x43fe9b0>
  407b0c:	7078656e 	0x7078656e
  407b10:	65746365 	0x65746365
  407b14:	65702064 	0x65702064
  407b18:	73696d72 	0x73696d72
  407b1c:	6e6f6973 	0x6e6f6973
  407b20:	30252073 	andi	a1,at,0x2073
  407b24:	66207838 	0x66207838
  407b28:	6420726f 	0x6420726f
  407b2c:	61767473 	0x61767473
  407b30:	38302520 	xori	s0,at,0x2520
  407b34:	00000078 	0x78
  407b38:	2f62696c 	sltiu	v0,k1,26988
  407b3c:	70697366 	0x70697366
  407b40:	00632e63 	0x632e63
	...
  407b50:	736e6f63 	0x736e6f63
  407b54:	00000000 	nop
  407b58:	00006325 	0x6325
  407b5c:	0000000a 	0xa
  407b60:	6e6f633c 	0x6e6f633c
  407b64:	00003e73 	0x3e73
	...
  407b70:	00404248 	0x404248
  407b74:	00404648 	0x404648
  407b78:	00404648 	0x404648
  407b7c:	00404648 	0x404648
  407b80:	00404648 	0x404648
  407b84:	00404648 	0x404648
  407b88:	00404648 	0x404648
  407b8c:	00404648 	0x404648
  407b90:	00404648 	0x404648
  407b94:	00404648 	0x404648
  407b98:	00404648 	0x404648
  407b9c:	00404318 	0x404318
  407ba0:	00404648 	0x404648
  407ba4:	00404648 	0x404648
  407ba8:	00404648 	0x404648
  407bac:	00404648 	0x404648
  407bb0:	00404648 	0x404648
  407bb4:	004043b8 	0x4043b8
  407bb8:	00404648 	0x404648
  407bbc:	00404648 	0x404648
  407bc0:	004044f8 	0x4044f8
  407bc4:	00404648 	0x404648
  407bc8:	00404648 	0x404648
  407bcc:	00404648 	0x404648
  407bd0:	00404648 	0x404648
  407bd4:	00404648 	0x404648
  407bd8:	00404648 	0x404648
  407bdc:	00404648 	0x404648
  407be0:	00404648 	0x404648
  407be4:	00404648 	0x404648
  407be8:	004041a8 	0x4041a8
  407bec:	0040459c 	0x40459c
  407bf0:	00404248 	0x404248
  407bf4:	00404648 	0x404648
  407bf8:	00404648 	0x404648
  407bfc:	00404648 	0x404648
  407c00:	00404648 	0x404648
  407c04:	00404648 	0x404648
  407c08:	00404648 	0x404648
  407c0c:	00404648 	0x404648
  407c10:	00404648 	0x404648
  407c14:	00404648 	0x404648
  407c18:	00404648 	0x404648
  407c1c:	00404318 	0x404318
  407c20:	00404648 	0x404648
  407c24:	00404648 	0x404648
  407c28:	00404648 	0x404648
  407c2c:	004045e8 	0x4045e8
  407c30:	00404648 	0x404648
  407c34:	004043b8 	0x4043b8
  407c38:	00404648 	0x404648
  407c3c:	00404648 	0x404648
  407c40:	00404458 	0x404458
  407c44:	00000020 	add	zero,zero,zero
	...
  407c50:	74697277 	jalx	1a5c9dc <end+0x164c9cc>
  407c54:	6e752065 	0x6e752065
  407c58:	7070616d 	0x7070616d
  407c5c:	62206465 	0x62206465
  407c60:	6b636f6c 	0x6b636f6c
  407c64:	38302520 	xori	s0,at,0x2520
  407c68:	00000078 	0x78
  407c6c:	632e7366 	0x632e7366
  407c70:	00000000 	nop
  407c74:	64616572 	0x64616572
  407c78:	20676e69 	addi	a3,v1,28265
  407c7c:	2d6e6f6e 	sltiu	t6,t3,28526
  407c80:	73697865 	0x73697865
  407c84:	746e6574 	jalx	1b995d0 <end+0x17895c0>
  407c88:	6f6c6220 	0x6f6c6220
  407c8c:	25206b63 	addiu	zero,t1,27491
  407c90:	0a783830 	j	9e0e0c0 <end+0x99fe0b0>
  407c94:	00000000 	nop
  407c98:	64616572 	0x64616572
  407c9c:	20676e69 	addi	a3,v1,28265
  407ca0:	65657266 	0x65657266
  407ca4:	6f6c6220 	0x6f6c6220
  407ca8:	25206b63 	addiu	zero,t1,27491
  407cac:	0a783830 	j	9e0e0c0 <end+0x99fe0b0>
  407cb0:	00000000 	nop
  407cb4:	6f6c6221 	0x6f6c6221
  407cb8:	695f6b63 	0x695f6b63
  407cbc:	616d5f73 	0x616d5f73
  407cc0:	64657070 	0x64657070
  407cc4:	6f6c6228 	0x6f6c6228
  407cc8:	6f6e6b63 	0x6f6e6b63
  407ccc:	00000029 	0x29
  407cd0:	65737361 	0x65737361
  407cd4:	6f697472 	0x6f697472
  407cd8:	6166206e 	0x6166206e
  407cdc:	64656c69 	0x64656c69
  407ce0:	7325203a 	0x7325203a
  407ce4:	00000000 	nop
  407ce8:	6e6e6163 	0x6e6e6163
  407cec:	7220746f 	0x7220746f
  407cf0:	20646165 	addi	a0,v1,24933
  407cf4:	65707573 	0x65707573
  407cf8:	6f6c6272 	0x6f6c6272
  407cfc:	203a6b63 	addi	k0,at,27491
  407d00:	00006525 	0x6525
  407d04:	20646162 	addi	a0,v1,24930
  407d08:	656c6966 	0x656c6966
  407d0c:	73797320 	0x73797320
  407d10:	206d6574 	addi	t5,v1,25972
  407d14:	6967616d 	0x6967616d
  407d18:	756e2063 	jalx	5b8818c <end+0x577817c>
  407d1c:	7265626d 	0x7265626d
  407d20:	20782520 	addi	t8,v1,9504
  407d24:	00007825 	move	t7,zero
  407d28:	656c6966 	0x656c6966
  407d2c:	73797320 	0x73797320
  407d30:	206d6574 	addi	t5,v1,25972
  407d34:	74207369 	jalx	81cda4 <end+0x40cd94>
  407d38:	6c206f6f 	0x6c206f6f
  407d3c:	65677261 	0x65677261
  407d40:	00000000 	nop
  407d44:	65707573 	0x65707573
  407d48:	6f6c6272 	0x6f6c6272
  407d4c:	69206b63 	0x69206b63
  407d50:	6f672073 	0x6f672073
  407d54:	000a646f 	0xa646f
  407d58:	6f6c6221 	0x6f6c6221
  407d5c:	695f6b63 	0x695f6b63
  407d60:	72665f73 	0x72665f73
  407d64:	30286565 	andi	t0,at,0x6565
  407d68:	00000029 	0x29
  407d6c:	6f6c6221 	0x6f6c6221
  407d70:	695f6b63 	0x695f6b63
  407d74:	72665f73 	0x72665f73
  407d78:	31286565 	andi	t0,t1,0x6565
  407d7c:	00000029 	0x29
  407d80:	6f6c6221 	0x6f6c6221
  407d84:	695f6b63 	0x695f6b63
  407d88:	72665f73 	0x72665f73
  407d8c:	69286565 	0x69286565
  407d90:	32202b20 	andi	zero,s1,0x2b20
  407d94:	00000029 	0x29
  407d98:	64616572 	0x64616572
  407d9c:	7469625f 	jalx	1a5897c <end+0x164896c>
  407da0:	2070616d 	addi	s0,v1,24941
  407da4:	67207369 	0x67207369
  407da8:	0a646f6f 	j	991bdbc <end+0x950bdac>
  407dac:	00000000 	nop
  407db0:	53504f4f 	0x53504f4f
  407db4:	00000a21 	0xa21
  407db8:	636f6c62 	0x636f6c62
  407dbc:	73695f6b 	0x73695f6b
  407dc0:	70616d5f 	0x70616d5f
  407dc4:	28646570 	slti	a0,v1,25968
  407dc8:	00002931 	0x2931
  407dcc:	6f6c6221 	0x6f6c6221
  407dd0:	695f6b63 	0x695f6b63
  407dd4:	616d5f73 	0x616d5f73
  407dd8:	64657070 	0x64657070
  407ddc:	00293128 	0x293128
  407de0:	63727473 	0x63727473
  407de4:	2828706d 	slti	t0,at,28781
  407de8:	72616863 	0x72616863
  407dec:	64292a20 	0x64292a20
  407df0:	616b7369 	0x616b7369
  407df4:	28726464 	slti	s2,v1,25700
  407df8:	202c2931 	addi	t4,at,10545
  407dfc:	504f4f22 	0x504f4f22
  407e00:	6e5c2153 	0x6e5c2153
  407e04:	3d202922 	0x3d202922
  407e08:	0030203d 	0x30203d
  407e0c:	00000000 	nop
  407e10:	73797327 	0x73797327
  407e14:	6c6c6163 	0x6c6c6163
  407e18:	6972775f 	0x6972775f
  407e1c:	645f6574 	0x645f6574
  407e20:	20287665 	addi	t0,at,30309
  407e24:	696f7628 	0x696f7628
  407e28:	292a2064 	slti	t2,t1,8292
  407e2c:	6d657426 	0x6d657426
  407e30:	202c2070 	addi	t4,at,8304
  407e34:	5f564544 	0x5f564544
  407e38:	4b534944 	c2	0x1534944
  407e3c:	4444415f 	0x4444415f
  407e40:	53534552 	0x53534552
  407e44:	44202b20 	0x44202b20
  407e48:	445f5645 	0x445f5645
  407e4c:	5f4b5349 	0x5f4b5349
  407e50:	2c204449 	sltiu	zero,at,17481
  407e54:	29203420 	slti	zero,t1,13344
  407e58:	65722027 	0x65722027
  407e5c:	6e727574 	0x6e727574
  407e60:	25206465 	addiu	zero,t1,25701
  407e64:	00000064 	0x64
  407e68:	2e656469 	sltiu	a1,s3,25705
  407e6c:	00000063 	0x63
  407e70:	73797327 	0x73797327
  407e74:	6c6c6163 	0x6c6c6163
  407e78:	6972775f 	0x6972775f
  407e7c:	645f6574 	0x645f6574
  407e80:	20287665 	addi	t0,at,30309
  407e84:	696f7628 	0x696f7628
  407e88:	292a2064 	slti	t2,t1,8292
  407e8c:	73696426 	0x73696426
  407e90:	75635f6b 	jalx	58d7dac <end+0x54c7d9c>
  407e94:	666f5f72 	0x666f5f72
  407e98:	74657366 	jalx	195cd98 <end+0x154cd88>
  407e9c:	44202c20 	0x44202c20
  407ea0:	445f5645 	0x445f5645
  407ea4:	5f4b5349 	0x5f4b5349
  407ea8:	52444441 	0x52444441
  407eac:	20535345 	addi	s3,v0,21317
  407eb0:	2034202c 	addi	s4,at,8236
  407eb4:	72202729 	0x72202729
  407eb8:	72757465 	0x72757465
  407ebc:	2064656e 	addi	a0,v1,25966
  407ec0:	00006425 	0x6425
  407ec4:	73797327 	0x73797327
  407ec8:	6c6c6163 	0x6c6c6163
  407ecc:	6972775f 	0x6972775f
  407ed0:	645f6574 	0x645f6574
  407ed4:	20287665 	addi	t0,at,30309
  407ed8:	696f7628 	0x696f7628
  407edc:	292a2064 	slti	t2,t1,8292
  407ee0:	72657a26 	0x72657a26
  407ee4:	44202c6f 	0x44202c6f
  407ee8:	445f5645 	0x445f5645
  407eec:	5f4b5349 	0x5f4b5349
  407ef0:	52444441 	0x52444441
  407ef4:	20535345 	addi	s3,v0,21317
  407ef8:	4544202b 	0x4544202b
  407efc:	49445f56 	0x49445f56
  407f00:	535f4b53 	0x535f4b53
  407f04:	54524154 	0x54524154
  407f08:	45504f5f 	0x45504f5f
  407f0c:	49544152 	0x49544152
  407f10:	2c204e4f 	sltiu	zero,at,20047
  407f14:	29203420 	slti	zero,t1,13344
  407f18:	65722027 	0x65722027
  407f1c:	6e727574 	0x6e727574
  407f20:	25206465 	addiu	zero,t1,25701
  407f24:	00000064 	0x64
  407f28:	73797327 	0x73797327
  407f2c:	6c6c6163 	0x6c6c6163
  407f30:	6165725f 	0x6165725f
  407f34:	65645f64 	0x65645f64
  407f38:	28202876 	slti	zero,at,10358
  407f3c:	64696f76 	0x64696f76
  407f40:	26292a20 	addiu	t1,s1,10784
  407f44:	735f7369 	0x735f7369
  407f48:	65636375 	0x65636375
  407f4c:	202c7373 	addi	t4,at,29555
  407f50:	5f564544 	0x5f564544
  407f54:	4b534944 	c2	0x1534944
  407f58:	4444415f 	0x4444415f
  407f5c:	53534552 	0x53534552
  407f60:	44202b20 	0x44202b20
  407f64:	445f5645 	0x445f5645
  407f68:	5f4b5349 	0x5f4b5349
  407f6c:	54415453 	0x54415453
  407f70:	202c5355 	addi	t4,at,21333
  407f74:	27292034 	addiu	t1,t9,8244
  407f78:	74657220 	jalx	195c880 <end+0x154c870>
  407f7c:	656e7275 	0x656e7275
  407f80:	64252064 	0x64252064
  407f84:	00000000 	nop
  407f88:	73692127 	0x73692127
  407f8c:	6375735f 	0x6375735f
  407f90:	73736563 	0x73736563
  407f94:	65722027 	0x65722027
  407f98:	6e727574 	0x6e727574
  407f9c:	25206465 	addiu	zero,t1,25701
  407fa0:	00000064 	0x64
  407fa4:	73797327 	0x73797327
  407fa8:	6c6c6163 	0x6c6c6163
  407fac:	6165725f 	0x6165725f
  407fb0:	65645f64 	0x65645f64
  407fb4:	28202876 	slti	zero,at,10358
  407fb8:	64696f76 	0x64696f76
  407fbc:	6d292a20 	0x6d292a20
  407fc0:	635f6d65 	0x635f6d65
  407fc4:	6f5f7275 	0x6f5f7275
  407fc8:	65736666 	0x65736666
  407fcc:	44202c74 	0x44202c74
  407fd0:	445f5645 	0x445f5645
  407fd4:	5f4b5349 	0x5f4b5349
  407fd8:	52444441 	0x52444441
  407fdc:	20535345 	addi	s3,v0,21317
  407fe0:	4544202b 	0x4544202b
  407fe4:	49445f56 	0x49445f56
  407fe8:	425f4b53 	c0	0x5f4b53
  407fec:	45464655 	0x45464655
  407ff0:	35202c52 	ori	zero,t1,0x2c52
  407ff4:	29203231 	slti	zero,t1,12849
  407ff8:	65722027 	0x65722027
  407ffc:	6e727574 	0x6e727574
  408000:	25206465 	addiu	zero,t1,25701
  408004:	00000064 	0x64
  408008:	73797327 	0x73797327
  40800c:	6c6c6163 	0x6c6c6163
  408010:	6972775f 	0x6972775f
  408014:	645f6574 	0x645f6574
  408018:	20287665 	addi	t0,at,30309
  40801c:	696f7628 	0x696f7628
  408020:	292a2064 	slti	t2,t1,8292
  408024:	5f6d656d 	0x5f6d656d
  408028:	5f727563 	0x5f727563
  40802c:	7366666f 	0x7366666f
  408030:	202c7465 	addi	t4,at,29797
  408034:	5f564544 	0x5f564544
  408038:	4b534944 	c2	0x1534944
  40803c:	4444415f 	0x4444415f
  408040:	53534552 	0x53534552
  408044:	44202b20 	0x44202b20
  408048:	445f5645 	0x445f5645
  40804c:	5f4b5349 	0x5f4b5349
  408050:	46465542 	c1	0x465542
  408054:	202c5245 	addi	t4,at,21061
  408058:	20323135 	addi	s2,at,12597
  40805c:	72202729 	0x72202729
  408060:	72757465 	0x72757465
  408064:	2064656e 	addi	a0,v1,25966
  408068:	00006425 	0x6425
  40806c:	73797327 	0x73797327
  408070:	6c6c6163 	0x6c6c6163
  408074:	6972775f 	0x6972775f
  408078:	645f6574 	0x645f6574
  40807c:	20287665 	addi	t0,at,30309
  408080:	696f7628 	0x696f7628
  408084:	292a2064 	slti	t2,t1,8292
  408088:	656e6f26 	0x656e6f26
  40808c:	4544202c 	0x4544202c
  408090:	49445f56 	0x49445f56
  408094:	415f4b53 	0x415f4b53
  408098:	45524444 	0x45524444
  40809c:	2b205353 	slti	zero,t9,21331
  4080a0:	56454420 	0x56454420
  4080a4:	5349445f 	0x5349445f
  4080a8:	54535f4b 	0x54535f4b
  4080ac:	5f545241 	0x5f545241
  4080b0:	5245504f 	0x5245504f
  4080b4:	4f495441 	c3	0x1495441
  4080b8:	202c204e 	addi	t4,at,8270
  4080bc:	27292034 	addiu	t1,t9,8244
  4080c0:	74657220 	jalx	195c880 <end+0x154c870>
  4080c4:	656e7275 	0x656e7275
  4080c8:	64252064 	0x64252064
  4080cc:	00000000 	nop
