
fs/serv.b：     文件格式 elf32-tradlittlemips
fs/serv.b


Disassembly of section .text:

00400000 <serve_init>:
serve_init():
/home/git/21373271/21373271/fs/serv.c:31
  400000:	27bdfff0 	addiu	sp,sp,-16
  400004:	afbe000c 	sw	s8,12(sp)
  400008:	03a0f025 	move	s8,sp
/home/git/21373271/21373271/fs/serv.c:36
  40000c:	3c026000 	lui	v0,0x6000
  400010:	afc20004 	sw	v0,4(s8)
/home/git/21373271/21373271/fs/serv.c:39
  400014:	afc00000 	sw	zero,0(s8)
  400018:	10000017 	b	400078 <serve_init+0x78>
  40001c:	00000000 	nop
/home/git/21373271/21373271/fs/serv.c:40 (discriminator 3)
  400020:	8fc30000 	lw	v1,0(s8)
  400024:	3c040041 	lui	a0,0x41
  400028:	8fc20000 	lw	v0,0(s8)
  40002c:	24849000 	addiu	a0,a0,-28672
  400030:	00021100 	sll	v0,v0,0x4
  400034:	00821021 	addu	v0,a0,v0
  400038:	ac430004 	sw	v1,4(v0)
/home/git/21373271/21373271/fs/serv.c:41 (discriminator 3)
  40003c:	8fc30004 	lw	v1,4(s8)
  400040:	3c040041 	lui	a0,0x41
  400044:	8fc20000 	lw	v0,0(s8)
  400048:	24849000 	addiu	a0,a0,-28672
  40004c:	00021100 	sll	v0,v0,0x4
  400050:	00821021 	addu	v0,a0,v0
  400054:	ac43000c 	sw	v1,12(v0)
/home/git/21373271/21373271/fs/serv.c:42 (discriminator 3)
  400058:	8fc20004 	lw	v0,4(s8)
  40005c:	00000000 	nop
  400060:	24421000 	addiu	v0,v0,4096
  400064:	afc20004 	sw	v0,4(s8)
/home/git/21373271/21373271/fs/serv.c:39 (discriminator 3)
  400068:	8fc20000 	lw	v0,0(s8)
  40006c:	00000000 	nop
  400070:	24420001 	addiu	v0,v0,1
  400074:	afc20000 	sw	v0,0(s8)
/home/git/21373271/21373271/fs/serv.c:39 (discriminator 1)
  400078:	8fc20000 	lw	v0,0(s8)
  40007c:	00000000 	nop
  400080:	28420400 	slti	v0,v0,1024
  400084:	1440ffe6 	bnez	v0,400020 <serve_init+0x20>
  400088:	00000000 	nop
	...
/home/git/21373271/21373271/fs/serv.c:44
  400094:	03c0e825 	move	sp,s8
  400098:	8fbe000c 	lw	s8,12(sp)
  40009c:	27bd0010 	addiu	sp,sp,16
  4000a0:	03e00008 	jr	ra
  4000a4:	00000000 	nop

004000a8 <open_alloc>:
open_alloc():
/home/git/21373271/21373271/fs/serv.c:48
  4000a8:	27bdffe0 	addiu	sp,sp,-32
  4000ac:	afbf001c 	sw	ra,28(sp)
  4000b0:	afbe0018 	sw	s8,24(sp)
  4000b4:	03a0f025 	move	s8,sp
  4000b8:	afc40020 	sw	a0,32(s8)
/home/git/21373271/21373271/fs/serv.c:52
  4000bc:	afc00010 	sw	zero,16(s8)
  4000c0:	10000052 	b	40020c <open_alloc+0x164>
  4000c4:	00000000 	nop
/home/git/21373271/21373271/fs/serv.c:53
  4000c8:	3c030041 	lui	v1,0x41
  4000cc:	8fc20010 	lw	v0,16(s8)
  4000d0:	24639000 	addiu	v1,v1,-28672
  4000d4:	00021100 	sll	v0,v0,0x4
  4000d8:	00621021 	addu	v0,v1,v0
  4000dc:	8c42000c 	lw	v0,12(v0)
  4000e0:	00000000 	nop
  4000e4:	00402025 	move	a0,v0
  4000e8:	0c1009b8 	jal	4026e0 <pageref>
  4000ec:	00000000 	nop
  4000f0:	10400006 	beqz	v0,40010c <open_alloc+0x64>
  4000f4:	00000000 	nop
  4000f8:	24030001 	li	v1,1
  4000fc:	10430016 	beq	v0,v1,400158 <open_alloc+0xb0>
  400100:	00000000 	nop
  400104:	1000003d 	b	4001fc <open_alloc+0x154>
  400108:	00000000 	nop
/home/git/21373271/21373271/fs/serv.c:55
  40010c:	3c030041 	lui	v1,0x41
  400110:	8fc20010 	lw	v0,16(s8)
  400114:	24639000 	addiu	v1,v1,-28672
  400118:	00021100 	sll	v0,v0,0x4
  40011c:	00621021 	addu	v0,v1,v0
  400120:	8c42000c 	lw	v0,12(v0)
  400124:	24060404 	li	a2,1028
  400128:	00402825 	move	a1,v0
  40012c:	00002025 	move	a0,zero
  400130:	0c100564 	jal	401590 <syscall_mem_alloc>
  400134:	00000000 	nop
  400138:	afc20014 	sw	v0,20(s8)
  40013c:	8fc20014 	lw	v0,20(s8)
  400140:	00000000 	nop
  400144:	04410004 	bgez	v0,400158 <open_alloc+0xb0>
  400148:	00000000 	nop
/home/git/21373271/21373271/fs/serv.c:56
  40014c:	8fc20014 	lw	v0,20(s8)
  400150:	10000034 	b	400224 <open_alloc+0x17c>
  400154:	00000000 	nop
/home/git/21373271/21373271/fs/serv.c:59
  400158:	3c030041 	lui	v1,0x41
  40015c:	8fc20010 	lw	v0,16(s8)
  400160:	24639000 	addiu	v1,v1,-28672
  400164:	00021100 	sll	v0,v0,0x4
  400168:	00621021 	addu	v0,v1,v0
  40016c:	8c420004 	lw	v0,4(v0)
  400170:	00000000 	nop
  400174:	24430400 	addiu	v1,v0,1024
  400178:	3c040041 	lui	a0,0x41
  40017c:	8fc20010 	lw	v0,16(s8)
  400180:	24849000 	addiu	a0,a0,-28672
  400184:	00021100 	sll	v0,v0,0x4
  400188:	00821021 	addu	v0,a0,v0
  40018c:	ac430004 	sw	v1,4(v0)
/home/git/21373271/21373271/fs/serv.c:60
  400190:	8fc20010 	lw	v0,16(s8)
  400194:	00000000 	nop
  400198:	00021900 	sll	v1,v0,0x4
  40019c:	3c020041 	lui	v0,0x41
  4001a0:	24429000 	addiu	v0,v0,-28672
  4001a4:	00621821 	addu	v1,v1,v0
  4001a8:	8fc20020 	lw	v0,32(s8)
  4001ac:	00000000 	nop
  4001b0:	ac430000 	sw	v1,0(v0)
/home/git/21373271/21373271/fs/serv.c:61
  4001b4:	3c030041 	lui	v1,0x41
  4001b8:	8fc20010 	lw	v0,16(s8)
  4001bc:	24639000 	addiu	v1,v1,-28672
  4001c0:	00021100 	sll	v0,v0,0x4
  4001c4:	00621021 	addu	v0,v1,v0
  4001c8:	8c42000c 	lw	v0,12(v0)
  4001cc:	24061000 	li	a2,4096
  4001d0:	00002825 	move	a1,zero
  4001d4:	00402025 	move	a0,v0
  4001d8:	0c1013f6 	jal	404fd8 <memset>
  4001dc:	00000000 	nop
/home/git/21373271/21373271/fs/serv.c:62
  4001e0:	8fc20020 	lw	v0,32(s8)
  4001e4:	00000000 	nop
  4001e8:	8c420000 	lw	v0,0(v0)
  4001ec:	00000000 	nop
  4001f0:	8c420004 	lw	v0,4(v0)
  4001f4:	1000000b 	b	400224 <open_alloc+0x17c>
  4001f8:	00000000 	nop
/home/git/21373271/21373271/fs/serv.c:52 (discriminator 2)
  4001fc:	8fc20010 	lw	v0,16(s8)
  400200:	00000000 	nop
  400204:	24420001 	addiu	v0,v0,1
  400208:	afc20010 	sw	v0,16(s8)
/home/git/21373271/21373271/fs/serv.c:52 (discriminator 1)
  40020c:	8fc20010 	lw	v0,16(s8)
  400210:	00000000 	nop
  400214:	28420400 	slti	v0,v0,1024
  400218:	1440ffab 	bnez	v0,4000c8 <open_alloc+0x20>
  40021c:	00000000 	nop
/home/git/21373271/21373271/fs/serv.c:66
  400220:	2402fff7 	li	v0,-9
/home/git/21373271/21373271/fs/serv.c:67
  400224:	03c0e825 	move	sp,s8
  400228:	8fbf001c 	lw	ra,28(sp)
  40022c:	8fbe0018 	lw	s8,24(sp)
  400230:	27bd0020 	addiu	sp,sp,32
  400234:	03e00008 	jr	ra
  400238:	00000000 	nop

0040023c <open_lookup>:
open_lookup():
/home/git/21373271/21373271/fs/serv.c:71
  40023c:	27bdffe0 	addiu	sp,sp,-32
  400240:	afbf001c 	sw	ra,28(sp)
  400244:	afbe0018 	sw	s8,24(sp)
  400248:	03a0f025 	move	s8,sp
  40024c:	afc40020 	sw	a0,32(s8)
  400250:	afc50024 	sw	a1,36(s8)
  400254:	afc60028 	sw	a2,40(s8)
/home/git/21373271/21373271/fs/serv.c:74
  400258:	8fc20024 	lw	v0,36(s8)
  40025c:	00000000 	nop
  400260:	304203ff 	andi	v0,v0,0x3ff
  400264:	00021900 	sll	v1,v0,0x4
  400268:	3c020041 	lui	v0,0x41
  40026c:	24429000 	addiu	v0,v0,-28672
  400270:	00621021 	addu	v0,v1,v0
  400274:	afc20010 	sw	v0,16(s8)
/home/git/21373271/21373271/fs/serv.c:76
  400278:	8fc20010 	lw	v0,16(s8)
  40027c:	00000000 	nop
  400280:	8c42000c 	lw	v0,12(v0)
  400284:	00000000 	nop
  400288:	00402025 	move	a0,v0
  40028c:	0c1009b8 	jal	4026e0 <pageref>
  400290:	00000000 	nop
  400294:	00401825 	move	v1,v0
  400298:	24020001 	li	v0,1
  40029c:	10620008 	beq	v1,v0,4002c0 <open_lookup+0x84>
  4002a0:	00000000 	nop
/home/git/21373271/21373271/fs/serv.c:76 (discriminator 1)
  4002a4:	8fc20010 	lw	v0,16(s8)
  4002a8:	00000000 	nop
  4002ac:	8c420004 	lw	v0,4(v0)
  4002b0:	8fc30024 	lw	v1,36(s8)
  4002b4:	00000000 	nop
  4002b8:	10620004 	beq	v1,v0,4002cc <open_lookup+0x90>
  4002bc:	00000000 	nop
/home/git/21373271/21373271/fs/serv.c:77
  4002c0:	2402fffd 	li	v0,-3
  4002c4:	10000006 	b	4002e0 <open_lookup+0xa4>
  4002c8:	00000000 	nop
/home/git/21373271/21373271/fs/serv.c:80
  4002cc:	8fc20028 	lw	v0,40(s8)
  4002d0:	8fc30010 	lw	v1,16(s8)
  4002d4:	00000000 	nop
  4002d8:	ac430000 	sw	v1,0(v0)
/home/git/21373271/21373271/fs/serv.c:81
  4002dc:	00001025 	move	v0,zero
/home/git/21373271/21373271/fs/serv.c:82
  4002e0:	03c0e825 	move	sp,s8
  4002e4:	8fbf001c 	lw	ra,28(sp)
  4002e8:	8fbe0018 	lw	s8,24(sp)
  4002ec:	27bd0020 	addiu	sp,sp,32
  4002f0:	03e00008 	jr	ra
  4002f4:	00000000 	nop

004002f8 <serve_open>:
serve_open():
/home/git/21373271/21373271/fs/serv.c:88
  4002f8:	27bdffd8 	addiu	sp,sp,-40
  4002fc:	afbf0024 	sw	ra,36(sp)
  400300:	afbe0020 	sw	s8,32(sp)
  400304:	03a0f025 	move	s8,sp
  400308:	afc40028 	sw	a0,40(s8)
  40030c:	afc5002c 	sw	a1,44(s8)
/home/git/21373271/21373271/fs/serv.c:95
  400310:	27c2001c 	addiu	v0,s8,28
  400314:	00402025 	move	a0,v0
  400318:	0c10002a 	jal	4000a8 <open_alloc>
  40031c:	00000000 	nop
  400320:	afc20010 	sw	v0,16(s8)
  400324:	8fc20010 	lw	v0,16(s8)
  400328:	00000000 	nop
  40032c:	04410008 	bgez	v0,400350 <serve_open+0x58>
  400330:	00000000 	nop
/home/git/21373271/21373271/fs/serv.c:96
  400334:	8fc20010 	lw	v0,16(s8)
  400338:	00003825 	move	a3,zero
  40033c:	00003025 	move	a2,zero
  400340:	00402825 	move	a1,v0
  400344:	8fc40028 	lw	a0,40(s8)
  400348:	0c100630 	jal	4018c0 <ipc_send>
  40034c:	00000000 	nop
/home/git/21373271/21373271/fs/serv.c:100
  400350:	8fc2002c 	lw	v0,44(s8)
  400354:	27c30018 	addiu	v1,s8,24
  400358:	00602825 	move	a1,v1
  40035c:	00402025 	move	a0,v0
  400360:	0c101b3a 	jal	406ce8 <file_open>
  400364:	00000000 	nop
  400368:	afc20010 	sw	v0,16(s8)
  40036c:	8fc20010 	lw	v0,16(s8)
  400370:	00000000 	nop
  400374:	0441000a 	bgez	v0,4003a0 <serve_open+0xa8>
  400378:	00000000 	nop
/home/git/21373271/21373271/fs/serv.c:101
  40037c:	8fc20010 	lw	v0,16(s8)
  400380:	00003825 	move	a3,zero
  400384:	00003025 	move	a2,zero
  400388:	00402825 	move	a1,v0
  40038c:	8fc40028 	lw	a0,40(s8)
  400390:	0c100630 	jal	4018c0 <ipc_send>
  400394:	00000000 	nop
  400398:	10000039 	b	400480 <serve_open+0x188>
  40039c:	00000000 	nop
/home/git/21373271/21373271/fs/serv.c:106
  4003a0:	8fc2001c 	lw	v0,28(s8)
  4003a4:	8fc30018 	lw	v1,24(s8)
  4003a8:	00000000 	nop
  4003ac:	ac430000 	sw	v1,0(v0)
/home/git/21373271/21373271/fs/serv.c:109
  4003b0:	8fc2001c 	lw	v0,28(s8)
  4003b4:	00000000 	nop
  4003b8:	8c42000c 	lw	v0,12(v0)
  4003bc:	00000000 	nop
  4003c0:	afc20014 	sw	v0,20(s8)
/home/git/21373271/21373271/fs/serv.c:110
  4003c4:	8fc30018 	lw	v1,24(s8)
  4003c8:	8fc20014 	lw	v0,20(s8)
  4003cc:	00000000 	nop
  4003d0:	24420010 	addiu	v0,v0,16
  4003d4:	00602025 	move	a0,v1
  4003d8:	24030100 	li	v1,256
  4003dc:	00603025 	move	a2,v1
  4003e0:	00802825 	move	a1,a0
  4003e4:	00402025 	move	a0,v0
  4003e8:	0c101384 	jal	404e10 <memcpy>
  4003ec:	00000000 	nop
/home/git/21373271/21373271/fs/serv.c:111
  4003f0:	8fc2001c 	lw	v0,28(s8)
  4003f4:	00000000 	nop
  4003f8:	8c430004 	lw	v1,4(v0)
  4003fc:	8fc20014 	lw	v0,20(s8)
  400400:	00000000 	nop
  400404:	ac43000c 	sw	v1,12(v0)
/home/git/21373271/21373271/fs/serv.c:112
  400408:	8fc2002c 	lw	v0,44(s8)
  40040c:	00000000 	nop
  400410:	8c430400 	lw	v1,1024(v0)
  400414:	8fc2001c 	lw	v0,28(s8)
  400418:	00000000 	nop
  40041c:	ac430008 	sw	v1,8(v0)
/home/git/21373271/21373271/fs/serv.c:113
  400420:	8fc2001c 	lw	v0,28(s8)
  400424:	00000000 	nop
  400428:	8c420008 	lw	v0,8(v0)
  40042c:	00000000 	nop
  400430:	00401825 	move	v1,v0
  400434:	8fc20014 	lw	v0,20(s8)
  400438:	00000000 	nop
  40043c:	ac430008 	sw	v1,8(v0)
/home/git/21373271/21373271/fs/serv.c:114
  400440:	3c020041 	lui	v0,0x41
  400444:	8c42d010 	lw	v0,-12272(v0)
  400448:	00000000 	nop
  40044c:	00401825 	move	v1,v0
  400450:	8fc20014 	lw	v0,20(s8)
  400454:	00000000 	nop
  400458:	ac430000 	sw	v1,0(v0)
/home/git/21373271/21373271/fs/serv.c:116
  40045c:	8fc2001c 	lw	v0,28(s8)
  400460:	00000000 	nop
  400464:	8c42000c 	lw	v0,12(v0)
  400468:	24070404 	li	a3,1028
  40046c:	00403025 	move	a2,v0
  400470:	00002825 	move	a1,zero
  400474:	8fc40028 	lw	a0,40(s8)
  400478:	0c100630 	jal	4018c0 <ipc_send>
  40047c:	00000000 	nop
/home/git/21373271/21373271/fs/serv.c:117
  400480:	03c0e825 	move	sp,s8
  400484:	8fbf0024 	lw	ra,36(sp)
  400488:	8fbe0020 	lw	s8,32(sp)
  40048c:	27bd0028 	addiu	sp,sp,40
  400490:	03e00008 	jr	ra
  400494:	00000000 	nop

00400498 <serve_map>:
serve_map():
/home/git/21373271/21373271/fs/serv.c:119
  400498:	27bdffd8 	addiu	sp,sp,-40
  40049c:	afbf0024 	sw	ra,36(sp)
  4004a0:	afbe0020 	sw	s8,32(sp)
  4004a4:	03a0f025 	move	s8,sp
  4004a8:	afc40028 	sw	a0,40(s8)
  4004ac:	afc5002c 	sw	a1,44(s8)
/home/git/21373271/21373271/fs/serv.c:125
  4004b0:	8fc2002c 	lw	v0,44(s8)
  4004b4:	00000000 	nop
  4004b8:	8c420000 	lw	v0,0(v0)
  4004bc:	27c30018 	addiu	v1,s8,24
  4004c0:	00603025 	move	a2,v1
  4004c4:	00402825 	move	a1,v0
  4004c8:	8fc40028 	lw	a0,40(s8)
  4004cc:	0c10008f 	jal	40023c <open_lookup>
  4004d0:	00000000 	nop
  4004d4:	afc20010 	sw	v0,16(s8)
  4004d8:	8fc20010 	lw	v0,16(s8)
  4004dc:	00000000 	nop
  4004e0:	0441000a 	bgez	v0,40050c <serve_map+0x74>
  4004e4:	00000000 	nop
/home/git/21373271/21373271/fs/serv.c:126
  4004e8:	8fc20010 	lw	v0,16(s8)
  4004ec:	00003825 	move	a3,zero
  4004f0:	00003025 	move	a2,zero
  4004f4:	00402825 	move	a1,v0
  4004f8:	8fc40028 	lw	a0,40(s8)
  4004fc:	0c100630 	jal	4018c0 <ipc_send>
  400500:	00000000 	nop
/home/git/21373271/21373271/fs/serv.c:127
  400504:	10000025 	b	40059c <serve_map+0x104>
  400508:	00000000 	nop
/home/git/21373271/21373271/fs/serv.c:130
  40050c:	8fc2002c 	lw	v0,44(s8)
  400510:	00000000 	nop
  400514:	8c420004 	lw	v0,4(v0)
  400518:	00000000 	nop
  40051c:	00021302 	srl	v0,v0,0xc
  400520:	afc20014 	sw	v0,20(s8)
/home/git/21373271/21373271/fs/serv.c:132
  400524:	8fc20018 	lw	v0,24(s8)
  400528:	00000000 	nop
  40052c:	8c420000 	lw	v0,0(v0)
  400530:	27c3001c 	addiu	v1,s8,28
  400534:	00603025 	move	a2,v1
  400538:	8fc50014 	lw	a1,20(s8)
  40053c:	00402025 	move	a0,v0
  400540:	0c101969 	jal	4065a4 <file_get_block>
  400544:	00000000 	nop
  400548:	afc20010 	sw	v0,16(s8)
  40054c:	8fc20010 	lw	v0,16(s8)
  400550:	00000000 	nop
  400554:	0441000a 	bgez	v0,400580 <serve_map+0xe8>
  400558:	00000000 	nop
/home/git/21373271/21373271/fs/serv.c:133
  40055c:	8fc20010 	lw	v0,16(s8)
  400560:	00003825 	move	a3,zero
  400564:	00003025 	move	a2,zero
  400568:	00402825 	move	a1,v0
  40056c:	8fc40028 	lw	a0,40(s8)
  400570:	0c100630 	jal	4018c0 <ipc_send>
  400574:	00000000 	nop
/home/git/21373271/21373271/fs/serv.c:134
  400578:	10000008 	b	40059c <serve_map+0x104>
  40057c:	00000000 	nop
/home/git/21373271/21373271/fs/serv.c:137
  400580:	8fc2001c 	lw	v0,28(s8)
  400584:	24070404 	li	a3,1028
  400588:	00403025 	move	a2,v0
  40058c:	00002825 	move	a1,zero
  400590:	8fc40028 	lw	a0,40(s8)
  400594:	0c100630 	jal	4018c0 <ipc_send>
  400598:	00000000 	nop
/home/git/21373271/21373271/fs/serv.c:138
  40059c:	03c0e825 	move	sp,s8
  4005a0:	8fbf0024 	lw	ra,36(sp)
  4005a4:	8fbe0020 	lw	s8,32(sp)
  4005a8:	27bd0028 	addiu	sp,sp,40
  4005ac:	03e00008 	jr	ra
  4005b0:	00000000 	nop

004005b4 <serve_set_size>:
serve_set_size():
/home/git/21373271/21373271/fs/serv.c:140
  4005b4:	27bdffe0 	addiu	sp,sp,-32
  4005b8:	afbf001c 	sw	ra,28(sp)
  4005bc:	afbe0018 	sw	s8,24(sp)
  4005c0:	03a0f025 	move	s8,sp
  4005c4:	afc40020 	sw	a0,32(s8)
  4005c8:	afc50024 	sw	a1,36(s8)
/home/git/21373271/21373271/fs/serv.c:143
  4005cc:	8fc20024 	lw	v0,36(s8)
  4005d0:	00000000 	nop
  4005d4:	8c420000 	lw	v0,0(v0)
  4005d8:	27c30014 	addiu	v1,s8,20
  4005dc:	00603025 	move	a2,v1
  4005e0:	00402825 	move	a1,v0
  4005e4:	8fc40020 	lw	a0,32(s8)
  4005e8:	0c10008f 	jal	40023c <open_lookup>
  4005ec:	00000000 	nop
  4005f0:	afc20010 	sw	v0,16(s8)
  4005f4:	8fc20010 	lw	v0,16(s8)
  4005f8:	00000000 	nop
  4005fc:	0441000a 	bgez	v0,400628 <serve_set_size+0x74>
  400600:	00000000 	nop
/home/git/21373271/21373271/fs/serv.c:144
  400604:	8fc20010 	lw	v0,16(s8)
  400608:	00003825 	move	a3,zero
  40060c:	00003025 	move	a2,zero
  400610:	00402825 	move	a1,v0
  400614:	8fc40020 	lw	a0,32(s8)
  400618:	0c100630 	jal	4018c0 <ipc_send>
  40061c:	00000000 	nop
/home/git/21373271/21373271/fs/serv.c:145
  400620:	10000020 	b	4006a4 <serve_set_size+0xf0>
  400624:	00000000 	nop
/home/git/21373271/21373271/fs/serv.c:148
  400628:	8fc20014 	lw	v0,20(s8)
  40062c:	00000000 	nop
  400630:	8c430000 	lw	v1,0(v0)
  400634:	8fc20024 	lw	v0,36(s8)
  400638:	00000000 	nop
  40063c:	8c420004 	lw	v0,4(v0)
  400640:	00000000 	nop
  400644:	00402825 	move	a1,v0
  400648:	00602025 	move	a0,v1
  40064c:	0c101be9 	jal	406fa4 <file_set_size>
  400650:	00000000 	nop
  400654:	afc20010 	sw	v0,16(s8)
  400658:	8fc20010 	lw	v0,16(s8)
  40065c:	00000000 	nop
  400660:	0441000a 	bgez	v0,40068c <serve_set_size+0xd8>
  400664:	00000000 	nop
/home/git/21373271/21373271/fs/serv.c:149
  400668:	8fc20010 	lw	v0,16(s8)
  40066c:	00003825 	move	a3,zero
  400670:	00003025 	move	a2,zero
  400674:	00402825 	move	a1,v0
  400678:	8fc40020 	lw	a0,32(s8)
  40067c:	0c100630 	jal	4018c0 <ipc_send>
  400680:	00000000 	nop
/home/git/21373271/21373271/fs/serv.c:150
  400684:	10000007 	b	4006a4 <serve_set_size+0xf0>
  400688:	00000000 	nop
/home/git/21373271/21373271/fs/serv.c:153
  40068c:	00003825 	move	a3,zero
  400690:	00003025 	move	a2,zero
  400694:	00002825 	move	a1,zero
  400698:	8fc40020 	lw	a0,32(s8)
  40069c:	0c100630 	jal	4018c0 <ipc_send>
  4006a0:	00000000 	nop
/home/git/21373271/21373271/fs/serv.c:154
  4006a4:	03c0e825 	move	sp,s8
  4006a8:	8fbf001c 	lw	ra,28(sp)
  4006ac:	8fbe0018 	lw	s8,24(sp)
  4006b0:	27bd0020 	addiu	sp,sp,32
  4006b4:	03e00008 	jr	ra
  4006b8:	00000000 	nop

004006bc <serve_close>:
serve_close():
/home/git/21373271/21373271/fs/serv.c:156
  4006bc:	27bdffe0 	addiu	sp,sp,-32
  4006c0:	afbf001c 	sw	ra,28(sp)
  4006c4:	afbe0018 	sw	s8,24(sp)
  4006c8:	03a0f025 	move	s8,sp
  4006cc:	afc40020 	sw	a0,32(s8)
  4006d0:	afc50024 	sw	a1,36(s8)
/home/git/21373271/21373271/fs/serv.c:161
  4006d4:	8fc20024 	lw	v0,36(s8)
  4006d8:	00000000 	nop
  4006dc:	8c420000 	lw	v0,0(v0)
  4006e0:	27c30014 	addiu	v1,s8,20
  4006e4:	00603025 	move	a2,v1
  4006e8:	00402825 	move	a1,v0
  4006ec:	8fc40020 	lw	a0,32(s8)
  4006f0:	0c10008f 	jal	40023c <open_lookup>
  4006f4:	00000000 	nop
  4006f8:	afc20010 	sw	v0,16(s8)
  4006fc:	8fc20010 	lw	v0,16(s8)
  400700:	00000000 	nop
  400704:	0441000a 	bgez	v0,400730 <serve_close+0x74>
  400708:	00000000 	nop
/home/git/21373271/21373271/fs/serv.c:162
  40070c:	8fc20010 	lw	v0,16(s8)
  400710:	00003825 	move	a3,zero
  400714:	00003025 	move	a2,zero
  400718:	00402825 	move	a1,v0
  40071c:	8fc40020 	lw	a0,32(s8)
  400720:	0c100630 	jal	4018c0 <ipc_send>
  400724:	00000000 	nop
  400728:	1000000e 	b	400764 <serve_close+0xa8>
  40072c:	00000000 	nop
/home/git/21373271/21373271/fs/serv.c:166
  400730:	8fc20014 	lw	v0,20(s8)
  400734:	00000000 	nop
  400738:	8c420000 	lw	v0,0(v0)
  40073c:	00000000 	nop
  400740:	00402025 	move	a0,v0
  400744:	0c101c77 	jal	4071dc <file_close>
  400748:	00000000 	nop
/home/git/21373271/21373271/fs/serv.c:167
  40074c:	00003825 	move	a3,zero
  400750:	00003025 	move	a2,zero
  400754:	00002825 	move	a1,zero
  400758:	8fc40020 	lw	a0,32(s8)
  40075c:	0c100630 	jal	4018c0 <ipc_send>
  400760:	00000000 	nop
/home/git/21373271/21373271/fs/serv.c:168
  400764:	03c0e825 	move	sp,s8
  400768:	8fbf001c 	lw	ra,28(sp)
  40076c:	8fbe0018 	lw	s8,24(sp)
  400770:	27bd0020 	addiu	sp,sp,32
  400774:	03e00008 	jr	ra
  400778:	00000000 	nop

0040077c <serve_remove>:
serve_remove():
/home/git/21373271/21373271/fs/serv.c:172
  40077c:	27bdffe0 	addiu	sp,sp,-32
  400780:	afbf001c 	sw	ra,28(sp)
  400784:	afbe0018 	sw	s8,24(sp)
  400788:	03a0f025 	move	s8,sp
  40078c:	afc40020 	sw	a0,32(s8)
  400790:	afc50024 	sw	a1,36(s8)
/home/git/21373271/21373271/fs/serv.c:176
  400794:	8fc20024 	lw	v0,36(s8)
  400798:	00000000 	nop
  40079c:	00402025 	move	a0,v0
  4007a0:	0c101c93 	jal	40724c <file_remove>
  4007a4:	00000000 	nop
  4007a8:	afc20010 	sw	v0,16(s8)
/home/git/21373271/21373271/fs/serv.c:179
  4007ac:	8fc20010 	lw	v0,16(s8)
  4007b0:	00003825 	move	a3,zero
  4007b4:	00003025 	move	a2,zero
  4007b8:	00402825 	move	a1,v0
  4007bc:	8fc40020 	lw	a0,32(s8)
  4007c0:	0c100630 	jal	4018c0 <ipc_send>
  4007c4:	00000000 	nop
/home/git/21373271/21373271/fs/serv.c:180
  4007c8:	00000000 	nop
  4007cc:	03c0e825 	move	sp,s8
  4007d0:	8fbf001c 	lw	ra,28(sp)
  4007d4:	8fbe0018 	lw	s8,24(sp)
  4007d8:	27bd0020 	addiu	sp,sp,32
  4007dc:	03e00008 	jr	ra
  4007e0:	00000000 	nop

004007e4 <serve_dirty>:
serve_dirty():
/home/git/21373271/21373271/fs/serv.c:182
  4007e4:	27bdffe0 	addiu	sp,sp,-32
  4007e8:	afbf001c 	sw	ra,28(sp)
  4007ec:	afbe0018 	sw	s8,24(sp)
  4007f0:	03a0f025 	move	s8,sp
  4007f4:	afc40020 	sw	a0,32(s8)
  4007f8:	afc50024 	sw	a1,36(s8)
/home/git/21373271/21373271/fs/serv.c:186
  4007fc:	8fc20024 	lw	v0,36(s8)
  400800:	00000000 	nop
  400804:	8c420000 	lw	v0,0(v0)
  400808:	27c30014 	addiu	v1,s8,20
  40080c:	00603025 	move	a2,v1
  400810:	00402825 	move	a1,v0
  400814:	8fc40020 	lw	a0,32(s8)
  400818:	0c10008f 	jal	40023c <open_lookup>
  40081c:	00000000 	nop
  400820:	afc20010 	sw	v0,16(s8)
  400824:	8fc20010 	lw	v0,16(s8)
  400828:	00000000 	nop
  40082c:	0441000a 	bgez	v0,400858 <serve_dirty+0x74>
  400830:	00000000 	nop
/home/git/21373271/21373271/fs/serv.c:187
  400834:	8fc20010 	lw	v0,16(s8)
  400838:	00003825 	move	a3,zero
  40083c:	00003025 	move	a2,zero
  400840:	00402825 	move	a1,v0
  400844:	8fc40020 	lw	a0,32(s8)
  400848:	0c100630 	jal	4018c0 <ipc_send>
  40084c:	00000000 	nop
/home/git/21373271/21373271/fs/serv.c:188
  400850:	10000020 	b	4008d4 <serve_dirty+0xf0>
  400854:	00000000 	nop
/home/git/21373271/21373271/fs/serv.c:191
  400858:	8fc20014 	lw	v0,20(s8)
  40085c:	00000000 	nop
  400860:	8c430000 	lw	v1,0(v0)
  400864:	8fc20024 	lw	v0,36(s8)
  400868:	00000000 	nop
  40086c:	8c420004 	lw	v0,4(v0)
  400870:	00000000 	nop
  400874:	00402825 	move	a1,v0
  400878:	00602025 	move	a0,v1
  40087c:	0c101995 	jal	406654 <file_dirty>
  400880:	00000000 	nop
  400884:	afc20010 	sw	v0,16(s8)
  400888:	8fc20010 	lw	v0,16(s8)
  40088c:	00000000 	nop
  400890:	0441000a 	bgez	v0,4008bc <serve_dirty+0xd8>
  400894:	00000000 	nop
/home/git/21373271/21373271/fs/serv.c:192
  400898:	8fc20010 	lw	v0,16(s8)
  40089c:	00003825 	move	a3,zero
  4008a0:	00003025 	move	a2,zero
  4008a4:	00402825 	move	a1,v0
  4008a8:	8fc40020 	lw	a0,32(s8)
  4008ac:	0c100630 	jal	4018c0 <ipc_send>
  4008b0:	00000000 	nop
/home/git/21373271/21373271/fs/serv.c:193
  4008b4:	10000007 	b	4008d4 <serve_dirty+0xf0>
  4008b8:	00000000 	nop
/home/git/21373271/21373271/fs/serv.c:196
  4008bc:	00003825 	move	a3,zero
  4008c0:	00003025 	move	a2,zero
  4008c4:	00002825 	move	a1,zero
  4008c8:	8fc40020 	lw	a0,32(s8)
  4008cc:	0c100630 	jal	4018c0 <ipc_send>
  4008d0:	00000000 	nop
/home/git/21373271/21373271/fs/serv.c:197
  4008d4:	03c0e825 	move	sp,s8
  4008d8:	8fbf001c 	lw	ra,28(sp)
  4008dc:	8fbe0018 	lw	s8,24(sp)
  4008e0:	27bd0020 	addiu	sp,sp,32
  4008e4:	03e00008 	jr	ra
  4008e8:	00000000 	nop

004008ec <serve_sync>:
serve_sync():
/home/git/21373271/21373271/fs/serv.c:199
  4008ec:	27bdffe8 	addiu	sp,sp,-24
  4008f0:	afbf0014 	sw	ra,20(sp)
  4008f4:	afbe0010 	sw	s8,16(sp)
  4008f8:	03a0f025 	move	s8,sp
  4008fc:	afc40018 	sw	a0,24(s8)
/home/git/21373271/21373271/fs/serv.c:200
  400900:	0c101c4f 	jal	40713c <fs_sync>
  400904:	00000000 	nop
/home/git/21373271/21373271/fs/serv.c:201
  400908:	00003825 	move	a3,zero
  40090c:	00003025 	move	a2,zero
  400910:	00002825 	move	a1,zero
  400914:	8fc40018 	lw	a0,24(s8)
  400918:	0c100630 	jal	4018c0 <ipc_send>
  40091c:	00000000 	nop
/home/git/21373271/21373271/fs/serv.c:202
  400920:	00000000 	nop
  400924:	03c0e825 	move	sp,s8
  400928:	8fbf0014 	lw	ra,20(sp)
  40092c:	8fbe0010 	lw	s8,16(sp)
  400930:	27bd0018 	addiu	sp,sp,24
  400934:	03e00008 	jr	ra
  400938:	00000000 	nop

0040093c <serve>:
serve():
/home/git/21373271/21373271/fs/serv.c:204
  40093c:	27bdffd8 	addiu	sp,sp,-40
  400940:	afbf0024 	sw	ra,36(sp)
  400944:	afbe0020 	sw	s8,32(sp)
  400948:	03a0f025 	move	s8,sp
/home/git/21373271/21373271/fs/serv.c:208
  40094c:	afc00018 	sw	zero,24(s8)
/home/git/21373271/21373271/fs/serv.c:210
  400950:	27c20018 	addiu	v0,s8,24
  400954:	27c30014 	addiu	v1,s8,20
  400958:	00403025 	move	a2,v0
  40095c:	3c020fff 	lui	v0,0xfff
  400960:	3445f000 	ori	a1,v0,0xf000
  400964:	00602025 	move	a0,v1
  400968:	0c10065b 	jal	40196c <ipc_recv>
  40096c:	00000000 	nop
  400970:	afc20010 	sw	v0,16(s8)
/home/git/21373271/21373271/fs/serv.c:213
  400974:	8fc20018 	lw	v0,24(s8)
  400978:	00000000 	nop
  40097c:	30420200 	andi	v0,v0,0x200
  400980:	1440000a 	bnez	v0,4009ac <serve+0x70>
  400984:	00000000 	nop
/home/git/21373271/21373271/fs/serv.c:214
  400988:	8fc20014 	lw	v0,20(s8)
  40098c:	00000000 	nop
  400990:	00402825 	move	a1,v0
  400994:	3c020040 	lui	v0,0x40
  400998:	24447890 	addiu	a0,v0,30864
  40099c:	0c10037c 	jal	400df0 <debugf>
  4009a0:	00000000 	nop
/home/git/21373271/21373271/fs/serv.c:215
  4009a4:	10000054 	b	400af8 <serve+0x1bc>
  4009a8:	00000000 	nop
/home/git/21373271/21373271/fs/serv.c:218
  4009ac:	8fc20010 	lw	v0,16(s8)
  4009b0:	00000000 	nop
  4009b4:	2c420008 	sltiu	v0,v0,8
  4009b8:	10400042 	beqz	v0,400ac4 <serve+0x188>
  4009bc:	00000000 	nop
  4009c0:	8fc20010 	lw	v0,16(s8)
  4009c4:	00000000 	nop
  4009c8:	00021880 	sll	v1,v0,0x2
  4009cc:	3c020040 	lui	v0,0x40
  4009d0:	244278e4 	addiu	v0,v0,30948
  4009d4:	00621021 	addu	v0,v1,v0
  4009d8:	8c420000 	lw	v0,0(v0)
  4009dc:	00000000 	nop
  4009e0:	00400008 	jr	v0
  4009e4:	00000000 	nop
/home/git/21373271/21373271/fs/serv.c:220
  4009e8:	8fc30014 	lw	v1,20(s8)
  4009ec:	3c020fff 	lui	v0,0xfff
  4009f0:	3445f000 	ori	a1,v0,0xf000
  4009f4:	00602025 	move	a0,v1
  4009f8:	0c1000be 	jal	4002f8 <serve_open>
  4009fc:	00000000 	nop
/home/git/21373271/21373271/fs/serv.c:221
  400a00:	10000038 	b	400ae4 <serve+0x1a8>
  400a04:	00000000 	nop
/home/git/21373271/21373271/fs/serv.c:224
  400a08:	8fc30014 	lw	v1,20(s8)
  400a0c:	3c020fff 	lui	v0,0xfff
  400a10:	3445f000 	ori	a1,v0,0xf000
  400a14:	00602025 	move	a0,v1
  400a18:	0c100126 	jal	400498 <serve_map>
  400a1c:	00000000 	nop
/home/git/21373271/21373271/fs/serv.c:225
  400a20:	10000030 	b	400ae4 <serve+0x1a8>
  400a24:	00000000 	nop
/home/git/21373271/21373271/fs/serv.c:228
  400a28:	8fc30014 	lw	v1,20(s8)
  400a2c:	3c020fff 	lui	v0,0xfff
  400a30:	3445f000 	ori	a1,v0,0xf000
  400a34:	00602025 	move	a0,v1
  400a38:	0c10016d 	jal	4005b4 <serve_set_size>
  400a3c:	00000000 	nop
/home/git/21373271/21373271/fs/serv.c:229
  400a40:	10000028 	b	400ae4 <serve+0x1a8>
  400a44:	00000000 	nop
/home/git/21373271/21373271/fs/serv.c:232
  400a48:	8fc30014 	lw	v1,20(s8)
  400a4c:	3c020fff 	lui	v0,0xfff
  400a50:	3445f000 	ori	a1,v0,0xf000
  400a54:	00602025 	move	a0,v1
  400a58:	0c1001af 	jal	4006bc <serve_close>
  400a5c:	00000000 	nop
/home/git/21373271/21373271/fs/serv.c:233
  400a60:	10000020 	b	400ae4 <serve+0x1a8>
  400a64:	00000000 	nop
/home/git/21373271/21373271/fs/serv.c:236
  400a68:	8fc30014 	lw	v1,20(s8)
  400a6c:	3c020fff 	lui	v0,0xfff
  400a70:	3445f000 	ori	a1,v0,0xf000
  400a74:	00602025 	move	a0,v1
  400a78:	0c1001f9 	jal	4007e4 <serve_dirty>
  400a7c:	00000000 	nop
/home/git/21373271/21373271/fs/serv.c:237
  400a80:	10000018 	b	400ae4 <serve+0x1a8>
  400a84:	00000000 	nop
/home/git/21373271/21373271/fs/serv.c:240
  400a88:	8fc30014 	lw	v1,20(s8)
  400a8c:	3c020fff 	lui	v0,0xfff
  400a90:	3445f000 	ori	a1,v0,0xf000
  400a94:	00602025 	move	a0,v1
  400a98:	0c1001df 	jal	40077c <serve_remove>
  400a9c:	00000000 	nop
/home/git/21373271/21373271/fs/serv.c:241
  400aa0:	10000010 	b	400ae4 <serve+0x1a8>
  400aa4:	00000000 	nop
/home/git/21373271/21373271/fs/serv.c:244
  400aa8:	8fc20014 	lw	v0,20(s8)
  400aac:	00000000 	nop
  400ab0:	00402025 	move	a0,v0
  400ab4:	0c10023b 	jal	4008ec <serve_sync>
  400ab8:	00000000 	nop
/home/git/21373271/21373271/fs/serv.c:245
  400abc:	10000009 	b	400ae4 <serve+0x1a8>
  400ac0:	00000000 	nop
/home/git/21373271/21373271/fs/serv.c:248
  400ac4:	8fc20014 	lw	v0,20(s8)
  400ac8:	8fc60010 	lw	a2,16(s8)
  400acc:	00402825 	move	a1,v0
  400ad0:	3c020040 	lui	v0,0x40
  400ad4:	244478c0 	addiu	a0,v0,30912
  400ad8:	0c10037c 	jal	400df0 <debugf>
  400adc:	00000000 	nop
/home/git/21373271/21373271/fs/serv.c:249
  400ae0:	00000000 	nop
/home/git/21373271/21373271/fs/serv.c:252
  400ae4:	3c020fff 	lui	v0,0xfff
  400ae8:	3445f000 	ori	a1,v0,0xf000
  400aec:	00002025 	move	a0,zero
  400af0:	0c100591 	jal	401644 <syscall_mem_unmap>
  400af4:	00000000 	nop
/home/git/21373271/21373271/fs/serv.c:208
  400af8:	1000ff94 	b	40094c <serve+0x10>
  400afc:	00000000 	nop

00400b00 <main>:
main():
/home/git/21373271/21373271/fs/serv.c:256
  400b00:	27bdffe8 	addiu	sp,sp,-24
  400b04:	afbf0014 	sw	ra,20(sp)
  400b08:	afbe0010 	sw	s8,16(sp)
  400b0c:	03a0f025 	move	s8,sp
/home/git/21373271/21373271/fs/serv.c:259
  400b10:	3c020040 	lui	v0,0x40
  400b14:	24447904 	addiu	a0,v0,30980
  400b18:	0c10037c 	jal	400df0 <debugf>
  400b1c:	00000000 	nop
/home/git/21373271/21373271/fs/serv.c:261
  400b20:	0c100000 	jal	400000 <serve_init>
  400b24:	00000000 	nop
/home/git/21373271/21373271/fs/serv.c:262
  400b28:	0c10188f 	jal	40623c <fs_init>
  400b2c:	00000000 	nop
/home/git/21373271/21373271/fs/serv.c:264
  400b30:	0c10024f 	jal	40093c <serve>
  400b34:	00000000 	nop
/home/git/21373271/21373271/fs/serv.c:265
  400b38:	00001025 	move	v0,zero
/home/git/21373271/21373271/fs/serv.c:266
  400b3c:	03c0e825 	move	sp,s8
  400b40:	8fbf0014 	lw	ra,20(sp)
  400b44:	8fbe0010 	lw	s8,16(sp)
  400b48:	27bd0018 	addiu	sp,sp,24
  400b4c:	03e00008 	jr	ra
  400b50:	00000000 	nop
	...

00400b60 <_start>:
_start():
/home/git/21373271/21373271/user/lib/entry.S:5
#include <asm/asm.h>

.text
EXPORT(_start)
	lw      a0, 0(sp)
  400b60:	8fa40000 	lw	a0,0(sp)
/home/git/21373271/21373271/user/lib/entry.S:6
	lw      a1, 4(sp)
  400b64:	8fa50004 	lw	a1,4(sp)
/home/git/21373271/21373271/user/lib/entry.S:7
	jal     libmain
  400b68:	0c1003e0 	jal	400f80 <libmain>
  400b6c:	00000000 	nop

00400b70 <msyscall>:
msyscall():
/home/git/21373271/21373271/user/lib/syscall_wrap.S:5
#include <asm/asm.h>

LEAF(msyscall)
	// Just use 'syscall' instruction and return.
	nop
  400b70:	00000000 	nop
/home/git/21373271/21373271/user/lib/syscall_wrap.S:6
	syscall
  400b74:	0000000c 	syscall
/home/git/21373271/21373271/user/lib/syscall_wrap.S:7
	nop
  400b78:	00000000 	nop
/home/git/21373271/21373271/user/lib/syscall_wrap.S:8
	jr ra
  400b7c:	03e00008 	jr	ra
  400b80:	00000000 	nop
	...

00400b90 <debug_flush>:
debug_flush():
/home/git/21373271/21373271/user/lib/debugf.c:11
struct debug_ctx {
	char buf[BUF_LEN];
	size_t pos;
};

static void debug_flush(struct debug_ctx *ctx) {
  400b90:	27bdffe0 	addiu	sp,sp,-32
  400b94:	afbf001c 	sw	ra,28(sp)
  400b98:	afbe0018 	sw	s8,24(sp)
  400b9c:	03a0f025 	move	s8,sp
  400ba0:	afc40020 	sw	a0,32(s8)
/home/git/21373271/21373271/user/lib/debugf.c:12
	if (ctx->pos == 0) {
  400ba4:	8fc20020 	lw	v0,32(s8)
  400ba8:	00000000 	nop
  400bac:	8c420400 	lw	v0,1024(v0)
  400bb0:	00000000 	nop
  400bb4:	1040001c 	beqz	v0,400c28 <debug_flush+0x98>
  400bb8:	00000000 	nop
/home/git/21373271/21373271/user/lib/debugf.c:16
		return;
	}
	int r;
	if ((r = syscall_print_cons(ctx->buf, ctx->pos)) != 0) {
  400bbc:	8fc30020 	lw	v1,32(s8)
  400bc0:	8fc20020 	lw	v0,32(s8)
  400bc4:	00000000 	nop
  400bc8:	8c420400 	lw	v0,1024(v0)
  400bcc:	00000000 	nop
  400bd0:	00402825 	move	a1,v0
  400bd4:	00602025 	move	a0,v1
  400bd8:	0c100518 	jal	401460 <syscall_print_cons>
  400bdc:	00000000 	nop
  400be0:	afc20010 	sw	v0,16(s8)
  400be4:	8fc20010 	lw	v0,16(s8)
  400be8:	00000000 	nop
  400bec:	10400009 	beqz	v0,400c14 <debug_flush+0x84>
  400bf0:	00000000 	nop
/home/git/21373271/21373271/user/lib/debugf.c:17
		user_panic("syscall_print_cons: %d", r);
  400bf4:	8fc70010 	lw	a3,16(s8)
  400bf8:	3c020040 	lui	v0,0x40
  400bfc:	24467920 	addiu	a2,v0,31008
  400c00:	24050011 	li	a1,17
  400c04:	3c020040 	lui	v0,0x40
  400c08:	24447938 	addiu	a0,v0,31032
  400c0c:	0c100393 	jal	400e4c <_user_panic>
  400c10:	00000000 	nop
/home/git/21373271/21373271/user/lib/debugf.c:19
	}
	ctx->pos = 0;
  400c14:	8fc20020 	lw	v0,32(s8)
  400c18:	00000000 	nop
  400c1c:	ac400400 	sw	zero,1024(v0)
  400c20:	10000002 	b	400c2c <debug_flush+0x9c>
  400c24:	00000000 	nop
/home/git/21373271/21373271/user/lib/debugf.c:13
		return;
  400c28:	00000000 	nop
/home/git/21373271/21373271/user/lib/debugf.c:20
}
  400c2c:	03c0e825 	move	sp,s8
  400c30:	8fbf001c 	lw	ra,28(sp)
  400c34:	8fbe0018 	lw	s8,24(sp)
  400c38:	27bd0020 	addiu	sp,sp,32
  400c3c:	03e00008 	jr	ra
  400c40:	00000000 	nop

00400c44 <debug_output>:
debug_output():
/home/git/21373271/21373271/user/lib/debugf.c:22

static void debug_output(void *data, const char *s, size_t l) {
  400c44:	27bdffe0 	addiu	sp,sp,-32
  400c48:	afbf001c 	sw	ra,28(sp)
  400c4c:	afbe0018 	sw	s8,24(sp)
  400c50:	03a0f025 	move	s8,sp
  400c54:	afc40020 	sw	a0,32(s8)
  400c58:	afc50024 	sw	a1,36(s8)
  400c5c:	afc60028 	sw	a2,40(s8)
/home/git/21373271/21373271/user/lib/debugf.c:23
	struct debug_ctx *ctx = (struct debug_ctx *)data;
  400c60:	8fc20020 	lw	v0,32(s8)
  400c64:	00000000 	nop
  400c68:	afc20010 	sw	v0,16(s8)
/home/git/21373271/21373271/user/lib/debugf.c:25

	while (ctx->pos + l > BUF_LEN) {
  400c6c:	10000022 	b	400cf8 <debug_output+0xb4>
  400c70:	00000000 	nop
/home/git/21373271/21373271/user/lib/debugf.c:26
		size_t n = BUF_LEN - ctx->pos;
  400c74:	8fc20010 	lw	v0,16(s8)
  400c78:	00000000 	nop
  400c7c:	8c420400 	lw	v0,1024(v0)
  400c80:	24030400 	li	v1,1024
  400c84:	00621023 	subu	v0,v1,v0
  400c88:	afc20014 	sw	v0,20(s8)
/home/git/21373271/21373271/user/lib/debugf.c:27
		memcpy(ctx->buf + ctx->pos, s, n);
  400c8c:	8fc30010 	lw	v1,16(s8)
  400c90:	8fc20010 	lw	v0,16(s8)
  400c94:	00000000 	nop
  400c98:	8c420400 	lw	v0,1024(v0)
  400c9c:	00000000 	nop
  400ca0:	00621021 	addu	v0,v1,v0
  400ca4:	8fc60014 	lw	a2,20(s8)
  400ca8:	8fc50024 	lw	a1,36(s8)
  400cac:	00402025 	move	a0,v0
  400cb0:	0c101384 	jal	404e10 <memcpy>
  400cb4:	00000000 	nop
/home/git/21373271/21373271/user/lib/debugf.c:28
		s += n;
  400cb8:	8fc30024 	lw	v1,36(s8)
  400cbc:	8fc20014 	lw	v0,20(s8)
  400cc0:	00000000 	nop
  400cc4:	00621021 	addu	v0,v1,v0
  400cc8:	afc20024 	sw	v0,36(s8)
/home/git/21373271/21373271/user/lib/debugf.c:29
		l -= n;
  400ccc:	8fc30028 	lw	v1,40(s8)
  400cd0:	8fc20014 	lw	v0,20(s8)
  400cd4:	00000000 	nop
  400cd8:	00621023 	subu	v0,v1,v0
  400cdc:	afc20028 	sw	v0,40(s8)
/home/git/21373271/21373271/user/lib/debugf.c:30
		ctx->pos = BUF_LEN;
  400ce0:	8fc20010 	lw	v0,16(s8)
  400ce4:	24030400 	li	v1,1024
  400ce8:	ac430400 	sw	v1,1024(v0)
/home/git/21373271/21373271/user/lib/debugf.c:31
		debug_flush(ctx);
  400cec:	8fc40010 	lw	a0,16(s8)
  400cf0:	0c1002e4 	jal	400b90 <debug_flush>
  400cf4:	00000000 	nop
/home/git/21373271/21373271/user/lib/debugf.c:25
	while (ctx->pos + l > BUF_LEN) {
  400cf8:	8fc20010 	lw	v0,16(s8)
  400cfc:	00000000 	nop
  400d00:	8c430400 	lw	v1,1024(v0)
  400d04:	8fc20028 	lw	v0,40(s8)
  400d08:	00000000 	nop
  400d0c:	00621021 	addu	v0,v1,v0
  400d10:	2c420401 	sltiu	v0,v0,1025
  400d14:	1040ffd7 	beqz	v0,400c74 <debug_output+0x30>
  400d18:	00000000 	nop
/home/git/21373271/21373271/user/lib/debugf.c:33
	}
	memcpy(ctx->buf + ctx->pos, s, l);
  400d1c:	8fc30010 	lw	v1,16(s8)
  400d20:	8fc20010 	lw	v0,16(s8)
  400d24:	00000000 	nop
  400d28:	8c420400 	lw	v0,1024(v0)
  400d2c:	00000000 	nop
  400d30:	00621021 	addu	v0,v1,v0
  400d34:	8fc60028 	lw	a2,40(s8)
  400d38:	8fc50024 	lw	a1,36(s8)
  400d3c:	00402025 	move	a0,v0
  400d40:	0c101384 	jal	404e10 <memcpy>
  400d44:	00000000 	nop
/home/git/21373271/21373271/user/lib/debugf.c:34
	ctx->pos += l;
  400d48:	8fc20010 	lw	v0,16(s8)
  400d4c:	00000000 	nop
  400d50:	8c430400 	lw	v1,1024(v0)
  400d54:	8fc20028 	lw	v0,40(s8)
  400d58:	00000000 	nop
  400d5c:	00621821 	addu	v1,v1,v0
  400d60:	8fc20010 	lw	v0,16(s8)
  400d64:	00000000 	nop
  400d68:	ac430400 	sw	v1,1024(v0)
/home/git/21373271/21373271/user/lib/debugf.c:35
}
  400d6c:	00000000 	nop
  400d70:	03c0e825 	move	sp,s8
  400d74:	8fbf001c 	lw	ra,28(sp)
  400d78:	8fbe0018 	lw	s8,24(sp)
  400d7c:	27bd0020 	addiu	sp,sp,32
  400d80:	03e00008 	jr	ra
  400d84:	00000000 	nop

00400d88 <vdebugf>:
vdebugf():
/home/git/21373271/21373271/user/lib/debugf.c:37

static void vdebugf(const char *fmt, va_list ap) {
  400d88:	27bdfbe0 	addiu	sp,sp,-1056
  400d8c:	afbf041c 	sw	ra,1052(sp)
  400d90:	afbe0418 	sw	s8,1048(sp)
  400d94:	03a0f025 	move	s8,sp
  400d98:	afc40420 	sw	a0,1056(s8)
  400d9c:	afc50424 	sw	a1,1060(s8)
/home/git/21373271/21373271/user/lib/debugf.c:39
	struct debug_ctx ctx;
	ctx.pos = 0;
  400da0:	afc00410 	sw	zero,1040(s8)
/home/git/21373271/21373271/user/lib/debugf.c:40
	vprintfmt(debug_output, &ctx, fmt, ap);
  400da4:	8fc70424 	lw	a3,1060(s8)
  400da8:	8fc60420 	lw	a2,1056(s8)
  400dac:	27c20010 	addiu	v0,s8,16
  400db0:	00402825 	move	a1,v0
  400db4:	3c020040 	lui	v0,0x40
  400db8:	24440c44 	addiu	a0,v0,3140
  400dbc:	0c100fe0 	jal	403f80 <vprintfmt>
  400dc0:	00000000 	nop
/home/git/21373271/21373271/user/lib/debugf.c:41
	debug_flush(&ctx);
  400dc4:	27c20010 	addiu	v0,s8,16
  400dc8:	00402025 	move	a0,v0
  400dcc:	0c1002e4 	jal	400b90 <debug_flush>
  400dd0:	00000000 	nop
/home/git/21373271/21373271/user/lib/debugf.c:42
}
  400dd4:	00000000 	nop
  400dd8:	03c0e825 	move	sp,s8
  400ddc:	8fbf041c 	lw	ra,1052(sp)
  400de0:	8fbe0418 	lw	s8,1048(sp)
  400de4:	27bd0420 	addiu	sp,sp,1056
  400de8:	03e00008 	jr	ra
  400dec:	00000000 	nop

00400df0 <debugf>:
debugf():
/home/git/21373271/21373271/user/lib/debugf.c:44

void debugf(const char *fmt, ...) {
  400df0:	27bdffe0 	addiu	sp,sp,-32
  400df4:	afbf001c 	sw	ra,28(sp)
  400df8:	afbe0018 	sw	s8,24(sp)
  400dfc:	03a0f025 	move	s8,sp
  400e00:	afc40020 	sw	a0,32(s8)
  400e04:	afc50024 	sw	a1,36(s8)
  400e08:	afc60028 	sw	a2,40(s8)
  400e0c:	afc7002c 	sw	a3,44(s8)
/home/git/21373271/21373271/user/lib/debugf.c:46
	va_list ap;
	va_start(ap, fmt);
  400e10:	27c20024 	addiu	v0,s8,36
  400e14:	afc20010 	sw	v0,16(s8)
/home/git/21373271/21373271/user/lib/debugf.c:47
	vdebugf(fmt, ap);
  400e18:	8fc20010 	lw	v0,16(s8)
  400e1c:	00000000 	nop
  400e20:	00402825 	move	a1,v0
  400e24:	8fc40020 	lw	a0,32(s8)
  400e28:	0c100362 	jal	400d88 <vdebugf>
  400e2c:	00000000 	nop
/home/git/21373271/21373271/user/lib/debugf.c:49
	va_end(ap);
}
  400e30:	00000000 	nop
  400e34:	03c0e825 	move	sp,s8
  400e38:	8fbf001c 	lw	ra,28(sp)
  400e3c:	8fbe0018 	lw	s8,24(sp)
  400e40:	27bd0020 	addiu	sp,sp,32
  400e44:	03e00008 	jr	ra
  400e48:	00000000 	nop

00400e4c <_user_panic>:
_user_panic():
/home/git/21373271/21373271/user/lib/debugf.c:51

void _user_panic(const char *file, int line, const char *fmt, ...) {
  400e4c:	27bdffe0 	addiu	sp,sp,-32
  400e50:	afbf001c 	sw	ra,28(sp)
  400e54:	afbe0018 	sw	s8,24(sp)
  400e58:	03a0f025 	move	s8,sp
  400e5c:	afc40020 	sw	a0,32(s8)
  400e60:	afc50024 	sw	a1,36(s8)
  400e64:	afc60028 	sw	a2,40(s8)
  400e68:	afc7002c 	sw	a3,44(s8)
/home/git/21373271/21373271/user/lib/debugf.c:52
	debugf("panic at %s:%d: ", file, line);
  400e6c:	8fc60024 	lw	a2,36(s8)
  400e70:	8fc50020 	lw	a1,32(s8)
  400e74:	3c020040 	lui	v0,0x40
  400e78:	24447948 	addiu	a0,v0,31048
  400e7c:	0c10037c 	jal	400df0 <debugf>
  400e80:	00000000 	nop
/home/git/21373271/21373271/user/lib/debugf.c:54
	va_list ap;
	va_start(ap, fmt);
  400e84:	27c2002c 	addiu	v0,s8,44
  400e88:	afc20010 	sw	v0,16(s8)
/home/git/21373271/21373271/user/lib/debugf.c:55
	vdebugf(fmt, ap);
  400e8c:	8fc20010 	lw	v0,16(s8)
  400e90:	00000000 	nop
  400e94:	00402825 	move	a1,v0
  400e98:	8fc40028 	lw	a0,40(s8)
  400e9c:	0c100362 	jal	400d88 <vdebugf>
  400ea0:	00000000 	nop
/home/git/21373271/21373271/user/lib/debugf.c:57
	va_end(ap);
	debugf("\n");
  400ea4:	3c020040 	lui	v0,0x40
  400ea8:	2444795c 	addiu	a0,v0,31068
  400eac:	0c10037c 	jal	400df0 <debugf>
  400eb0:	00000000 	nop
/home/git/21373271/21373271/user/lib/debugf.c:58
	exit();
  400eb4:	0c1003d0 	jal	400f40 <exit>
  400eb8:	00000000 	nop

00400ebc <_user_halt>:
_user_halt():
/home/git/21373271/21373271/user/lib/debugf.c:61
}

void _user_halt(const char *file, int line, const char *fmt, ...) {
  400ebc:	27bdffe0 	addiu	sp,sp,-32
  400ec0:	afbf001c 	sw	ra,28(sp)
  400ec4:	afbe0018 	sw	s8,24(sp)
  400ec8:	03a0f025 	move	s8,sp
  400ecc:	afc40020 	sw	a0,32(s8)
  400ed0:	afc50024 	sw	a1,36(s8)
  400ed4:	afc60028 	sw	a2,40(s8)
  400ed8:	afc7002c 	sw	a3,44(s8)
/home/git/21373271/21373271/user/lib/debugf.c:62
	debugf("halt at %s:%d: ", file, line);
  400edc:	8fc60024 	lw	a2,36(s8)
  400ee0:	8fc50020 	lw	a1,32(s8)
  400ee4:	3c020040 	lui	v0,0x40
  400ee8:	24447960 	addiu	a0,v0,31072
  400eec:	0c10037c 	jal	400df0 <debugf>
  400ef0:	00000000 	nop
/home/git/21373271/21373271/user/lib/debugf.c:64
	va_list ap;
	va_start(ap, fmt);
  400ef4:	27c2002c 	addiu	v0,s8,44
  400ef8:	afc20010 	sw	v0,16(s8)
/home/git/21373271/21373271/user/lib/debugf.c:65
	vdebugf(fmt, ap);
  400efc:	8fc20010 	lw	v0,16(s8)
  400f00:	00000000 	nop
  400f04:	00402825 	move	a1,v0
  400f08:	8fc40028 	lw	a0,40(s8)
  400f0c:	0c100362 	jal	400d88 <vdebugf>
  400f10:	00000000 	nop
/home/git/21373271/21373271/user/lib/debugf.c:67
	va_end(ap);
	debugf("\n");
  400f14:	3c020040 	lui	v0,0x40
  400f18:	2444795c 	addiu	a0,v0,31068
  400f1c:	0c10037c 	jal	400df0 <debugf>
  400f20:	00000000 	nop
/home/git/21373271/21373271/user/lib/debugf.c:68
	syscall_panic("user halt");
  400f24:	3c020040 	lui	v0,0x40
  400f28:	24447970 	addiu	a0,v0,31088
  400f2c:	0c1005c4 	jal	401710 <syscall_panic>
  400f30:	00000000 	nop
	...

00400f40 <exit>:
exit():
/home/git/21373271/21373271/user/lib/libos.c:5
#include <env.h>
#include <lib.h>
#include <mmu.h>

void exit(void) {
  400f40:	27bdffe8 	addiu	sp,sp,-24
  400f44:	afbf0014 	sw	ra,20(sp)
  400f48:	afbe0010 	sw	s8,16(sp)
  400f4c:	03a0f025 	move	s8,sp
/home/git/21373271/21373271/user/lib/libos.c:8
	// After fs is ready (lab5), all our open files should be closed before dying.
#if !defined(LAB) || LAB >= 5
	close_all();
  400f50:	0c1007b2 	jal	401ec8 <close_all>
  400f54:	00000000 	nop
/home/git/21373271/21373271/user/lib/libos.c:11
#endif

	syscall_env_destroy(0);
  400f58:	00002025 	move	a0,zero
  400f5c:	0c100544 	jal	401510 <syscall_env_destroy>
  400f60:	00000000 	nop
/home/git/21373271/21373271/user/lib/libos.c:12
	user_panic("unreachable code");
  400f64:	3c020040 	lui	v0,0x40
  400f68:	24467980 	addiu	a2,v0,31104
  400f6c:	2405000c 	li	a1,12
  400f70:	3c020040 	lui	v0,0x40
  400f74:	24447994 	addiu	a0,v0,31124
  400f78:	0c100393 	jal	400e4c <_user_panic>
  400f7c:	00000000 	nop

00400f80 <libmain>:
libmain():
/home/git/21373271/21373271/user/lib/libos.c:18
}

volatile struct Env *env;
extern int main(int, char **);

void libmain(int argc, char **argv) {
  400f80:	27bdffe8 	addiu	sp,sp,-24
  400f84:	afbf0014 	sw	ra,20(sp)
  400f88:	afbe0010 	sw	s8,16(sp)
  400f8c:	03a0f025 	move	s8,sp
  400f90:	afc40018 	sw	a0,24(s8)
  400f94:	afc5001c 	sw	a1,28(s8)
/home/git/21373271/21373271/user/lib/libos.c:20
	// set env to point at our env structure in envs[].
	env = &envs[ENVX(syscall_getenvid())];
  400f98:	0c100529 	jal	4014a4 <syscall_getenvid>
  400f9c:	00000000 	nop
  400fa0:	304303ff 	andi	v1,v0,0x3ff
  400fa4:	00601025 	move	v0,v1
  400fa8:	000210c0 	sll	v0,v0,0x3
  400fac:	00431023 	subu	v0,v0,v1
  400fb0:	000210c0 	sll	v0,v0,0x3
  400fb4:	00431023 	subu	v0,v0,v1
  400fb8:	00021080 	sll	v0,v0,0x2
  400fbc:	00401825 	move	v1,v0
  400fc0:	3c027f40 	lui	v0,0x7f40
  400fc4:	00621821 	addu	v1,v1,v0
  400fc8:	3c020041 	lui	v0,0x41
  400fcc:	ac43e000 	sw	v1,-8192(v0)
/home/git/21373271/21373271/user/lib/libos.c:23

	// call user main routine
	main(argc, argv);
  400fd0:	8fc5001c 	lw	a1,28(s8)
  400fd4:	8fc40018 	lw	a0,24(s8)
  400fd8:	0c1002c0 	jal	400b00 <main>
  400fdc:	00000000 	nop
/home/git/21373271/21373271/user/lib/libos.c:26

	// exit gracefully
	exit();
  400fe0:	0c1003d0 	jal	400f40 <exit>
  400fe4:	00000000 	nop
	...

00400ff0 <cow_entry>:
cow_entry():
/home/git/21373271/21373271/user/lib/fork.c:16
 * Post-Condition:
 *  - Launch a 'user_panic' if 'va' is not a copy-on-write page.
 *  - Otherwise, this handler should map a private writable copy of
 *    the faulting page at the same address.
 */
static void __attribute__((noreturn)) cow_entry(struct Trapframe *tf) {
  400ff0:	27bdffd0 	addiu	sp,sp,-48
  400ff4:	afbf002c 	sw	ra,44(sp)
  400ff8:	afbe0028 	sw	s8,40(sp)
  400ffc:	03a0f025 	move	s8,sp
  401000:	afc40030 	sw	a0,48(s8)
/home/git/21373271/21373271/user/lib/fork.c:17
	u_int va = tf->cp0_badvaddr;
  401004:	8fc20030 	lw	v0,48(s8)
  401008:	00000000 	nop
  40100c:	8c42008c 	lw	v0,140(v0)
  401010:	00000000 	nop
  401014:	afc20018 	sw	v0,24(s8)
/home/git/21373271/21373271/user/lib/fork.c:24

	/* Step 1: Find the 'perm' in which the faulting address 'va' is mapped. */
	/* Hint: Use 'vpt' and 'VPN' to find the page table entry. If the 'perm' doesn't have
	 * 'PTE_COW', launch a 'user_panic'. */
	/* Exercise 4.13: Your code here. (1/6) */
	perm = *(vpt+VPN(va)) & 0xfff;
  401018:	8fc20018 	lw	v0,24(s8)
  40101c:	00000000 	nop
  401020:	00021302 	srl	v0,v0,0xc
  401024:	00021880 	sll	v1,v0,0x2
  401028:	3c027fc0 	lui	v0,0x7fc0
  40102c:	00621021 	addu	v0,v1,v0
  401030:	8c420000 	lw	v0,0(v0)
  401034:	00000000 	nop
  401038:	30420fff 	andi	v0,v0,0xfff
  40103c:	afc2001c 	sw	v0,28(s8)
/home/git/21373271/21373271/user/lib/fork.c:26
	//debugf("perm:%d",perm);
	if ( (perm & PTE_COW) == 0) 
  401040:	8fc2001c 	lw	v0,28(s8)
  401044:	00000000 	nop
  401048:	30420001 	andi	v0,v0,0x1
  40104c:	14400008 	bnez	v0,401070 <cow_entry+0x80>
  401050:	00000000 	nop
/home/git/21373271/21373271/user/lib/fork.c:28
	{
		user_panic("pgfault err: COW not found");
  401054:	3c020040 	lui	v0,0x40
  401058:	244679a0 	addiu	a2,v0,31136
  40105c:	2405001c 	li	a1,28
  401060:	3c020040 	lui	v0,0x40
  401064:	244479bc 	addiu	a0,v0,31164
  401068:	0c100393 	jal	400e4c <_user_panic>
  40106c:	00000000 	nop
/home/git/21373271/21373271/user/lib/fork.c:33
	}
	/* Step 2: Remove 'PTE_COW' from the 'perm', and add 'PTE_D' to it. */
	/* Exercise 4.13: Your code here. (2/6) */
	//debugf("perm赋值\n");
	perm = (perm & ~PTE_COW) | PTE_D;
  401070:	8fc3001c 	lw	v1,28(s8)
  401074:	2402fbfe 	li	v0,-1026
  401078:	00621024 	and	v0,v1,v0
  40107c:	34420400 	ori	v0,v0,0x400
  401080:	afc2001c 	sw	v0,28(s8)
/home/git/21373271/21373271/user/lib/fork.c:37
	/* Step 3: Allocate a new page at 'UCOW'. */
	/* Exercise 4.13: Your code here. (3/6) */
	//debugf("syscall_mem_alloc\n");
	syscall_mem_alloc(0,(void*)UCOW,perm);
  401084:	8fc6001c 	lw	a2,28(s8)
  401088:	3c02003f 	lui	v0,0x3f
  40108c:	3445f000 	ori	a1,v0,0xf000
  401090:	00002025 	move	a0,zero
  401094:	0c100564 	jal	401590 <syscall_mem_alloc>
  401098:	00000000 	nop
/home/git/21373271/21373271/user/lib/fork.c:42
	/* Step 4: Copy the content of the faulting page at 'va' to 'UCOW'. */
	/* Hint: 'va' may not be aligned to a page! */
	/* Exercise 4.13: Your code here. (4/6) */
	//debugf("memcpy\n");
	memcpy((void*)UCOW,(void*)ROUNDDOWN(va,BY2PG),BY2PG);
  40109c:	8fc30018 	lw	v1,24(s8)
  4010a0:	2402f000 	li	v0,-4096
  4010a4:	00621024 	and	v0,v1,v0
  4010a8:	24061000 	li	a2,4096
  4010ac:	00402825 	move	a1,v0
  4010b0:	3c02003f 	lui	v0,0x3f
  4010b4:	3444f000 	ori	a0,v0,0xf000
  4010b8:	0c101384 	jal	404e10 <memcpy>
  4010bc:	00000000 	nop
/home/git/21373271/21373271/user/lib/fork.c:46
	// Step 5: Map the page at 'UCOW' to 'va' with the new 'perm'.
	/* Exercise 4.13: Your code here. (5/6) */
	//debugf("syscall_mem_map\n");
	syscall_mem_map(0,(void*)UCOW,0,(void*)va,perm);
  4010c0:	8fc30018 	lw	v1,24(s8)
  4010c4:	8fc2001c 	lw	v0,28(s8)
  4010c8:	00000000 	nop
  4010cc:	afa20010 	sw	v0,16(sp)
  4010d0:	00603825 	move	a3,v1
  4010d4:	00003025 	move	a2,zero
  4010d8:	3c02003f 	lui	v0,0x3f
  4010dc:	3445f000 	ori	a1,v0,0xf000
  4010e0:	00002025 	move	a0,zero
  4010e4:	0c100577 	jal	4015dc <syscall_mem_map>
  4010e8:	00000000 	nop
/home/git/21373271/21373271/user/lib/fork.c:50
	// Step 6: Unmap the page at 'UCOW'.
	/* Exercise 4.13: Your code here. (6/6) */
	//debugf("syscall_mem_unmap\n");
	syscall_mem_unmap(0,(void*)UCOW);
  4010ec:	3c02003f 	lui	v0,0x3f
  4010f0:	3445f000 	ori	a1,v0,0xf000
  4010f4:	00002025 	move	a0,zero
  4010f8:	0c100591 	jal	401644 <syscall_mem_unmap>
  4010fc:	00000000 	nop
/home/git/21373271/21373271/user/lib/fork.c:52
	// Step 7: Return to the faulting routine.
	int r = syscall_set_trapframe(0, tf);
  401100:	8fc50030 	lw	a1,48(s8)
  401104:	00002025 	move	a0,zero
  401108:	0c1005b3 	jal	4016cc <syscall_set_trapframe>
  40110c:	00000000 	nop
  401110:	afc20020 	sw	v0,32(s8)
/home/git/21373271/21373271/user/lib/fork.c:53
	user_panic("syscall_set_trapframe returned %d", r);
  401114:	8fc70020 	lw	a3,32(s8)
  401118:	3c020040 	lui	v0,0x40
  40111c:	244679c8 	addiu	a2,v0,31176
  401120:	24050035 	li	a1,53
  401124:	3c020040 	lui	v0,0x40
  401128:	244479bc 	addiu	a0,v0,31164
  40112c:	0c100393 	jal	400e4c <_user_panic>
  401130:	00000000 	nop

00401134 <duppage>:
duppage():
/home/git/21373271/21373271/user/lib/fork.c:78
 *   - You can pass '0' as an 'envid' in arguments of 'syscall_*' to indicate current env because
 *     kernel 'envid2env' converts '0' to 'curenv').
 *   - You should use 'syscall_mem_map', the user space wrapper around 'msyscall' to invoke
 *     'sys_mem_map' in kernel.
 */
static void duppage(u_int envid, u_int vpn) {
  401134:	27bdffd0 	addiu	sp,sp,-48
  401138:	afbf002c 	sw	ra,44(sp)
  40113c:	afbe0028 	sw	s8,40(sp)
  401140:	03a0f025 	move	s8,sp
  401144:	afc40030 	sw	a0,48(s8)
  401148:	afc50034 	sw	a1,52(s8)
/home/git/21373271/21373271/user/lib/fork.c:85
	u_int perm;

	/* Step 1: Get the permission of the page. */
	/* Hint: Use 'vpt' to find the page table entry. */
	/* Exercise 4.10: Your code here. (1/2) */
	addr = vpn << PGSHIFT;
  40114c:	8fc20034 	lw	v0,52(s8)
  401150:	00000000 	nop
  401154:	00021300 	sll	v0,v0,0xc
  401158:	afc20020 	sw	v0,32(s8)
/home/git/21373271/21373271/user/lib/fork.c:86
	perm = *(vpt + vpn) & 0xfff;
  40115c:	8fc20034 	lw	v0,52(s8)
  401160:	00000000 	nop
  401164:	00021880 	sll	v1,v0,0x2
  401168:	3c027fc0 	lui	v0,0x7fc0
  40116c:	00621021 	addu	v0,v1,v0
  401170:	8c420000 	lw	v0,0(v0)
  401174:	00000000 	nop
  401178:	30420fff 	andi	v0,v0,0xfff
  40117c:	afc20018 	sw	v0,24(s8)
/home/git/21373271/21373271/user/lib/fork.c:92
	/* Step 2: If the page is writable, and not shared with children, and not marked as COW yet,
	 * then map it as copy-on-write, both in the parent (0) and the child (envid). */
	/* Hint: The page should be first mapped to the child before remapped in the parent. (Why?)
	 */
	/* Exercise 4.10: Your code here. (2/2) */
	int flag = 0;
  401180:	afc0001c 	sw	zero,28(s8)
/home/git/21373271/21373271/user/lib/fork.c:93
	if ( (perm & PTE_D) && !(perm & PTE_LIBRARY) && !(perm & PTE_COW) )
  401184:	8fc20018 	lw	v0,24(s8)
  401188:	00000000 	nop
  40118c:	30420400 	andi	v0,v0,0x400
  401190:	10400012 	beqz	v0,4011dc <duppage+0xa8>
  401194:	00000000 	nop
/home/git/21373271/21373271/user/lib/fork.c:93 (discriminator 1)
  401198:	8fc20018 	lw	v0,24(s8)
  40119c:	00000000 	nop
  4011a0:	30420004 	andi	v0,v0,0x4
  4011a4:	1440000d 	bnez	v0,4011dc <duppage+0xa8>
  4011a8:	00000000 	nop
/home/git/21373271/21373271/user/lib/fork.c:93 (discriminator 2)
  4011ac:	8fc20018 	lw	v0,24(s8)
  4011b0:	00000000 	nop
  4011b4:	30420001 	andi	v0,v0,0x1
  4011b8:	14400008 	bnez	v0,4011dc <duppage+0xa8>
  4011bc:	00000000 	nop
/home/git/21373271/21373271/user/lib/fork.c:95
	{
		perm = (perm | PTE_COW) & ~PTE_D;
  4011c0:	8fc30018 	lw	v1,24(s8)
  4011c4:	2402fbfe 	li	v0,-1026
  4011c8:	00621024 	and	v0,v1,v0
  4011cc:	34420001 	ori	v0,v0,0x1
  4011d0:	afc20018 	sw	v0,24(s8)
/home/git/21373271/21373271/user/lib/fork.c:96
		flag = 1;
  4011d4:	24020001 	li	v0,1
  4011d8:	afc2001c 	sw	v0,28(s8)
/home/git/21373271/21373271/user/lib/fork.c:98
	}
	syscall_mem_map(0,(void*)addr,envid,(void*)addr,perm);
  4011dc:	8fc30020 	lw	v1,32(s8)
  4011e0:	8fc40020 	lw	a0,32(s8)
  4011e4:	8fc20018 	lw	v0,24(s8)
  4011e8:	00000000 	nop
  4011ec:	afa20010 	sw	v0,16(sp)
  4011f0:	00803825 	move	a3,a0
  4011f4:	8fc60030 	lw	a2,48(s8)
  4011f8:	00602825 	move	a1,v1
  4011fc:	00002025 	move	a0,zero
  401200:	0c100577 	jal	4015dc <syscall_mem_map>
  401204:	00000000 	nop
/home/git/21373271/21373271/user/lib/fork.c:99
	if (flag)
  401208:	8fc2001c 	lw	v0,28(s8)
  40120c:	00000000 	nop
  401210:	1040000c 	beqz	v0,401244 <duppage+0x110>
  401214:	00000000 	nop
/home/git/21373271/21373271/user/lib/fork.c:101
	{
		syscall_mem_map(0,(void*)addr,0,(void*)addr,perm);
  401218:	8fc30020 	lw	v1,32(s8)
  40121c:	8fc40020 	lw	a0,32(s8)
  401220:	8fc20018 	lw	v0,24(s8)
  401224:	00000000 	nop
  401228:	afa20010 	sw	v0,16(sp)
  40122c:	00803825 	move	a3,a0
  401230:	00003025 	move	a2,zero
  401234:	00602825 	move	a1,v1
  401238:	00002025 	move	a0,zero
  40123c:	0c100577 	jal	4015dc <syscall_mem_map>
  401240:	00000000 	nop
/home/git/21373271/21373271/user/lib/fork.c:103
	}
}
  401244:	00000000 	nop
  401248:	03c0e825 	move	sp,s8
  40124c:	8fbf002c 	lw	ra,44(sp)
  401250:	8fbe0028 	lw	s8,40(sp)
  401254:	27bd0030 	addiu	sp,sp,48
  401258:	03e00008 	jr	ra
  40125c:	00000000 	nop

00401260 <fork>:
fork():
/home/git/21373271/21373271/user/lib/fork.c:116
 *
 * Hint:
 *   Use global symbols 'env', 'vpt' and 'vpd'.
 *   Use 'syscall_set_tlb_mod_entry', 'syscall_getenvid', 'syscall_exofork',  and 'duppage'.
 */
int fork(void) {
  401260:	27bdffd0 	addiu	sp,sp,-48
  401264:	afbf002c 	sw	ra,44(sp)
  401268:	afbe0028 	sw	s8,40(sp)
  40126c:	03a0f025 	move	s8,sp
/home/git/21373271/21373271/user/lib/fork.c:122
	u_int child;
	u_int i;
	extern volatile struct Env *env;
	//debugf("我进来了！\n");
	/* step 1: Set our TLB Mod user exception entry to 'cow_entry' if not done yet. */
	if (env->env_user_tlb_mod_entry != (u_int)cow_entry) 
  401270:	3c020041 	lui	v0,0x41
  401274:	8c42e000 	lw	v0,-8192(v0)
  401278:	00000000 	nop
  40127c:	8c4300d4 	lw	v1,212(v0)
  401280:	3c020040 	lui	v0,0x40
  401284:	24420ff0 	addiu	v0,v0,4080
  401288:	1062000e 	beq	v1,v0,4012c4 <fork+0x64>
  40128c:	00000000 	nop
/home/git/21373271/21373271/user/lib/fork.c:125
	{	
		//debugf("我尝试了\n");
		try(syscall_set_tlb_mod_entry(0, cow_entry));
  401290:	3c020040 	lui	v0,0x40
  401294:	24450ff0 	addiu	a1,v0,4080
  401298:	00002025 	move	a0,zero
  40129c:	0c100553 	jal	40154c <syscall_set_tlb_mod_entry>
  4012a0:	00000000 	nop
  4012a4:	afc2001c 	sw	v0,28(s8)
  4012a8:	8fc2001c 	lw	v0,28(s8)
  4012ac:	00000000 	nop
  4012b0:	10400004 	beqz	v0,4012c4 <fork+0x64>
  4012b4:	00000000 	nop
/home/git/21373271/21373271/user/lib/fork.c:125 (discriminator 1)
  4012b8:	8fc2001c 	lw	v0,28(s8)
  4012bc:	10000050 	b	401400 <fork+0x1a0>
  4012c0:	00000000 	nop
syscall_exofork():
/home/git/21373271/21373271/user/include/lib.h:60
int syscall_env_destroy(u_int envid);
int syscall_set_tlb_mod_entry(u_int envid, void (*func)(struct Trapframe *));
int syscall_mem_alloc(u_int envid, void *va, u_int perm);
int syscall_mem_map(u_int srcid, void *srcva, u_int dstid, void *dstva, u_int perm);
int syscall_mem_unmap(u_int envid, void *va);

  4012c4:	afa00014 	sw	zero,20(sp)
  4012c8:	afa00010 	sw	zero,16(sp)
  4012cc:	00003825 	move	a3,zero
  4012d0:	00003025 	move	a2,zero
  4012d4:	00002825 	move	a1,zero
  4012d8:	24040009 	li	a0,9
  4012dc:	0c1002dc 	jal	400b70 <msyscall>
  4012e0:	00000000 	nop
fork():
/home/git/21373271/21373271/user/lib/fork.c:132

	/* Step 2: Create a child env that's not ready to be scheduled. */
	// Hint: 'env' should always point to the current env itself, so we should fix it to the
	// correct value.
	//debugf("%d\n",child);
	child = syscall_exofork();
  4012e4:	afc20020 	sw	v0,32(s8)
/home/git/21373271/21373271/user/lib/fork.c:134
	//debugf("%d\n",child);
	if (child == 0) {
  4012e8:	8fc20020 	lw	v0,32(s8)
  4012ec:	00000000 	nop
  4012f0:	14400012 	bnez	v0,40133c <fork+0xdc>
  4012f4:	00000000 	nop
/home/git/21373271/21373271/user/lib/fork.c:135
		env = envs + ENVX(syscall_getenvid());
  4012f8:	0c100529 	jal	4014a4 <syscall_getenvid>
  4012fc:	00000000 	nop
  401300:	304303ff 	andi	v1,v0,0x3ff
  401304:	00601025 	move	v0,v1
  401308:	000210c0 	sll	v0,v0,0x3
  40130c:	00431023 	subu	v0,v0,v1
  401310:	000210c0 	sll	v0,v0,0x3
  401314:	00431023 	subu	v0,v0,v1
  401318:	00021080 	sll	v0,v0,0x2
  40131c:	00401825 	move	v1,v0
  401320:	3c027f40 	lui	v0,0x7f40
  401324:	00621821 	addu	v1,v1,v0
  401328:	3c020041 	lui	v0,0x41
  40132c:	ac43e000 	sw	v1,-8192(v0)
/home/git/21373271/21373271/user/lib/fork.c:136
		return 0;
  401330:	00001025 	move	v0,zero
  401334:	10000032 	b	401400 <fork+0x1a0>
  401338:	00000000 	nop
/home/git/21373271/21373271/user/lib/fork.c:142
	}

	/* Step 3: Map all mapped pages below 'USTACKTOP' into the child's address space. */
	// Hint: You should use 'duppage'.
	/* Exercise 4.15: Your code here. (1/2) */
	for (i = 0 ; i < VPN(USTACKTOP) ; i++ )
  40133c:	afc00018 	sw	zero,24(s8)
  401340:	1000001f 	b	4013c0 <fork+0x160>
  401344:	00000000 	nop
/home/git/21373271/21373271/user/lib/fork.c:144
	{
		if ( (*(vpd+(i>>10)) & PTE_V) && (*(vpt+i) & PTE_V) )
  401348:	8fc20018 	lw	v0,24(s8)
  40134c:	00000000 	nop
  401350:	00021282 	srl	v0,v0,0xa
  401354:	00021880 	sll	v1,v0,0x2
  401358:	3c027fdf 	lui	v0,0x7fdf
  40135c:	3442f000 	ori	v0,v0,0xf000
  401360:	00621021 	addu	v0,v1,v0
  401364:	8c420000 	lw	v0,0(v0)
  401368:	00000000 	nop
  40136c:	30420200 	andi	v0,v0,0x200
  401370:	1040000f 	beqz	v0,4013b0 <fork+0x150>
  401374:	00000000 	nop
/home/git/21373271/21373271/user/lib/fork.c:144 (discriminator 1)
  401378:	8fc20018 	lw	v0,24(s8)
  40137c:	00000000 	nop
  401380:	00021880 	sll	v1,v0,0x2
  401384:	3c027fc0 	lui	v0,0x7fc0
  401388:	00621021 	addu	v0,v1,v0
  40138c:	8c420000 	lw	v0,0(v0)
  401390:	00000000 	nop
  401394:	30420200 	andi	v0,v0,0x200
  401398:	10400005 	beqz	v0,4013b0 <fork+0x150>
  40139c:	00000000 	nop
/home/git/21373271/21373271/user/lib/fork.c:146
		{
			duppage(child,i);
  4013a0:	8fc50018 	lw	a1,24(s8)
  4013a4:	8fc40020 	lw	a0,32(s8)
  4013a8:	0c10044d 	jal	401134 <duppage>
  4013ac:	00000000 	nop
/home/git/21373271/21373271/user/lib/fork.c:142 (discriminator 2)
	for (i = 0 ; i < VPN(USTACKTOP) ; i++ )
  4013b0:	8fc20018 	lw	v0,24(s8)
  4013b4:	00000000 	nop
  4013b8:	24420001 	addiu	v0,v0,1
  4013bc:	afc20018 	sw	v0,24(s8)
/home/git/21373271/21373271/user/lib/fork.c:142 (discriminator 1)
  4013c0:	8fc30018 	lw	v1,24(s8)
  4013c4:	3c020007 	lui	v0,0x7
  4013c8:	3442f3fe 	ori	v0,v0,0xf3fe
  4013cc:	0062102b 	sltu	v0,v1,v0
  4013d0:	1440ffdd 	bnez	v0,401348 <fork+0xe8>
  4013d4:	00000000 	nop
/home/git/21373271/21373271/user/lib/fork.c:156
	/* Hint:
	 *   You may use 'syscall_set_tlb_mod_entry' and 'syscall_set_env_status'
	 *   Child's TLB Mod user exception entry should handle COW, so set it to 'cow_entry'
	 */
	/* Exercise 4.15: Your code here. (2/2) */
	syscall_set_tlb_mod_entry(child,cow_entry);
  4013d8:	3c020040 	lui	v0,0x40
  4013dc:	24450ff0 	addiu	a1,v0,4080
  4013e0:	8fc40020 	lw	a0,32(s8)
  4013e4:	0c100553 	jal	40154c <syscall_set_tlb_mod_entry>
  4013e8:	00000000 	nop
/home/git/21373271/21373271/user/lib/fork.c:157
	syscall_set_env_status(child,ENV_RUNNABLE);
  4013ec:	24050001 	li	a1,1
  4013f0:	8fc40020 	lw	a0,32(s8)
  4013f4:	0c1005a2 	jal	401688 <syscall_set_env_status>
  4013f8:	00000000 	nop
/home/git/21373271/21373271/user/lib/fork.c:158
	return child;
  4013fc:	8fc20020 	lw	v0,32(s8)
/home/git/21373271/21373271/user/lib/fork.c:159
}
  401400:	03c0e825 	move	sp,s8
  401404:	8fbf002c 	lw	ra,44(sp)
  401408:	8fbe0028 	lw	s8,40(sp)
  40140c:	27bd0030 	addiu	sp,sp,48
  401410:	03e00008 	jr	ra
  401414:	00000000 	nop
	...

00401420 <syscall_putchar>:
syscall_putchar():
/home/git/21373271/21373271/user/lib/syscall_lib.c:7
#include <lib.h>
#include <mmu.h>
#include <syscall.h>
#include <trap.h>

void syscall_putchar(int ch) {
  401420:	27bdffe8 	addiu	sp,sp,-24
  401424:	afbf0014 	sw	ra,20(sp)
  401428:	afbe0010 	sw	s8,16(sp)
  40142c:	03a0f025 	move	s8,sp
  401430:	afc40018 	sw	a0,24(s8)
/home/git/21373271/21373271/user/lib/syscall_lib.c:8
	msyscall(SYS_putchar, ch);
  401434:	8fc50018 	lw	a1,24(s8)
  401438:	00002025 	move	a0,zero
  40143c:	0c1002dc 	jal	400b70 <msyscall>
  401440:	00000000 	nop
/home/git/21373271/21373271/user/lib/syscall_lib.c:9
}
  401444:	00000000 	nop
  401448:	03c0e825 	move	sp,s8
  40144c:	8fbf0014 	lw	ra,20(sp)
  401450:	8fbe0010 	lw	s8,16(sp)
  401454:	27bd0018 	addiu	sp,sp,24
  401458:	03e00008 	jr	ra
  40145c:	00000000 	nop

00401460 <syscall_print_cons>:
syscall_print_cons():
/home/git/21373271/21373271/user/lib/syscall_lib.c:11

int syscall_print_cons(const void *str, u_int num) {
  401460:	27bdffe8 	addiu	sp,sp,-24
  401464:	afbf0014 	sw	ra,20(sp)
  401468:	afbe0010 	sw	s8,16(sp)
  40146c:	03a0f025 	move	s8,sp
  401470:	afc40018 	sw	a0,24(s8)
  401474:	afc5001c 	sw	a1,28(s8)
/home/git/21373271/21373271/user/lib/syscall_lib.c:12
	return msyscall(SYS_print_cons, str, num);
  401478:	8fc6001c 	lw	a2,28(s8)
  40147c:	8fc50018 	lw	a1,24(s8)
  401480:	24040001 	li	a0,1
  401484:	0c1002dc 	jal	400b70 <msyscall>
  401488:	00000000 	nop
/home/git/21373271/21373271/user/lib/syscall_lib.c:13
}
  40148c:	03c0e825 	move	sp,s8
  401490:	8fbf0014 	lw	ra,20(sp)
  401494:	8fbe0010 	lw	s8,16(sp)
  401498:	27bd0018 	addiu	sp,sp,24
  40149c:	03e00008 	jr	ra
  4014a0:	00000000 	nop

004014a4 <syscall_getenvid>:
syscall_getenvid():
/home/git/21373271/21373271/user/lib/syscall_lib.c:15

u_int syscall_getenvid(void) {
  4014a4:	27bdffe8 	addiu	sp,sp,-24
  4014a8:	afbf0014 	sw	ra,20(sp)
  4014ac:	afbe0010 	sw	s8,16(sp)
  4014b0:	03a0f025 	move	s8,sp
/home/git/21373271/21373271/user/lib/syscall_lib.c:16
	return msyscall(SYS_getenvid);
  4014b4:	24040002 	li	a0,2
  4014b8:	0c1002dc 	jal	400b70 <msyscall>
  4014bc:	00000000 	nop
/home/git/21373271/21373271/user/lib/syscall_lib.c:17
}
  4014c0:	03c0e825 	move	sp,s8
  4014c4:	8fbf0014 	lw	ra,20(sp)
  4014c8:	8fbe0010 	lw	s8,16(sp)
  4014cc:	27bd0018 	addiu	sp,sp,24
  4014d0:	03e00008 	jr	ra
  4014d4:	00000000 	nop

004014d8 <syscall_yield>:
syscall_yield():
/home/git/21373271/21373271/user/lib/syscall_lib.c:19

void syscall_yield(void) {
  4014d8:	27bdffe8 	addiu	sp,sp,-24
  4014dc:	afbf0014 	sw	ra,20(sp)
  4014e0:	afbe0010 	sw	s8,16(sp)
  4014e4:	03a0f025 	move	s8,sp
/home/git/21373271/21373271/user/lib/syscall_lib.c:20
	msyscall(SYS_yield);
  4014e8:	24040003 	li	a0,3
  4014ec:	0c1002dc 	jal	400b70 <msyscall>
  4014f0:	00000000 	nop
/home/git/21373271/21373271/user/lib/syscall_lib.c:21
}
  4014f4:	00000000 	nop
  4014f8:	03c0e825 	move	sp,s8
  4014fc:	8fbf0014 	lw	ra,20(sp)
  401500:	8fbe0010 	lw	s8,16(sp)
  401504:	27bd0018 	addiu	sp,sp,24
  401508:	03e00008 	jr	ra
  40150c:	00000000 	nop

00401510 <syscall_env_destroy>:
syscall_env_destroy():
/home/git/21373271/21373271/user/lib/syscall_lib.c:23

int syscall_env_destroy(u_int envid) {
  401510:	27bdffe8 	addiu	sp,sp,-24
  401514:	afbf0014 	sw	ra,20(sp)
  401518:	afbe0010 	sw	s8,16(sp)
  40151c:	03a0f025 	move	s8,sp
  401520:	afc40018 	sw	a0,24(s8)
/home/git/21373271/21373271/user/lib/syscall_lib.c:24
	return msyscall(SYS_env_destroy, envid);
  401524:	8fc50018 	lw	a1,24(s8)
  401528:	24040004 	li	a0,4
  40152c:	0c1002dc 	jal	400b70 <msyscall>
  401530:	00000000 	nop
/home/git/21373271/21373271/user/lib/syscall_lib.c:25
}
  401534:	03c0e825 	move	sp,s8
  401538:	8fbf0014 	lw	ra,20(sp)
  40153c:	8fbe0010 	lw	s8,16(sp)
  401540:	27bd0018 	addiu	sp,sp,24
  401544:	03e00008 	jr	ra
  401548:	00000000 	nop

0040154c <syscall_set_tlb_mod_entry>:
syscall_set_tlb_mod_entry():
/home/git/21373271/21373271/user/lib/syscall_lib.c:27

int syscall_set_tlb_mod_entry(u_int envid, void (*func)(struct Trapframe *)) {
  40154c:	27bdffe8 	addiu	sp,sp,-24
  401550:	afbf0014 	sw	ra,20(sp)
  401554:	afbe0010 	sw	s8,16(sp)
  401558:	03a0f025 	move	s8,sp
  40155c:	afc40018 	sw	a0,24(s8)
  401560:	afc5001c 	sw	a1,28(s8)
/home/git/21373271/21373271/user/lib/syscall_lib.c:28
	return msyscall(SYS_set_tlb_mod_entry, envid, func);
  401564:	8fc6001c 	lw	a2,28(s8)
  401568:	8fc50018 	lw	a1,24(s8)
  40156c:	24040005 	li	a0,5
  401570:	0c1002dc 	jal	400b70 <msyscall>
  401574:	00000000 	nop
/home/git/21373271/21373271/user/lib/syscall_lib.c:29
}
  401578:	03c0e825 	move	sp,s8
  40157c:	8fbf0014 	lw	ra,20(sp)
  401580:	8fbe0010 	lw	s8,16(sp)
  401584:	27bd0018 	addiu	sp,sp,24
  401588:	03e00008 	jr	ra
  40158c:	00000000 	nop

00401590 <syscall_mem_alloc>:
syscall_mem_alloc():
/home/git/21373271/21373271/user/lib/syscall_lib.c:31

int syscall_mem_alloc(u_int envid, void *va, u_int perm) {
  401590:	27bdffe8 	addiu	sp,sp,-24
  401594:	afbf0014 	sw	ra,20(sp)
  401598:	afbe0010 	sw	s8,16(sp)
  40159c:	03a0f025 	move	s8,sp
  4015a0:	afc40018 	sw	a0,24(s8)
  4015a4:	afc5001c 	sw	a1,28(s8)
  4015a8:	afc60020 	sw	a2,32(s8)
/home/git/21373271/21373271/user/lib/syscall_lib.c:32
	return msyscall(SYS_mem_alloc, envid, va, perm);
  4015ac:	8fc70020 	lw	a3,32(s8)
  4015b0:	8fc6001c 	lw	a2,28(s8)
  4015b4:	8fc50018 	lw	a1,24(s8)
  4015b8:	24040006 	li	a0,6
  4015bc:	0c1002dc 	jal	400b70 <msyscall>
  4015c0:	00000000 	nop
/home/git/21373271/21373271/user/lib/syscall_lib.c:33
}
  4015c4:	03c0e825 	move	sp,s8
  4015c8:	8fbf0014 	lw	ra,20(sp)
  4015cc:	8fbe0010 	lw	s8,16(sp)
  4015d0:	27bd0018 	addiu	sp,sp,24
  4015d4:	03e00008 	jr	ra
  4015d8:	00000000 	nop

004015dc <syscall_mem_map>:
syscall_mem_map():
/home/git/21373271/21373271/user/lib/syscall_lib.c:35

int syscall_mem_map(u_int srcid, void *srcva, u_int dstid, void *dstva, u_int perm) {
  4015dc:	27bdffe0 	addiu	sp,sp,-32
  4015e0:	afbf001c 	sw	ra,28(sp)
  4015e4:	afbe0018 	sw	s8,24(sp)
  4015e8:	03a0f025 	move	s8,sp
  4015ec:	afc40020 	sw	a0,32(s8)
  4015f0:	afc50024 	sw	a1,36(s8)
  4015f4:	afc60028 	sw	a2,40(s8)
  4015f8:	afc7002c 	sw	a3,44(s8)
/home/git/21373271/21373271/user/lib/syscall_lib.c:36
	return msyscall(SYS_mem_map, srcid, srcva, dstid, dstva, perm);
  4015fc:	8fc20030 	lw	v0,48(s8)
  401600:	00000000 	nop
  401604:	afa20014 	sw	v0,20(sp)
  401608:	8fc2002c 	lw	v0,44(s8)
  40160c:	00000000 	nop
  401610:	afa20010 	sw	v0,16(sp)
  401614:	8fc70028 	lw	a3,40(s8)
  401618:	8fc60024 	lw	a2,36(s8)
  40161c:	8fc50020 	lw	a1,32(s8)
  401620:	24040007 	li	a0,7
  401624:	0c1002dc 	jal	400b70 <msyscall>
  401628:	00000000 	nop
/home/git/21373271/21373271/user/lib/syscall_lib.c:37
}
  40162c:	03c0e825 	move	sp,s8
  401630:	8fbf001c 	lw	ra,28(sp)
  401634:	8fbe0018 	lw	s8,24(sp)
  401638:	27bd0020 	addiu	sp,sp,32
  40163c:	03e00008 	jr	ra
  401640:	00000000 	nop

00401644 <syscall_mem_unmap>:
syscall_mem_unmap():
/home/git/21373271/21373271/user/lib/syscall_lib.c:39

int syscall_mem_unmap(u_int envid, void *va) {
  401644:	27bdffe8 	addiu	sp,sp,-24
  401648:	afbf0014 	sw	ra,20(sp)
  40164c:	afbe0010 	sw	s8,16(sp)
  401650:	03a0f025 	move	s8,sp
  401654:	afc40018 	sw	a0,24(s8)
  401658:	afc5001c 	sw	a1,28(s8)
/home/git/21373271/21373271/user/lib/syscall_lib.c:40
	return msyscall(SYS_mem_unmap, envid, va);
  40165c:	8fc6001c 	lw	a2,28(s8)
  401660:	8fc50018 	lw	a1,24(s8)
  401664:	24040008 	li	a0,8
  401668:	0c1002dc 	jal	400b70 <msyscall>
  40166c:	00000000 	nop
/home/git/21373271/21373271/user/lib/syscall_lib.c:41
}
  401670:	03c0e825 	move	sp,s8
  401674:	8fbf0014 	lw	ra,20(sp)
  401678:	8fbe0010 	lw	s8,16(sp)
  40167c:	27bd0018 	addiu	sp,sp,24
  401680:	03e00008 	jr	ra
  401684:	00000000 	nop

00401688 <syscall_set_env_status>:
syscall_set_env_status():
/home/git/21373271/21373271/user/lib/syscall_lib.c:43

int syscall_set_env_status(u_int envid, u_int status) {
  401688:	27bdffe8 	addiu	sp,sp,-24
  40168c:	afbf0014 	sw	ra,20(sp)
  401690:	afbe0010 	sw	s8,16(sp)
  401694:	03a0f025 	move	s8,sp
  401698:	afc40018 	sw	a0,24(s8)
  40169c:	afc5001c 	sw	a1,28(s8)
/home/git/21373271/21373271/user/lib/syscall_lib.c:44
	return msyscall(SYS_set_env_status, envid, status);
  4016a0:	8fc6001c 	lw	a2,28(s8)
  4016a4:	8fc50018 	lw	a1,24(s8)
  4016a8:	2404000a 	li	a0,10
  4016ac:	0c1002dc 	jal	400b70 <msyscall>
  4016b0:	00000000 	nop
/home/git/21373271/21373271/user/lib/syscall_lib.c:45
}
  4016b4:	03c0e825 	move	sp,s8
  4016b8:	8fbf0014 	lw	ra,20(sp)
  4016bc:	8fbe0010 	lw	s8,16(sp)
  4016c0:	27bd0018 	addiu	sp,sp,24
  4016c4:	03e00008 	jr	ra
  4016c8:	00000000 	nop

004016cc <syscall_set_trapframe>:
syscall_set_trapframe():
/home/git/21373271/21373271/user/lib/syscall_lib.c:47

int syscall_set_trapframe(u_int envid, struct Trapframe *tf) {
  4016cc:	27bdffe8 	addiu	sp,sp,-24
  4016d0:	afbf0014 	sw	ra,20(sp)
  4016d4:	afbe0010 	sw	s8,16(sp)
  4016d8:	03a0f025 	move	s8,sp
  4016dc:	afc40018 	sw	a0,24(s8)
  4016e0:	afc5001c 	sw	a1,28(s8)
/home/git/21373271/21373271/user/lib/syscall_lib.c:48
	return msyscall(SYS_set_trapframe, envid, tf);
  4016e4:	8fc6001c 	lw	a2,28(s8)
  4016e8:	8fc50018 	lw	a1,24(s8)
  4016ec:	2404000b 	li	a0,11
  4016f0:	0c1002dc 	jal	400b70 <msyscall>
  4016f4:	00000000 	nop
/home/git/21373271/21373271/user/lib/syscall_lib.c:49
}
  4016f8:	03c0e825 	move	sp,s8
  4016fc:	8fbf0014 	lw	ra,20(sp)
  401700:	8fbe0010 	lw	s8,16(sp)
  401704:	27bd0018 	addiu	sp,sp,24
  401708:	03e00008 	jr	ra
  40170c:	00000000 	nop

00401710 <syscall_panic>:
syscall_panic():
/home/git/21373271/21373271/user/lib/syscall_lib.c:51

void syscall_panic(const char *msg) {
  401710:	27bdffe0 	addiu	sp,sp,-32
  401714:	afbf001c 	sw	ra,28(sp)
  401718:	afbe0018 	sw	s8,24(sp)
  40171c:	03a0f025 	move	s8,sp
  401720:	afc40020 	sw	a0,32(s8)
/home/git/21373271/21373271/user/lib/syscall_lib.c:52
	int r = msyscall(SYS_panic, msg);
  401724:	8fc50020 	lw	a1,32(s8)
  401728:	2404000c 	li	a0,12
  40172c:	0c1002dc 	jal	400b70 <msyscall>
  401730:	00000000 	nop
  401734:	afc20010 	sw	v0,16(s8)
/home/git/21373271/21373271/user/lib/syscall_lib.c:53
	user_panic("SYS_panic returned %d", r);
  401738:	8fc70010 	lw	a3,16(s8)
  40173c:	3c020040 	lui	v0,0x40
  401740:	244679f0 	addiu	a2,v0,31216
  401744:	24050035 	li	a1,53
  401748:	3c020040 	lui	v0,0x40
  40174c:	24447a08 	addiu	a0,v0,31240
  401750:	0c100393 	jal	400e4c <_user_panic>
  401754:	00000000 	nop

00401758 <syscall_ipc_try_send>:
syscall_ipc_try_send():
/home/git/21373271/21373271/user/lib/syscall_lib.c:56
}

int syscall_ipc_try_send(u_int envid, u_int value, const void *srcva, u_int perm) {
  401758:	27bdffe0 	addiu	sp,sp,-32
  40175c:	afbf001c 	sw	ra,28(sp)
  401760:	afbe0018 	sw	s8,24(sp)
  401764:	03a0f025 	move	s8,sp
  401768:	afc40020 	sw	a0,32(s8)
  40176c:	afc50024 	sw	a1,36(s8)
  401770:	afc60028 	sw	a2,40(s8)
  401774:	afc7002c 	sw	a3,44(s8)
/home/git/21373271/21373271/user/lib/syscall_lib.c:57
	return msyscall(SYS_ipc_try_send, envid, value, srcva, perm);
  401778:	8fc2002c 	lw	v0,44(s8)
  40177c:	00000000 	nop
  401780:	afa20010 	sw	v0,16(sp)
  401784:	8fc70028 	lw	a3,40(s8)
  401788:	8fc60024 	lw	a2,36(s8)
  40178c:	8fc50020 	lw	a1,32(s8)
  401790:	2404000d 	li	a0,13
  401794:	0c1002dc 	jal	400b70 <msyscall>
  401798:	00000000 	nop
/home/git/21373271/21373271/user/lib/syscall_lib.c:58
}
  40179c:	03c0e825 	move	sp,s8
  4017a0:	8fbf001c 	lw	ra,28(sp)
  4017a4:	8fbe0018 	lw	s8,24(sp)
  4017a8:	27bd0020 	addiu	sp,sp,32
  4017ac:	03e00008 	jr	ra
  4017b0:	00000000 	nop

004017b4 <syscall_ipc_recv>:
syscall_ipc_recv():
/home/git/21373271/21373271/user/lib/syscall_lib.c:60

int syscall_ipc_recv(void *dstva) {
  4017b4:	27bdffe8 	addiu	sp,sp,-24
  4017b8:	afbf0014 	sw	ra,20(sp)
  4017bc:	afbe0010 	sw	s8,16(sp)
  4017c0:	03a0f025 	move	s8,sp
  4017c4:	afc40018 	sw	a0,24(s8)
/home/git/21373271/21373271/user/lib/syscall_lib.c:61
	return msyscall(SYS_ipc_recv, dstva);
  4017c8:	8fc50018 	lw	a1,24(s8)
  4017cc:	2404000e 	li	a0,14
  4017d0:	0c1002dc 	jal	400b70 <msyscall>
  4017d4:	00000000 	nop
/home/git/21373271/21373271/user/lib/syscall_lib.c:62
}
  4017d8:	03c0e825 	move	sp,s8
  4017dc:	8fbf0014 	lw	ra,20(sp)
  4017e0:	8fbe0010 	lw	s8,16(sp)
  4017e4:	27bd0018 	addiu	sp,sp,24
  4017e8:	03e00008 	jr	ra
  4017ec:	00000000 	nop

004017f0 <syscall_cgetc>:
syscall_cgetc():
/home/git/21373271/21373271/user/lib/syscall_lib.c:64

int syscall_cgetc() {
  4017f0:	27bdffe8 	addiu	sp,sp,-24
  4017f4:	afbf0014 	sw	ra,20(sp)
  4017f8:	afbe0010 	sw	s8,16(sp)
  4017fc:	03a0f025 	move	s8,sp
/home/git/21373271/21373271/user/lib/syscall_lib.c:65
	return msyscall(SYS_cgetc);
  401800:	2404000f 	li	a0,15
  401804:	0c1002dc 	jal	400b70 <msyscall>
  401808:	00000000 	nop
/home/git/21373271/21373271/user/lib/syscall_lib.c:66
}
  40180c:	03c0e825 	move	sp,s8
  401810:	8fbf0014 	lw	ra,20(sp)
  401814:	8fbe0010 	lw	s8,16(sp)
  401818:	27bd0018 	addiu	sp,sp,24
  40181c:	03e00008 	jr	ra
  401820:	00000000 	nop

00401824 <syscall_write_dev>:
syscall_write_dev():
/home/git/21373271/21373271/user/lib/syscall_lib.c:68

int syscall_write_dev(void *va, u_int dev, u_int len) {
  401824:	27bdffe8 	addiu	sp,sp,-24
  401828:	afbf0014 	sw	ra,20(sp)
  40182c:	afbe0010 	sw	s8,16(sp)
  401830:	03a0f025 	move	s8,sp
  401834:	afc40018 	sw	a0,24(s8)
  401838:	afc5001c 	sw	a1,28(s8)
  40183c:	afc60020 	sw	a2,32(s8)
/home/git/21373271/21373271/user/lib/syscall_lib.c:70
	/* Exercise 5.2: Your code here. (1/2) */

  401840:	8fc70020 	lw	a3,32(s8)
  401844:	8fc6001c 	lw	a2,28(s8)
  401848:	8fc50018 	lw	a1,24(s8)
  40184c:	24040010 	li	a0,16
  401850:	0c1002dc 	jal	400b70 <msyscall>
  401854:	00000000 	nop
/home/git/21373271/21373271/user/lib/syscall_lib.c:71
}
  401858:	03c0e825 	move	sp,s8
  40185c:	8fbf0014 	lw	ra,20(sp)
  401860:	8fbe0010 	lw	s8,16(sp)
  401864:	27bd0018 	addiu	sp,sp,24
  401868:	03e00008 	jr	ra
  40186c:	00000000 	nop

00401870 <syscall_read_dev>:
syscall_read_dev():
/home/git/21373271/21373271/user/lib/syscall_lib.c:73

int syscall_read_dev(void *va, u_int dev, u_int len) {
  401870:	27bdffe8 	addiu	sp,sp,-24
  401874:	afbf0014 	sw	ra,20(sp)
  401878:	afbe0010 	sw	s8,16(sp)
  40187c:	03a0f025 	move	s8,sp
  401880:	afc40018 	sw	a0,24(s8)
  401884:	afc5001c 	sw	a1,28(s8)
  401888:	afc60020 	sw	a2,32(s8)
/home/git/21373271/21373271/user/lib/syscall_lib.c:75
	/* Exercise 5.2: Your code here. (2/2) */

  40188c:	8fc70020 	lw	a3,32(s8)
  401890:	8fc6001c 	lw	a2,28(s8)
  401894:	8fc50018 	lw	a1,24(s8)
  401898:	24040011 	li	a0,17
  40189c:	0c1002dc 	jal	400b70 <msyscall>
  4018a0:	00000000 	nop
/home/git/21373271/21373271/user/lib/syscall_lib.c:76
}
  4018a4:	03c0e825 	move	sp,s8
  4018a8:	8fbf0014 	lw	ra,20(sp)
  4018ac:	8fbe0010 	lw	s8,16(sp)
  4018b0:	27bd0018 	addiu	sp,sp,24
  4018b4:	03e00008 	jr	ra
  4018b8:	00000000 	nop
  4018bc:	00000000 	nop

004018c0 <ipc_send>:
ipc_send():
/home/git/21373271/21373271/user/lib/ipc.c:12




void ipc_broadcast(u_int val, void * srcva, u_int perm)
{
  4018c0:	27bdffe0 	addiu	sp,sp,-32
  4018c4:	afbf001c 	sw	ra,28(sp)
  4018c8:	afbe0018 	sw	s8,24(sp)
  4018cc:	03a0f025 	move	s8,sp
  4018d0:	afc40020 	sw	a0,32(s8)
  4018d4:	afc50024 	sw	a1,36(s8)
  4018d8:	afc60028 	sw	a2,40(s8)
  4018dc:	afc7002c 	sw	a3,44(s8)
/home/git/21373271/21373271/user/lib/ipc.c:14
	int r;
	while ((r = syscall_ipc_try_send_father(val, srcva, perm)) == -E_IPC_NOT_RECV) {
  4018e0:	10000003 	b	4018f0 <ipc_send+0x30>
  4018e4:	00000000 	nop
/home/git/21373271/21373271/user/lib/ipc.c:15
		syscall_yield();
  4018e8:	0c100536 	jal	4014d8 <syscall_yield>
  4018ec:	00000000 	nop
/home/git/21373271/21373271/user/lib/ipc.c:14
	while ((r = syscall_ipc_try_send_father(val, srcva, perm)) == -E_IPC_NOT_RECV) {
  4018f0:	8fc7002c 	lw	a3,44(s8)
  4018f4:	8fc60028 	lw	a2,40(s8)
  4018f8:	8fc50024 	lw	a1,36(s8)
  4018fc:	8fc40020 	lw	a0,32(s8)
  401900:	0c1005d6 	jal	401758 <syscall_ipc_try_send>
  401904:	00000000 	nop
  401908:	afc20010 	sw	v0,16(s8)
  40190c:	8fc30010 	lw	v1,16(s8)
  401910:	2402fff9 	li	v0,-7
  401914:	1062fff4 	beq	v1,v0,4018e8 <ipc_send+0x28>
  401918:	00000000 	nop
/home/git/21373271/21373271/user/lib/ipc.c:17
	}
	user_assert(r == 0);
  40191c:	8fc20010 	lw	v0,16(s8)
  401920:	00000000 	nop
  401924:	1040000a 	beqz	v0,401950 <ipc_send+0x90>
  401928:	00000000 	nop
/home/git/21373271/21373271/user/lib/ipc.c:17 (discriminator 1)
  40192c:	3c020040 	lui	v0,0x40
  401930:	24477a20 	addiu	a3,v0,31264
  401934:	3c020040 	lui	v0,0x40
  401938:	24467a28 	addiu	a2,v0,31272
  40193c:	24050011 	li	a1,17
  401940:	3c020040 	lui	v0,0x40
  401944:	24447a40 	addiu	a0,v0,31296
  401948:	0c100393 	jal	400e4c <_user_panic>
  40194c:	00000000 	nop
/home/git/21373271/21373271/user/lib/ipc.c:18
}
  401950:	00000000 	nop
  401954:	03c0e825 	move	sp,s8
  401958:	8fbf001c 	lw	ra,28(sp)
  40195c:	8fbe0018 	lw	s8,24(sp)
  401960:	27bd0020 	addiu	sp,sp,32
  401964:	03e00008 	jr	ra
  401968:	00000000 	nop

0040196c <ipc_recv>:
ipc_recv():
/home/git/21373271/21373271/user/lib/ipc.c:24

// Send val to whom.  This function keeps trying until
// it succeeds.  It should panic() on any error other than
// -E_IPC_NOT_RECV.
//
// Hint: use syscall_yield() to be CPU-friendly.
  40196c:	27bdffe0 	addiu	sp,sp,-32
  401970:	afbf001c 	sw	ra,28(sp)
  401974:	afbe0018 	sw	s8,24(sp)
  401978:	03a0f025 	move	s8,sp
  40197c:	afc40020 	sw	a0,32(s8)
  401980:	afc50024 	sw	a1,36(s8)
  401984:	afc60028 	sw	a2,40(s8)
/home/git/21373271/21373271/user/lib/ipc.c:25
void ipc_send(u_int whom, u_int val, const void *srcva, u_int perm) {
  401988:	8fc40024 	lw	a0,36(s8)
  40198c:	0c1005ed 	jal	4017b4 <syscall_ipc_recv>
  401990:	00000000 	nop
  401994:	afc20010 	sw	v0,16(s8)
/home/git/21373271/21373271/user/lib/ipc.c:26
	int r;
  401998:	8fc20010 	lw	v0,16(s8)
  40199c:	00000000 	nop
  4019a0:	10400009 	beqz	v0,4019c8 <ipc_recv+0x5c>
  4019a4:	00000000 	nop
/home/git/21373271/21373271/user/lib/ipc.c:27
	while ((r = syscall_ipc_try_send(whom, val, srcva, perm)) == -E_IPC_NOT_RECV) {
  4019a8:	8fc70010 	lw	a3,16(s8)
  4019ac:	3c020040 	lui	v0,0x40
  4019b0:	24467a4c 	addiu	a2,v0,31308
  4019b4:	2405001b 	li	a1,27
  4019b8:	3c020040 	lui	v0,0x40
  4019bc:	24447a40 	addiu	a0,v0,31296
  4019c0:	0c100393 	jal	400e4c <_user_panic>
  4019c4:	00000000 	nop
/home/git/21373271/21373271/user/lib/ipc.c:30
		syscall_yield();
	}
	user_assert(r == 0);
  4019c8:	8fc20020 	lw	v0,32(s8)
  4019cc:	00000000 	nop
  4019d0:	10400008 	beqz	v0,4019f4 <ipc_recv+0x88>
  4019d4:	00000000 	nop
/home/git/21373271/21373271/user/lib/ipc.c:31
}
  4019d8:	3c020041 	lui	v0,0x41
  4019dc:	8c42e000 	lw	v0,-8192(v0)
  4019e0:	00000000 	nop
  4019e4:	8c4300c4 	lw	v1,196(v0)
  4019e8:	8fc20020 	lw	v0,32(s8)
  4019ec:	00000000 	nop
  4019f0:	ac430000 	sw	v1,0(v0)
/home/git/21373271/21373271/user/lib/ipc.c:34

// Receive a value.  Return the value and store the caller's envid
// in *whom.
  4019f4:	8fc20028 	lw	v0,40(s8)
  4019f8:	00000000 	nop
  4019fc:	10400008 	beqz	v0,401a20 <ipc_recv+0xb4>
  401a00:	00000000 	nop
/home/git/21373271/21373271/user/lib/ipc.c:35
//
  401a04:	3c020041 	lui	v0,0x41
  401a08:	8c42e000 	lw	v0,-8192(v0)
  401a0c:	00000000 	nop
  401a10:	8c4300d0 	lw	v1,208(v0)
  401a14:	8fc20028 	lw	v0,40(s8)
  401a18:	00000000 	nop
  401a1c:	ac430000 	sw	v1,0(v0)
/home/git/21373271/21373271/user/lib/ipc.c:38
// Hint: use env to discover the value and who sent it.
u_int ipc_recv(u_int *whom, void *dstva, u_int *perm) {
	int r = syscall_ipc_recv(dstva);
  401a20:	3c020041 	lui	v0,0x41
  401a24:	8c42e000 	lw	v0,-8192(v0)
  401a28:	00000000 	nop
  401a2c:	8c4200c0 	lw	v0,192(v0)
/home/git/21373271/21373271/user/lib/ipc.c:39
	if (r != 0) {
  401a30:	03c0e825 	move	sp,s8
  401a34:	8fbf001c 	lw	ra,28(sp)
  401a38:	8fbe0018 	lw	s8,24(sp)
  401a3c:	27bd0020 	addiu	sp,sp,32
  401a40:	03e00008 	jr	ra
  401a44:	00000000 	nop
	...

00401a50 <dev_lookup>:
dev_lookup():
/home/git/21373271/21373271/user/lib/fd.c:12
  401a50:	27bdffe0 	addiu	sp,sp,-32
  401a54:	afbf001c 	sw	ra,28(sp)
  401a58:	afbe0018 	sw	s8,24(sp)
  401a5c:	03a0f025 	move	s8,sp
  401a60:	afc40020 	sw	a0,32(s8)
  401a64:	afc50024 	sw	a1,36(s8)
/home/git/21373271/21373271/user/lib/fd.c:13
  401a68:	afc00010 	sw	zero,16(s8)
  401a6c:	1000001f 	b	401aec <dev_lookup+0x9c>
  401a70:	00000000 	nop
/home/git/21373271/21373271/user/lib/fd.c:14
  401a74:	3c020041 	lui	v0,0x41
  401a78:	8fc30010 	lw	v1,16(s8)
  401a7c:	00000000 	nop
  401a80:	00031880 	sll	v1,v1,0x2
  401a84:	2442d000 	addiu	v0,v0,-12288
  401a88:	00621021 	addu	v0,v1,v0
  401a8c:	8c420000 	lw	v0,0(v0)
  401a90:	00000000 	nop
  401a94:	8c420000 	lw	v0,0(v0)
  401a98:	8fc30020 	lw	v1,32(s8)
  401a9c:	00000000 	nop
  401aa0:	1462000e 	bne	v1,v0,401adc <dev_lookup+0x8c>
  401aa4:	00000000 	nop
/home/git/21373271/21373271/user/lib/fd.c:15
  401aa8:	3c020041 	lui	v0,0x41
  401aac:	8fc30010 	lw	v1,16(s8)
  401ab0:	00000000 	nop
  401ab4:	00031880 	sll	v1,v1,0x2
  401ab8:	2442d000 	addiu	v0,v0,-12288
  401abc:	00621021 	addu	v0,v1,v0
  401ac0:	8c430000 	lw	v1,0(v0)
  401ac4:	8fc20024 	lw	v0,36(s8)
  401ac8:	00000000 	nop
  401acc:	ac430000 	sw	v1,0(v0)
/home/git/21373271/21373271/user/lib/fd.c:16
  401ad0:	00001025 	move	v0,zero
  401ad4:	1000001a 	b	401b40 <dev_lookup+0xf0>
  401ad8:	00000000 	nop
/home/git/21373271/21373271/user/lib/fd.c:13 (discriminator 2)
  401adc:	8fc20010 	lw	v0,16(s8)
  401ae0:	00000000 	nop
  401ae4:	24420001 	addiu	v0,v0,1
  401ae8:	afc20010 	sw	v0,16(s8)
/home/git/21373271/21373271/user/lib/fd.c:13 (discriminator 1)
  401aec:	3c020041 	lui	v0,0x41
  401af0:	8fc30010 	lw	v1,16(s8)
  401af4:	00000000 	nop
  401af8:	00031880 	sll	v1,v1,0x2
  401afc:	2442d000 	addiu	v0,v0,-12288
  401b00:	00621021 	addu	v0,v1,v0
  401b04:	8c420000 	lw	v0,0(v0)
  401b08:	00000000 	nop
  401b0c:	1440ffd9 	bnez	v0,401a74 <dev_lookup+0x24>
  401b10:	00000000 	nop
/home/git/21373271/21373271/user/lib/fd.c:20
  401b14:	3c020041 	lui	v0,0x41
  401b18:	8c42e000 	lw	v0,-8192(v0)
  401b1c:	00000000 	nop
  401b20:	8c4200a0 	lw	v0,160(v0)
  401b24:	8fc60020 	lw	a2,32(s8)
  401b28:	00402825 	move	a1,v0
  401b2c:	3c020040 	lui	v0,0x40
  401b30:	24447a70 	addiu	a0,v0,31344
  401b34:	0c10037c 	jal	400df0 <debugf>
  401b38:	00000000 	nop
/home/git/21373271/21373271/user/lib/fd.c:21
  401b3c:	2402fffd 	li	v0,-3
/home/git/21373271/21373271/user/lib/fd.c:22
  401b40:	03c0e825 	move	sp,s8
  401b44:	8fbf001c 	lw	ra,28(sp)
  401b48:	8fbe0018 	lw	s8,24(sp)
  401b4c:	27bd0020 	addiu	sp,sp,32
  401b50:	03e00008 	jr	ra
  401b54:	00000000 	nop

00401b58 <fd_alloc>:
fd_alloc():
/home/git/21373271/21373271/user/lib/fd.c:34
  401b58:	27bdfff0 	addiu	sp,sp,-16
  401b5c:	afbe000c 	sw	s8,12(sp)
  401b60:	03a0f025 	move	s8,sp
  401b64:	afc40010 	sw	a0,16(s8)
/home/git/21373271/21373271/user/lib/fd.c:38
  401b68:	afc00000 	sw	zero,0(s8)
  401b6c:	10000030 	b	401c30 <fd_alloc+0xd8>
  401b70:	00000000 	nop
/home/git/21373271/21373271/user/lib/fd.c:39
  401b74:	8fc30000 	lw	v1,0(s8)
  401b78:	3c020005 	lui	v0,0x5
  401b7c:	3442fc00 	ori	v0,v0,0xfc00
  401b80:	00621021 	addu	v0,v1,v0
  401b84:	00021300 	sll	v0,v0,0xc
  401b88:	afc20004 	sw	v0,4(s8)
/home/git/21373271/21373271/user/lib/fd.c:41
  401b8c:	8fc20004 	lw	v0,4(s8)
  401b90:	00000000 	nop
  401b94:	00021582 	srl	v0,v0,0x16
  401b98:	00021880 	sll	v1,v0,0x2
  401b9c:	3c027fdf 	lui	v0,0x7fdf
  401ba0:	3442f000 	ori	v0,v0,0xf000
  401ba4:	00621021 	addu	v0,v1,v0
  401ba8:	8c420000 	lw	v0,0(v0)
  401bac:	00000000 	nop
  401bb0:	30420200 	andi	v0,v0,0x200
  401bb4:	14400008 	bnez	v0,401bd8 <fd_alloc+0x80>
  401bb8:	00000000 	nop
/home/git/21373271/21373271/user/lib/fd.c:42
  401bbc:	8fc30004 	lw	v1,4(s8)
  401bc0:	8fc20010 	lw	v0,16(s8)
  401bc4:	00000000 	nop
  401bc8:	ac430000 	sw	v1,0(v0)
/home/git/21373271/21373271/user/lib/fd.c:43
  401bcc:	00001025 	move	v0,zero
  401bd0:	1000001d 	b	401c48 <fd_alloc+0xf0>
  401bd4:	00000000 	nop
/home/git/21373271/21373271/user/lib/fd.c:46
  401bd8:	8fc20004 	lw	v0,4(s8)
  401bdc:	00000000 	nop
  401be0:	00021302 	srl	v0,v0,0xc
  401be4:	00021880 	sll	v1,v0,0x2
  401be8:	3c027fc0 	lui	v0,0x7fc0
  401bec:	00621021 	addu	v0,v1,v0
  401bf0:	8c420000 	lw	v0,0(v0)
  401bf4:	00000000 	nop
  401bf8:	30420200 	andi	v0,v0,0x200
  401bfc:	14400008 	bnez	v0,401c20 <fd_alloc+0xc8>
  401c00:	00000000 	nop
/home/git/21373271/21373271/user/lib/fd.c:47
  401c04:	8fc30004 	lw	v1,4(s8)
  401c08:	8fc20010 	lw	v0,16(s8)
  401c0c:	00000000 	nop
  401c10:	ac430000 	sw	v1,0(v0)
/home/git/21373271/21373271/user/lib/fd.c:48
  401c14:	00001025 	move	v0,zero
  401c18:	1000000b 	b	401c48 <fd_alloc+0xf0>
  401c1c:	00000000 	nop
/home/git/21373271/21373271/user/lib/fd.c:38 (discriminator 2)
  401c20:	8fc20000 	lw	v0,0(s8)
  401c24:	00000000 	nop
  401c28:	24420001 	addiu	v0,v0,1
  401c2c:	afc20000 	sw	v0,0(s8)
/home/git/21373271/21373271/user/lib/fd.c:38 (discriminator 1)
  401c30:	8fc20000 	lw	v0,0(s8)
  401c34:	00000000 	nop
  401c38:	2c42001f 	sltiu	v0,v0,31
  401c3c:	1440ffcd 	bnez	v0,401b74 <fd_alloc+0x1c>
  401c40:	00000000 	nop
/home/git/21373271/21373271/user/lib/fd.c:52
  401c44:	2402fff7 	li	v0,-9
/home/git/21373271/21373271/user/lib/fd.c:53
  401c48:	03c0e825 	move	sp,s8
  401c4c:	8fbe000c 	lw	s8,12(sp)
  401c50:	27bd0010 	addiu	sp,sp,16
  401c54:	03e00008 	jr	ra
  401c58:	00000000 	nop

00401c5c <fd_close>:
fd_close():
/home/git/21373271/21373271/user/lib/fd.c:55
  401c5c:	27bdffe8 	addiu	sp,sp,-24
  401c60:	afbf0014 	sw	ra,20(sp)
  401c64:	afbe0010 	sw	s8,16(sp)
  401c68:	03a0f025 	move	s8,sp
  401c6c:	afc40018 	sw	a0,24(s8)
/home/git/21373271/21373271/user/lib/fd.c:56
  401c70:	8fc50018 	lw	a1,24(s8)
  401c74:	00002025 	move	a0,zero
  401c78:	0c100591 	jal	401644 <syscall_mem_unmap>
  401c7c:	00000000 	nop
/home/git/21373271/21373271/user/lib/fd.c:57
  401c80:	00000000 	nop
  401c84:	03c0e825 	move	sp,s8
  401c88:	8fbf0014 	lw	ra,20(sp)
  401c8c:	8fbe0010 	lw	s8,16(sp)
  401c90:	27bd0018 	addiu	sp,sp,24
  401c94:	03e00008 	jr	ra
  401c98:	00000000 	nop

00401c9c <fd_lookup>:
fd_lookup():
/home/git/21373271/21373271/user/lib/fd.c:65
  401c9c:	27bdfff0 	addiu	sp,sp,-16
  401ca0:	afbe000c 	sw	s8,12(sp)
  401ca4:	03a0f025 	move	s8,sp
  401ca8:	afc40010 	sw	a0,16(s8)
  401cac:	afc50014 	sw	a1,20(s8)
/home/git/21373271/21373271/user/lib/fd.c:68
  401cb0:	8fc20010 	lw	v0,16(s8)
  401cb4:	00000000 	nop
  401cb8:	28420020 	slti	v0,v0,32
  401cbc:	14400004 	bnez	v0,401cd0 <fd_lookup+0x34>
  401cc0:	00000000 	nop
/home/git/21373271/21373271/user/lib/fd.c:69
  401cc4:	2402fffd 	li	v0,-3
  401cc8:	1000001a 	b	401d34 <fd_lookup+0x98>
  401ccc:	00000000 	nop
/home/git/21373271/21373271/user/lib/fd.c:72
  401cd0:	8fc30010 	lw	v1,16(s8)
  401cd4:	3c020005 	lui	v0,0x5
  401cd8:	3442fc00 	ori	v0,v0,0xfc00
  401cdc:	00621021 	addu	v0,v1,v0
  401ce0:	00021300 	sll	v0,v0,0xc
  401ce4:	afc20000 	sw	v0,0(s8)
/home/git/21373271/21373271/user/lib/fd.c:74
  401ce8:	8fc20000 	lw	v0,0(s8)
  401cec:	00000000 	nop
  401cf0:	00021302 	srl	v0,v0,0xc
  401cf4:	00021880 	sll	v1,v0,0x2
  401cf8:	3c027fc0 	lui	v0,0x7fc0
  401cfc:	00621021 	addu	v0,v1,v0
  401d00:	8c420000 	lw	v0,0(v0)
  401d04:	00000000 	nop
  401d08:	30420200 	andi	v0,v0,0x200
  401d0c:	10400008 	beqz	v0,401d30 <fd_lookup+0x94>
  401d10:	00000000 	nop
/home/git/21373271/21373271/user/lib/fd.c:75
  401d14:	8fc30000 	lw	v1,0(s8)
  401d18:	8fc20014 	lw	v0,20(s8)
  401d1c:	00000000 	nop
  401d20:	ac430000 	sw	v1,0(v0)
/home/git/21373271/21373271/user/lib/fd.c:76
  401d24:	00001025 	move	v0,zero
  401d28:	10000002 	b	401d34 <fd_lookup+0x98>
  401d2c:	00000000 	nop
/home/git/21373271/21373271/user/lib/fd.c:79
  401d30:	2402fffd 	li	v0,-3
/home/git/21373271/21373271/user/lib/fd.c:80
  401d34:	03c0e825 	move	sp,s8
  401d38:	8fbe000c 	lw	s8,12(sp)
  401d3c:	27bd0010 	addiu	sp,sp,16
  401d40:	03e00008 	jr	ra
  401d44:	00000000 	nop

00401d48 <fd2data>:
fd2data():
/home/git/21373271/21373271/user/lib/fd.c:82
  401d48:	27bdffe8 	addiu	sp,sp,-24
  401d4c:	afbf0014 	sw	ra,20(sp)
  401d50:	afbe0010 	sw	s8,16(sp)
  401d54:	03a0f025 	move	s8,sp
  401d58:	afc40018 	sw	a0,24(s8)
/home/git/21373271/21373271/user/lib/fd.c:83
  401d5c:	8fc40018 	lw	a0,24(s8)
  401d60:	0c100762 	jal	401d88 <fd2num>
  401d64:	00000000 	nop
  401d68:	24420180 	addiu	v0,v0,384
  401d6c:	00021580 	sll	v0,v0,0x16
/home/git/21373271/21373271/user/lib/fd.c:84
  401d70:	03c0e825 	move	sp,s8
  401d74:	8fbf0014 	lw	ra,20(sp)
  401d78:	8fbe0010 	lw	s8,16(sp)
  401d7c:	27bd0018 	addiu	sp,sp,24
  401d80:	03e00008 	jr	ra
  401d84:	00000000 	nop

00401d88 <fd2num>:
fd2num():
/home/git/21373271/21373271/user/lib/fd.c:86
  401d88:	27bdfff8 	addiu	sp,sp,-8
  401d8c:	afbe0004 	sw	s8,4(sp)
  401d90:	03a0f025 	move	s8,sp
  401d94:	afc40008 	sw	a0,8(s8)
/home/git/21373271/21373271/user/lib/fd.c:87
  401d98:	8fc30008 	lw	v1,8(s8)
  401d9c:	3c02a040 	lui	v0,0xa040
  401da0:	00621021 	addu	v0,v1,v0
  401da4:	00021302 	srl	v0,v0,0xc
/home/git/21373271/21373271/user/lib/fd.c:88
  401da8:	03c0e825 	move	sp,s8
  401dac:	8fbe0004 	lw	s8,4(sp)
  401db0:	27bd0008 	addiu	sp,sp,8
  401db4:	03e00008 	jr	ra
  401db8:	00000000 	nop

00401dbc <num2fd>:
num2fd():
/home/git/21373271/21373271/user/lib/fd.c:90
  401dbc:	27bdfff8 	addiu	sp,sp,-8
  401dc0:	afbe0004 	sw	s8,4(sp)
  401dc4:	03a0f025 	move	s8,sp
  401dc8:	afc40008 	sw	a0,8(s8)
/home/git/21373271/21373271/user/lib/fd.c:91
  401dcc:	8fc30008 	lw	v1,8(s8)
  401dd0:	3c020005 	lui	v0,0x5
  401dd4:	3442fc00 	ori	v0,v0,0xfc00
  401dd8:	00621021 	addu	v0,v1,v0
  401ddc:	00021300 	sll	v0,v0,0xc
/home/git/21373271/21373271/user/lib/fd.c:92
  401de0:	03c0e825 	move	sp,s8
  401de4:	8fbe0004 	lw	s8,4(sp)
  401de8:	27bd0008 	addiu	sp,sp,8
  401dec:	03e00008 	jr	ra
  401df0:	00000000 	nop

00401df4 <close>:
close():
/home/git/21373271/21373271/user/lib/fd.c:94
  401df4:	27bdffd8 	addiu	sp,sp,-40
  401df8:	afbf0024 	sw	ra,36(sp)
  401dfc:	afbe0020 	sw	s8,32(sp)
  401e00:	03a0f025 	move	s8,sp
  401e04:	afc40028 	sw	a0,40(s8)
/home/git/21373271/21373271/user/lib/fd.c:96
  401e08:	afc00014 	sw	zero,20(s8)
/home/git/21373271/21373271/user/lib/fd.c:99
  401e0c:	27c20018 	addiu	v0,s8,24
  401e10:	00402825 	move	a1,v0
  401e14:	8fc40028 	lw	a0,40(s8)
  401e18:	0c100727 	jal	401c9c <fd_lookup>
  401e1c:	00000000 	nop
  401e20:	afc20010 	sw	v0,16(s8)
  401e24:	8fc20010 	lw	v0,16(s8)
  401e28:	00000000 	nop
  401e2c:	0440000e 	bltz	v0,401e68 <close+0x74>
  401e30:	00000000 	nop
/home/git/21373271/21373271/user/lib/fd.c:99 (discriminator 1)
  401e34:	8fc20018 	lw	v0,24(s8)
  401e38:	00000000 	nop
  401e3c:	8c420000 	lw	v0,0(v0)
  401e40:	27c30014 	addiu	v1,s8,20
  401e44:	00602825 	move	a1,v1
  401e48:	00402025 	move	a0,v0
  401e4c:	0c100694 	jal	401a50 <dev_lookup>
  401e50:	00000000 	nop
  401e54:	afc20010 	sw	v0,16(s8)
  401e58:	8fc20010 	lw	v0,16(s8)
  401e5c:	00000000 	nop
  401e60:	04410004 	bgez	v0,401e74 <close+0x80>
  401e64:	00000000 	nop
/home/git/21373271/21373271/user/lib/fd.c:100
  401e68:	8fc20010 	lw	v0,16(s8)
  401e6c:	10000010 	b	401eb0 <close+0xbc>
  401e70:	00000000 	nop
/home/git/21373271/21373271/user/lib/fd.c:103
  401e74:	8fc20014 	lw	v0,20(s8)
  401e78:	00000000 	nop
  401e7c:	8c420010 	lw	v0,16(v0)
  401e80:	8fc30018 	lw	v1,24(s8)
  401e84:	00000000 	nop
  401e88:	00602025 	move	a0,v1
  401e8c:	0040f809 	jalr	v0
  401e90:	00000000 	nop
  401e94:	afc20010 	sw	v0,16(s8)
/home/git/21373271/21373271/user/lib/fd.c:104
  401e98:	8fc20018 	lw	v0,24(s8)
  401e9c:	00000000 	nop
  401ea0:	00402025 	move	a0,v0
  401ea4:	0c100717 	jal	401c5c <fd_close>
  401ea8:	00000000 	nop
/home/git/21373271/21373271/user/lib/fd.c:105
  401eac:	8fc20010 	lw	v0,16(s8)
/home/git/21373271/21373271/user/lib/fd.c:106 (discriminator 1)
  401eb0:	03c0e825 	move	sp,s8
  401eb4:	8fbf0024 	lw	ra,36(sp)
  401eb8:	8fbe0020 	lw	s8,32(sp)
  401ebc:	27bd0028 	addiu	sp,sp,40
  401ec0:	03e00008 	jr	ra
  401ec4:	00000000 	nop

00401ec8 <close_all>:
close_all():
/home/git/21373271/21373271/user/lib/fd.c:108
  401ec8:	27bdffe0 	addiu	sp,sp,-32
  401ecc:	afbf001c 	sw	ra,28(sp)
  401ed0:	afbe0018 	sw	s8,24(sp)
  401ed4:	03a0f025 	move	s8,sp
/home/git/21373271/21373271/user/lib/fd.c:111
  401ed8:	afc00010 	sw	zero,16(s8)
  401edc:	10000008 	b	401f00 <close_all+0x38>
  401ee0:	00000000 	nop
/home/git/21373271/21373271/user/lib/fd.c:112 (discriminator 3)
  401ee4:	8fc40010 	lw	a0,16(s8)
  401ee8:	0c10077d 	jal	401df4 <close>
  401eec:	00000000 	nop
/home/git/21373271/21373271/user/lib/fd.c:111 (discriminator 3)
  401ef0:	8fc20010 	lw	v0,16(s8)
  401ef4:	00000000 	nop
  401ef8:	24420001 	addiu	v0,v0,1
  401efc:	afc20010 	sw	v0,16(s8)
/home/git/21373271/21373271/user/lib/fd.c:111 (discriminator 1)
  401f00:	8fc20010 	lw	v0,16(s8)
  401f04:	00000000 	nop
  401f08:	28420020 	slti	v0,v0,32
  401f0c:	1440fff5 	bnez	v0,401ee4 <close_all+0x1c>
  401f10:	00000000 	nop
	...
/home/git/21373271/21373271/user/lib/fd.c:114
  401f1c:	03c0e825 	move	sp,s8
  401f20:	8fbf001c 	lw	ra,28(sp)
  401f24:	8fbe0018 	lw	s8,24(sp)
  401f28:	27bd0020 	addiu	sp,sp,32
  401f2c:	03e00008 	jr	ra
  401f30:	00000000 	nop

00401f34 <dup>:
dup():
/home/git/21373271/21373271/user/lib/fd.c:116
  401f34:	27bdffc0 	addiu	sp,sp,-64
  401f38:	afbf003c 	sw	ra,60(sp)
  401f3c:	afbe0038 	sw	s8,56(sp)
  401f40:	03a0f025 	move	s8,sp
  401f44:	afc40040 	sw	a0,64(s8)
  401f48:	afc50044 	sw	a1,68(s8)
/home/git/21373271/21373271/user/lib/fd.c:122
  401f4c:	27c20030 	addiu	v0,s8,48
  401f50:	00402825 	move	a1,v0
  401f54:	8fc40040 	lw	a0,64(s8)
  401f58:	0c100727 	jal	401c9c <fd_lookup>
  401f5c:	00000000 	nop
  401f60:	afc2001c 	sw	v0,28(s8)
  401f64:	8fc2001c 	lw	v0,28(s8)
  401f68:	00000000 	nop
  401f6c:	04410004 	bgez	v0,401f80 <dup+0x4c>
  401f70:	00000000 	nop
/home/git/21373271/21373271/user/lib/fd.c:123
  401f74:	8fc2001c 	lw	v0,28(s8)
  401f78:	10000088 	b	40219c <dup+0x268>
  401f7c:	00000000 	nop
/home/git/21373271/21373271/user/lib/fd.c:126
  401f80:	8fc40044 	lw	a0,68(s8)
  401f84:	0c10077d 	jal	401df4 <close>
  401f88:	00000000 	nop
/home/git/21373271/21373271/user/lib/fd.c:127
  401f8c:	8fc30044 	lw	v1,68(s8)
  401f90:	3c020005 	lui	v0,0x5
  401f94:	3442fc00 	ori	v0,v0,0xfc00
  401f98:	00621021 	addu	v0,v1,v0
  401f9c:	00021300 	sll	v0,v0,0xc
  401fa0:	afc20020 	sw	v0,32(s8)
/home/git/21373271/21373271/user/lib/fd.c:128
  401fa4:	8fc20030 	lw	v0,48(s8)
  401fa8:	00000000 	nop
  401fac:	00402025 	move	a0,v0
  401fb0:	0c100752 	jal	401d48 <fd2data>
  401fb4:	00000000 	nop
  401fb8:	afc20024 	sw	v0,36(s8)
/home/git/21373271/21373271/user/lib/fd.c:129
  401fbc:	8fc40020 	lw	a0,32(s8)
  401fc0:	0c100752 	jal	401d48 <fd2data>
  401fc4:	00000000 	nop
  401fc8:	afc20028 	sw	v0,40(s8)
/home/git/21373271/21373271/user/lib/fd.c:130
  401fcc:	8fc40030 	lw	a0,48(s8)
  401fd0:	8fc20030 	lw	v0,48(s8)
  401fd4:	00000000 	nop
  401fd8:	00021302 	srl	v0,v0,0xc
  401fdc:	00021880 	sll	v1,v0,0x2
  401fe0:	3c027fc0 	lui	v0,0x7fc0
  401fe4:	00621021 	addu	v0,v1,v0
  401fe8:	8c420000 	lw	v0,0(v0)
  401fec:	00000000 	nop
  401ff0:	30420404 	andi	v0,v0,0x404
  401ff4:	afa20010 	sw	v0,16(sp)
  401ff8:	8fc70020 	lw	a3,32(s8)
  401ffc:	00003025 	move	a2,zero
  402000:	00802825 	move	a1,a0
  402004:	00002025 	move	a0,zero
  402008:	0c100577 	jal	4015dc <syscall_mem_map>
  40200c:	00000000 	nop
  402010:	afc2001c 	sw	v0,28(s8)
  402014:	8fc2001c 	lw	v0,28(s8)
  402018:	00000000 	nop
  40201c:	04400042 	bltz	v0,402128 <dup+0x1f4>
  402020:	00000000 	nop
/home/git/21373271/21373271/user/lib/fd.c:135
  402024:	8fc20024 	lw	v0,36(s8)
  402028:	00000000 	nop
  40202c:	00021582 	srl	v0,v0,0x16
  402030:	00021880 	sll	v1,v0,0x2
  402034:	3c027fdf 	lui	v0,0x7fdf
  402038:	3442f000 	ori	v0,v0,0xf000
  40203c:	00621021 	addu	v0,v1,v0
  402040:	8c420000 	lw	v0,0(v0)
  402044:	00000000 	nop
  402048:	10400034 	beqz	v0,40211c <dup+0x1e8>
  40204c:	00000000 	nop
/home/git/21373271/21373271/user/lib/fd.c:136
  402050:	afc00018 	sw	zero,24(s8)
  402054:	1000002c 	b	402108 <dup+0x1d4>
  402058:	00000000 	nop
/home/git/21373271/21373271/user/lib/fd.c:137
  40205c:	8fc20018 	lw	v0,24(s8)
  402060:	8fc30024 	lw	v1,36(s8)
  402064:	00000000 	nop
  402068:	00621021 	addu	v0,v1,v0
  40206c:	00021302 	srl	v0,v0,0xc
  402070:	00021880 	sll	v1,v0,0x2
  402074:	3c027fc0 	lui	v0,0x7fc0
  402078:	00621021 	addu	v0,v1,v0
  40207c:	8c420000 	lw	v0,0(v0)
  402080:	00000000 	nop
  402084:	afc2002c 	sw	v0,44(s8)
/home/git/21373271/21373271/user/lib/fd.c:139
  402088:	8fc2002c 	lw	v0,44(s8)
  40208c:	00000000 	nop
  402090:	30420200 	andi	v0,v0,0x200
  402094:	10400018 	beqz	v0,4020f8 <dup+0x1c4>
  402098:	00000000 	nop
/home/git/21373271/21373271/user/lib/fd.c:141
  40209c:	8fc20018 	lw	v0,24(s8)
  4020a0:	8fc30024 	lw	v1,36(s8)
  4020a4:	00000000 	nop
  4020a8:	00622021 	addu	a0,v1,v0
  4020ac:	8fc20018 	lw	v0,24(s8)
  4020b0:	8fc30028 	lw	v1,40(s8)
  4020b4:	00000000 	nop
  4020b8:	00621821 	addu	v1,v1,v0
  4020bc:	8fc2002c 	lw	v0,44(s8)
  4020c0:	00000000 	nop
  4020c4:	30420404 	andi	v0,v0,0x404
  4020c8:	afa20010 	sw	v0,16(sp)
  4020cc:	00603825 	move	a3,v1
  4020d0:	00003025 	move	a2,zero
  4020d4:	00802825 	move	a1,a0
  4020d8:	00002025 	move	a0,zero
  4020dc:	0c100577 	jal	4015dc <syscall_mem_map>
  4020e0:	00000000 	nop
  4020e4:	afc2001c 	sw	v0,28(s8)
  4020e8:	8fc2001c 	lw	v0,28(s8)
  4020ec:	00000000 	nop
  4020f0:	04400010 	bltz	v0,402134 <dup+0x200>
  4020f4:	00000000 	nop
/home/git/21373271/21373271/user/lib/fd.c:136 (discriminator 2)
  4020f8:	8fc20018 	lw	v0,24(s8)
  4020fc:	00000000 	nop
  402100:	24421000 	addiu	v0,v0,4096
  402104:	afc20018 	sw	v0,24(s8)
/home/git/21373271/21373271/user/lib/fd.c:136 (discriminator 1)
  402108:	8fc30018 	lw	v1,24(s8)
  40210c:	3c020040 	lui	v0,0x40
  402110:	0062102a 	slt	v0,v1,v0
  402114:	1440ffd1 	bnez	v0,40205c <dup+0x128>
  402118:	00000000 	nop
/home/git/21373271/21373271/user/lib/fd.c:149
  40211c:	8fc20044 	lw	v0,68(s8)
  402120:	1000001e 	b	40219c <dup+0x268>
  402124:	00000000 	nop
/home/git/21373271/21373271/user/lib/fd.c:132
  402128:	00000000 	nop
  40212c:	10000002 	b	402138 <dup+0x204>
  402130:	00000000 	nop
/home/git/21373271/21373271/user/lib/fd.c:143
  402134:	00000000 	nop
/home/git/21373271/21373271/user/lib/fd.c:152
  402138:	8fc50020 	lw	a1,32(s8)
  40213c:	00002025 	move	a0,zero
  402140:	0c100591 	jal	401644 <syscall_mem_unmap>
  402144:	00000000 	nop
/home/git/21373271/21373271/user/lib/fd.c:154
  402148:	afc00018 	sw	zero,24(s8)
  40214c:	1000000d 	b	402184 <dup+0x250>
  402150:	00000000 	nop
/home/git/21373271/21373271/user/lib/fd.c:155 (discriminator 3)
  402154:	8fc20018 	lw	v0,24(s8)
  402158:	8fc30028 	lw	v1,40(s8)
  40215c:	00000000 	nop
  402160:	00621021 	addu	v0,v1,v0
  402164:	00402825 	move	a1,v0
  402168:	00002025 	move	a0,zero
  40216c:	0c100591 	jal	401644 <syscall_mem_unmap>
  402170:	00000000 	nop
/home/git/21373271/21373271/user/lib/fd.c:154 (discriminator 3)
  402174:	8fc20018 	lw	v0,24(s8)
  402178:	00000000 	nop
  40217c:	24421000 	addiu	v0,v0,4096
  402180:	afc20018 	sw	v0,24(s8)
/home/git/21373271/21373271/user/lib/fd.c:154 (discriminator 1)
  402184:	8fc30018 	lw	v1,24(s8)
  402188:	3c020040 	lui	v0,0x40
  40218c:	0062102a 	slt	v0,v1,v0
  402190:	1440fff0 	bnez	v0,402154 <dup+0x220>
  402194:	00000000 	nop
/home/git/21373271/21373271/user/lib/fd.c:158
  402198:	8fc2001c 	lw	v0,28(s8)
/home/git/21373271/21373271/user/lib/fd.c:159 (discriminator 1)
  40219c:	03c0e825 	move	sp,s8
  4021a0:	8fbf003c 	lw	ra,60(sp)
  4021a4:	8fbe0038 	lw	s8,56(sp)
  4021a8:	27bd0040 	addiu	sp,sp,64
  4021ac:	03e00008 	jr	ra
  4021b0:	00000000 	nop

004021b4 <read>:
read():
/home/git/21373271/21373271/user/lib/fd.c:168
  4021b4:	27bdffd8 	addiu	sp,sp,-40
  4021b8:	afbf0024 	sw	ra,36(sp)
  4021bc:	afbe0020 	sw	s8,32(sp)
  4021c0:	03a0f025 	move	s8,sp
  4021c4:	afc40028 	sw	a0,40(s8)
  4021c8:	afc5002c 	sw	a1,44(s8)
  4021cc:	afc60030 	sw	a2,48(s8)
/home/git/21373271/21373271/user/lib/fd.c:176
  4021d0:	27c20018 	addiu	v0,s8,24
  4021d4:	00402825 	move	a1,v0
  4021d8:	8fc40028 	lw	a0,40(s8)
  4021dc:	0c100727 	jal	401c9c <fd_lookup>
  4021e0:	00000000 	nop
  4021e4:	afc20010 	sw	v0,16(s8)
  4021e8:	8fc20010 	lw	v0,16(s8)
  4021ec:	00000000 	nop
  4021f0:	0440000e 	bltz	v0,40222c <read+0x78>
  4021f4:	00000000 	nop
/home/git/21373271/21373271/user/lib/fd.c:176 (discriminator 1)
  4021f8:	8fc20018 	lw	v0,24(s8)
  4021fc:	00000000 	nop
  402200:	8c420000 	lw	v0,0(v0)
  402204:	27c30014 	addiu	v1,s8,20
  402208:	00602825 	move	a1,v1
  40220c:	00402025 	move	a0,v0
  402210:	0c100694 	jal	401a50 <dev_lookup>
  402214:	00000000 	nop
  402218:	afc20010 	sw	v0,16(s8)
  40221c:	8fc20010 	lw	v0,16(s8)
  402220:	00000000 	nop
  402224:	04410004 	bgez	v0,402238 <read+0x84>
  402228:	00000000 	nop
/home/git/21373271/21373271/user/lib/fd.c:177
  40222c:	8fc20010 	lw	v0,16(s8)
  402230:	10000026 	b	4022cc <read+0x118>
  402234:	00000000 	nop
/home/git/21373271/21373271/user/lib/fd.c:182
  402238:	8fc20018 	lw	v0,24(s8)
  40223c:	00000000 	nop
  402240:	8c420008 	lw	v0,8(v0)
  402244:	00000000 	nop
  402248:	30430003 	andi	v1,v0,0x3
  40224c:	24020001 	li	v0,1
  402250:	14620004 	bne	v1,v0,402264 <read+0xb0>
  402254:	00000000 	nop
/home/git/21373271/21373271/user/lib/fd.c:183
  402258:	2402fffd 	li	v0,-3
  40225c:	1000001b 	b	4022cc <read+0x118>
  402260:	00000000 	nop
/home/git/21373271/21373271/user/lib/fd.c:187
  402264:	8fc20014 	lw	v0,20(s8)
  402268:	00000000 	nop
  40226c:	8c420008 	lw	v0,8(v0)
  402270:	8fc40018 	lw	a0,24(s8)
  402274:	8fc30018 	lw	v1,24(s8)
  402278:	00000000 	nop
  40227c:	8c630004 	lw	v1,4(v1)
  402280:	00000000 	nop
  402284:	00603825 	move	a3,v1
  402288:	8fc60030 	lw	a2,48(s8)
  40228c:	8fc5002c 	lw	a1,44(s8)
  402290:	0040f809 	jalr	v0
  402294:	00000000 	nop
  402298:	afc20010 	sw	v0,16(s8)
/home/git/21373271/21373271/user/lib/fd.c:193
  40229c:	8fc20010 	lw	v0,16(s8)
  4022a0:	00000000 	nop
  4022a4:	18400008 	blez	v0,4022c8 <read+0x114>
  4022a8:	00000000 	nop
/home/git/21373271/21373271/user/lib/fd.c:194
  4022ac:	8fc20018 	lw	v0,24(s8)
  4022b0:	00000000 	nop
  4022b4:	8c440004 	lw	a0,4(v0)
  4022b8:	8fc30010 	lw	v1,16(s8)
  4022bc:	8fc20018 	lw	v0,24(s8)
  4022c0:	00831821 	addu	v1,a0,v1
  4022c4:	ac430004 	sw	v1,4(v0)
/home/git/21373271/21373271/user/lib/fd.c:196
  4022c8:	8fc20010 	lw	v0,16(s8)
/home/git/21373271/21373271/user/lib/fd.c:197 (discriminator 1)
  4022cc:	03c0e825 	move	sp,s8
  4022d0:	8fbf0024 	lw	ra,36(sp)
  4022d4:	8fbe0020 	lw	s8,32(sp)
  4022d8:	27bd0028 	addiu	sp,sp,40
  4022dc:	03e00008 	jr	ra
  4022e0:	00000000 	nop

004022e4 <readn>:
readn():
/home/git/21373271/21373271/user/lib/fd.c:199
  4022e4:	27bdffe0 	addiu	sp,sp,-32
  4022e8:	afbf001c 	sw	ra,28(sp)
  4022ec:	afbe0018 	sw	s8,24(sp)
  4022f0:	03a0f025 	move	s8,sp
  4022f4:	afc40020 	sw	a0,32(s8)
  4022f8:	afc50024 	sw	a1,36(s8)
  4022fc:	afc60028 	sw	a2,40(s8)
/home/git/21373271/21373271/user/lib/fd.c:202
  402300:	afc00010 	sw	zero,16(s8)
  402304:	1000001f 	b	402384 <readn+0xa0>
  402308:	00000000 	nop
/home/git/21373271/21373271/user/lib/fd.c:203
  40230c:	8fc20010 	lw	v0,16(s8)
  402310:	8fc30024 	lw	v1,36(s8)
  402314:	00000000 	nop
  402318:	00622021 	addu	a0,v1,v0
  40231c:	8fc20010 	lw	v0,16(s8)
  402320:	8fc30028 	lw	v1,40(s8)
  402324:	00000000 	nop
  402328:	00621023 	subu	v0,v1,v0
  40232c:	00403025 	move	a2,v0
  402330:	00802825 	move	a1,a0
  402334:	8fc40020 	lw	a0,32(s8)
  402338:	0c10086d 	jal	4021b4 <read>
  40233c:	00000000 	nop
  402340:	afc20014 	sw	v0,20(s8)
/home/git/21373271/21373271/user/lib/fd.c:205
  402344:	8fc20014 	lw	v0,20(s8)
  402348:	00000000 	nop
  40234c:	04410004 	bgez	v0,402360 <readn+0x7c>
  402350:	00000000 	nop
/home/git/21373271/21373271/user/lib/fd.c:206
  402354:	8fc20014 	lw	v0,20(s8)
  402358:	10000014 	b	4023ac <readn+0xc8>
  40235c:	00000000 	nop
/home/git/21373271/21373271/user/lib/fd.c:209
  402360:	8fc20014 	lw	v0,20(s8)
  402364:	00000000 	nop
  402368:	1040000e 	beqz	v0,4023a4 <readn+0xc0>
  40236c:	00000000 	nop
/home/git/21373271/21373271/user/lib/fd.c:202 (discriminator 2)
  402370:	8fc30010 	lw	v1,16(s8)
  402374:	8fc20014 	lw	v0,20(s8)
  402378:	00000000 	nop
  40237c:	00621021 	addu	v0,v1,v0
  402380:	afc20010 	sw	v0,16(s8)
/home/git/21373271/21373271/user/lib/fd.c:202 (discriminator 1)
  402384:	8fc20010 	lw	v0,16(s8)
  402388:	8fc30028 	lw	v1,40(s8)
  40238c:	00000000 	nop
  402390:	0043102b 	sltu	v0,v0,v1
  402394:	1440ffdd 	bnez	v0,40230c <readn+0x28>
  402398:	00000000 	nop
  40239c:	10000002 	b	4023a8 <readn+0xc4>
  4023a0:	00000000 	nop
/home/git/21373271/21373271/user/lib/fd.c:210
  4023a4:	00000000 	nop
/home/git/21373271/21373271/user/lib/fd.c:214
  4023a8:	8fc20010 	lw	v0,16(s8)
/home/git/21373271/21373271/user/lib/fd.c:215
  4023ac:	03c0e825 	move	sp,s8
  4023b0:	8fbf001c 	lw	ra,28(sp)
  4023b4:	8fbe0018 	lw	s8,24(sp)
  4023b8:	27bd0020 	addiu	sp,sp,32
  4023bc:	03e00008 	jr	ra
  4023c0:	00000000 	nop

004023c4 <write>:
write():
/home/git/21373271/21373271/user/lib/fd.c:217
  4023c4:	27bdffd8 	addiu	sp,sp,-40
  4023c8:	afbf0024 	sw	ra,36(sp)
  4023cc:	afbe0020 	sw	s8,32(sp)
  4023d0:	03a0f025 	move	s8,sp
  4023d4:	afc40028 	sw	a0,40(s8)
  4023d8:	afc5002c 	sw	a1,44(s8)
  4023dc:	afc60030 	sw	a2,48(s8)
/home/git/21373271/21373271/user/lib/fd.c:222
  4023e0:	27c20018 	addiu	v0,s8,24
  4023e4:	00402825 	move	a1,v0
  4023e8:	8fc40028 	lw	a0,40(s8)
  4023ec:	0c100727 	jal	401c9c <fd_lookup>
  4023f0:	00000000 	nop
  4023f4:	afc20010 	sw	v0,16(s8)
  4023f8:	8fc20010 	lw	v0,16(s8)
  4023fc:	00000000 	nop
  402400:	0440000e 	bltz	v0,40243c <write+0x78>
  402404:	00000000 	nop
/home/git/21373271/21373271/user/lib/fd.c:222 (discriminator 1)
  402408:	8fc20018 	lw	v0,24(s8)
  40240c:	00000000 	nop
  402410:	8c420000 	lw	v0,0(v0)
  402414:	27c30014 	addiu	v1,s8,20
  402418:	00602825 	move	a1,v1
  40241c:	00402025 	move	a0,v0
  402420:	0c100694 	jal	401a50 <dev_lookup>
  402424:	00000000 	nop
  402428:	afc20010 	sw	v0,16(s8)
  40242c:	8fc20010 	lw	v0,16(s8)
  402430:	00000000 	nop
  402434:	04410004 	bgez	v0,402448 <write+0x84>
  402438:	00000000 	nop
/home/git/21373271/21373271/user/lib/fd.c:223
  40243c:	8fc20010 	lw	v0,16(s8)
  402440:	10000025 	b	4024d8 <write+0x114>
  402444:	00000000 	nop
/home/git/21373271/21373271/user/lib/fd.c:226
  402448:	8fc20018 	lw	v0,24(s8)
  40244c:	00000000 	nop
  402450:	8c420008 	lw	v0,8(v0)
  402454:	00000000 	nop
  402458:	30420003 	andi	v0,v0,0x3
  40245c:	14400004 	bnez	v0,402470 <write+0xac>
  402460:	00000000 	nop
/home/git/21373271/21373271/user/lib/fd.c:227
  402464:	2402fffd 	li	v0,-3
  402468:	1000001b 	b	4024d8 <write+0x114>
  40246c:	00000000 	nop
/home/git/21373271/21373271/user/lib/fd.c:230
  402470:	8fc20014 	lw	v0,20(s8)
  402474:	00000000 	nop
  402478:	8c42000c 	lw	v0,12(v0)
  40247c:	8fc40018 	lw	a0,24(s8)
  402480:	8fc30018 	lw	v1,24(s8)
  402484:	00000000 	nop
  402488:	8c630004 	lw	v1,4(v1)
  40248c:	00000000 	nop
  402490:	00603825 	move	a3,v1
  402494:	8fc60030 	lw	a2,48(s8)
  402498:	8fc5002c 	lw	a1,44(s8)
  40249c:	0040f809 	jalr	v0
  4024a0:	00000000 	nop
  4024a4:	afc20010 	sw	v0,16(s8)
/home/git/21373271/21373271/user/lib/fd.c:231
  4024a8:	8fc20010 	lw	v0,16(s8)
  4024ac:	00000000 	nop
  4024b0:	18400008 	blez	v0,4024d4 <write+0x110>
  4024b4:	00000000 	nop
/home/git/21373271/21373271/user/lib/fd.c:232
  4024b8:	8fc20018 	lw	v0,24(s8)
  4024bc:	00000000 	nop
  4024c0:	8c440004 	lw	a0,4(v0)
  4024c4:	8fc30010 	lw	v1,16(s8)
  4024c8:	8fc20018 	lw	v0,24(s8)
  4024cc:	00831821 	addu	v1,a0,v1
  4024d0:	ac430004 	sw	v1,4(v0)
/home/git/21373271/21373271/user/lib/fd.c:235
  4024d4:	8fc20010 	lw	v0,16(s8)
/home/git/21373271/21373271/user/lib/fd.c:236 (discriminator 1)
  4024d8:	03c0e825 	move	sp,s8
  4024dc:	8fbf0024 	lw	ra,36(sp)
  4024e0:	8fbe0020 	lw	s8,32(sp)
  4024e4:	27bd0028 	addiu	sp,sp,40
  4024e8:	03e00008 	jr	ra
  4024ec:	00000000 	nop

004024f0 <seek>:
seek():
/home/git/21373271/21373271/user/lib/fd.c:238
  4024f0:	27bdffe0 	addiu	sp,sp,-32
  4024f4:	afbf001c 	sw	ra,28(sp)
  4024f8:	afbe0018 	sw	s8,24(sp)
  4024fc:	03a0f025 	move	s8,sp
  402500:	afc40020 	sw	a0,32(s8)
  402504:	afc50024 	sw	a1,36(s8)
/home/git/21373271/21373271/user/lib/fd.c:242
  402508:	27c20014 	addiu	v0,s8,20
  40250c:	00402825 	move	a1,v0
  402510:	8fc40020 	lw	a0,32(s8)
  402514:	0c100727 	jal	401c9c <fd_lookup>
  402518:	00000000 	nop
  40251c:	afc20010 	sw	v0,16(s8)
  402520:	8fc20010 	lw	v0,16(s8)
  402524:	00000000 	nop
  402528:	04410004 	bgez	v0,40253c <seek+0x4c>
  40252c:	00000000 	nop
/home/git/21373271/21373271/user/lib/fd.c:243
  402530:	8fc20010 	lw	v0,16(s8)
  402534:	10000006 	b	402550 <seek+0x60>
  402538:	00000000 	nop
/home/git/21373271/21373271/user/lib/fd.c:246
  40253c:	8fc20014 	lw	v0,20(s8)
  402540:	8fc30024 	lw	v1,36(s8)
  402544:	00000000 	nop
  402548:	ac430004 	sw	v1,4(v0)
/home/git/21373271/21373271/user/lib/fd.c:247
  40254c:	00001025 	move	v0,zero
/home/git/21373271/21373271/user/lib/fd.c:248 (discriminator 1)
  402550:	03c0e825 	move	sp,s8
  402554:	8fbf001c 	lw	ra,28(sp)
  402558:	8fbe0018 	lw	s8,24(sp)
  40255c:	27bd0020 	addiu	sp,sp,32
  402560:	03e00008 	jr	ra
  402564:	00000000 	nop

00402568 <fstat>:
fstat():
/home/git/21373271/21373271/user/lib/fd.c:250
  402568:	27bdffd8 	addiu	sp,sp,-40
  40256c:	afbf0024 	sw	ra,36(sp)
  402570:	afbe0020 	sw	s8,32(sp)
  402574:	03a0f025 	move	s8,sp
  402578:	afc40028 	sw	a0,40(s8)
  40257c:	afc5002c 	sw	a1,44(s8)
/home/git/21373271/21373271/user/lib/fd.c:252
  402580:	afc00014 	sw	zero,20(s8)
/home/git/21373271/21373271/user/lib/fd.c:255
  402584:	27c20018 	addiu	v0,s8,24
  402588:	00402825 	move	a1,v0
  40258c:	8fc40028 	lw	a0,40(s8)
  402590:	0c100727 	jal	401c9c <fd_lookup>
  402594:	00000000 	nop
  402598:	afc20010 	sw	v0,16(s8)
  40259c:	8fc20010 	lw	v0,16(s8)
  4025a0:	00000000 	nop
  4025a4:	0440000e 	bltz	v0,4025e0 <fstat+0x78>
  4025a8:	00000000 	nop
/home/git/21373271/21373271/user/lib/fd.c:255 (discriminator 1)
  4025ac:	8fc20018 	lw	v0,24(s8)
  4025b0:	00000000 	nop
  4025b4:	8c420000 	lw	v0,0(v0)
  4025b8:	27c30014 	addiu	v1,s8,20
  4025bc:	00602825 	move	a1,v1
  4025c0:	00402025 	move	a0,v0
  4025c4:	0c100694 	jal	401a50 <dev_lookup>
  4025c8:	00000000 	nop
  4025cc:	afc20010 	sw	v0,16(s8)
  4025d0:	8fc20010 	lw	v0,16(s8)
  4025d4:	00000000 	nop
  4025d8:	04410004 	bgez	v0,4025ec <fstat+0x84>
  4025dc:	00000000 	nop
/home/git/21373271/21373271/user/lib/fd.c:256
  4025e0:	8fc20010 	lw	v0,16(s8)
  4025e4:	10000016 	b	402640 <fstat+0xd8>
  4025e8:	00000000 	nop
/home/git/21373271/21373271/user/lib/fd.c:259
  4025ec:	8fc2002c 	lw	v0,44(s8)
  4025f0:	00000000 	nop
  4025f4:	a0400000 	sb	zero,0(v0)
/home/git/21373271/21373271/user/lib/fd.c:260
  4025f8:	8fc2002c 	lw	v0,44(s8)
  4025fc:	00000000 	nop
  402600:	ac400080 	sw	zero,128(v0)
/home/git/21373271/21373271/user/lib/fd.c:261
  402604:	8fc2002c 	lw	v0,44(s8)
  402608:	00000000 	nop
  40260c:	ac400084 	sw	zero,132(v0)
/home/git/21373271/21373271/user/lib/fd.c:262
  402610:	8fc30014 	lw	v1,20(s8)
  402614:	8fc2002c 	lw	v0,44(s8)
  402618:	00000000 	nop
  40261c:	ac430088 	sw	v1,136(v0)
/home/git/21373271/21373271/user/lib/fd.c:263
  402620:	8fc20014 	lw	v0,20(s8)
  402624:	00000000 	nop
  402628:	8c420014 	lw	v0,20(v0)
  40262c:	8fc30018 	lw	v1,24(s8)
  402630:	8fc5002c 	lw	a1,44(s8)
  402634:	00602025 	move	a0,v1
  402638:	0040f809 	jalr	v0
  40263c:	00000000 	nop
/home/git/21373271/21373271/user/lib/fd.c:264 (discriminator 1)
  402640:	03c0e825 	move	sp,s8
  402644:	8fbf0024 	lw	ra,36(sp)
  402648:	8fbe0020 	lw	s8,32(sp)
  40264c:	27bd0028 	addiu	sp,sp,40
  402650:	03e00008 	jr	ra
  402654:	00000000 	nop

00402658 <stat>:
stat():
/home/git/21373271/21373271/user/lib/fd.c:266
  402658:	27bdffe0 	addiu	sp,sp,-32
  40265c:	afbf001c 	sw	ra,28(sp)
  402660:	afbe0018 	sw	s8,24(sp)
  402664:	03a0f025 	move	s8,sp
  402668:	afc40020 	sw	a0,32(s8)
  40266c:	afc50024 	sw	a1,36(s8)
/home/git/21373271/21373271/user/lib/fd.c:269
  402670:	00002825 	move	a1,zero
  402674:	8fc40020 	lw	a0,32(s8)
  402678:	0c1009f0 	jal	4027c0 <open>
  40267c:	00000000 	nop
  402680:	afc20010 	sw	v0,16(s8)
  402684:	8fc20010 	lw	v0,16(s8)
  402688:	00000000 	nop
  40268c:	04410004 	bgez	v0,4026a0 <stat+0x48>
  402690:	00000000 	nop
/home/git/21373271/21373271/user/lib/fd.c:270
  402694:	8fc20010 	lw	v0,16(s8)
  402698:	1000000a 	b	4026c4 <stat+0x6c>
  40269c:	00000000 	nop
/home/git/21373271/21373271/user/lib/fd.c:273
  4026a0:	8fc50024 	lw	a1,36(s8)
  4026a4:	8fc40010 	lw	a0,16(s8)
  4026a8:	0c10095a 	jal	402568 <fstat>
  4026ac:	00000000 	nop
  4026b0:	afc20014 	sw	v0,20(s8)
/home/git/21373271/21373271/user/lib/fd.c:274
  4026b4:	8fc40010 	lw	a0,16(s8)
  4026b8:	0c10077d 	jal	401df4 <close>
  4026bc:	00000000 	nop
/home/git/21373271/21373271/user/lib/fd.c:275
  4026c0:	8fc20014 	lw	v0,20(s8)
/home/git/21373271/21373271/user/lib/fd.c:276
  4026c4:	03c0e825 	move	sp,s8
  4026c8:	8fbf001c 	lw	ra,28(sp)
  4026cc:	8fbe0018 	lw	s8,24(sp)
  4026d0:	27bd0020 	addiu	sp,sp,32
  4026d4:	03e00008 	jr	ra
  4026d8:	00000000 	nop
  4026dc:	00000000 	nop

004026e0 <pageref>:
pageref():
/home/git/21373271/21373271/user/lib/pageref.c:3
  4026e0:	27bdfff0 	addiu	sp,sp,-16
  4026e4:	afbe000c 	sw	s8,12(sp)
  4026e8:	03a0f025 	move	s8,sp
  4026ec:	afc40010 	sw	a0,16(s8)
/home/git/21373271/21373271/user/lib/pageref.c:6
  4026f0:	8fc20010 	lw	v0,16(s8)
  4026f4:	00000000 	nop
  4026f8:	00021582 	srl	v0,v0,0x16
  4026fc:	00021880 	sll	v1,v0,0x2
  402700:	3c027fdf 	lui	v0,0x7fdf
  402704:	3442f000 	ori	v0,v0,0xf000
  402708:	00621021 	addu	v0,v1,v0
  40270c:	8c420000 	lw	v0,0(v0)
  402710:	00000000 	nop
  402714:	30420200 	andi	v0,v0,0x200
  402718:	14400004 	bnez	v0,40272c <pageref+0x4c>
  40271c:	00000000 	nop
/home/git/21373271/21373271/user/lib/pageref.c:7
  402720:	00001025 	move	v0,zero
  402724:	1000001f 	b	4027a4 <pageref+0xc4>
  402728:	00000000 	nop
/home/git/21373271/21373271/user/lib/pageref.c:10
  40272c:	8fc20010 	lw	v0,16(s8)
  402730:	00000000 	nop
  402734:	00021302 	srl	v0,v0,0xc
  402738:	00021880 	sll	v1,v0,0x2
  40273c:	3c027fc0 	lui	v0,0x7fc0
  402740:	00621021 	addu	v0,v1,v0
  402744:	8c420000 	lw	v0,0(v0)
  402748:	00000000 	nop
  40274c:	afc20000 	sw	v0,0(s8)
/home/git/21373271/21373271/user/lib/pageref.c:12
  402750:	8fc20000 	lw	v0,0(s8)
  402754:	00000000 	nop
  402758:	30420200 	andi	v0,v0,0x200
  40275c:	14400004 	bnez	v0,402770 <pageref+0x90>
  402760:	00000000 	nop
/home/git/21373271/21373271/user/lib/pageref.c:13
  402764:	00001025 	move	v0,zero
  402768:	1000000e 	b	4027a4 <pageref+0xc4>
  40276c:	00000000 	nop
/home/git/21373271/21373271/user/lib/pageref.c:16
  402770:	8fc20000 	lw	v0,0(s8)
  402774:	00000000 	nop
  402778:	00021b02 	srl	v1,v0,0xc
  40277c:	00601025 	move	v0,v1
  402780:	00021040 	sll	v0,v0,0x1
  402784:	00431021 	addu	v0,v0,v1
  402788:	00021080 	sll	v0,v0,0x2
  40278c:	00401825 	move	v1,v0
  402790:	3c027f80 	lui	v0,0x7f80
  402794:	00621021 	addu	v0,v1,v0
  402798:	94420008 	lhu	v0,8(v0)
  40279c:	00000000 	nop
  4027a0:	3042ffff 	andi	v0,v0,0xffff
/home/git/21373271/21373271/user/lib/pageref.c:17
  4027a4:	03c0e825 	move	sp,s8
  4027a8:	8fbe000c 	lw	s8,12(sp)
  4027ac:	27bd0010 	addiu	sp,sp,16
  4027b0:	03e00008 	jr	ra
  4027b4:	00000000 	nop
	...

004027c0 <open>:
open():
/home/git/21373271/21373271/user/lib/file.c:28
  4027c0:	27bdffc8 	addiu	sp,sp,-56
  4027c4:	afbf0034 	sw	ra,52(sp)
  4027c8:	afbe0030 	sw	s8,48(sp)
  4027cc:	03a0f025 	move	s8,sp
  4027d0:	afc40038 	sw	a0,56(s8)
  4027d4:	afc5003c 	sw	a1,60(s8)
/home/git/21373271/21373271/user/lib/file.c:35
  4027d8:	27c20028 	addiu	v0,s8,40
  4027dc:	00402025 	move	a0,v0
  4027e0:	0c1006d6 	jal	401b58 <fd_alloc>
  4027e4:	00000000 	nop
  4027e8:	afc20014 	sw	v0,20(s8)
  4027ec:	8fc20014 	lw	v0,20(s8)
  4027f0:	00000000 	nop
  4027f4:	04410004 	bgez	v0,402808 <open+0x48>
  4027f8:	00000000 	nop
/home/git/21373271/21373271/user/lib/file.c:36
  4027fc:	8fc20014 	lw	v0,20(s8)
  402800:	10000048 	b	402924 <open+0x164>
  402804:	00000000 	nop
/home/git/21373271/21373271/user/lib/file.c:40
  402808:	8fc2003c 	lw	v0,60(s8)
  40280c:	8fc30028 	lw	v1,40(s8)
  402810:	00000000 	nop
  402814:	00603025 	move	a2,v1
  402818:	00402825 	move	a1,v0
  40281c:	8fc40038 	lw	a0,56(s8)
  402820:	0c100c99 	jal	403264 <fsipc_open>
  402824:	00000000 	nop
  402828:	afc20014 	sw	v0,20(s8)
  40282c:	8fc20014 	lw	v0,20(s8)
  402830:	00000000 	nop
  402834:	04410004 	bgez	v0,402848 <open+0x88>
  402838:	00000000 	nop
/home/git/21373271/21373271/user/lib/file.c:41
  40283c:	8fc20014 	lw	v0,20(s8)
  402840:	10000038 	b	402924 <open+0x164>
  402844:	00000000 	nop
/home/git/21373271/21373271/user/lib/file.c:49
  402848:	8fc20028 	lw	v0,40(s8)
  40284c:	00000000 	nop
  402850:	00402025 	move	a0,v0
  402854:	0c100752 	jal	401d48 <fd2data>
  402858:	00000000 	nop
  40285c:	afc20018 	sw	v0,24(s8)
/home/git/21373271/21373271/user/lib/file.c:50
  402860:	8fc20028 	lw	v0,40(s8)
  402864:	00000000 	nop
  402868:	afc2001c 	sw	v0,28(s8)
/home/git/21373271/21373271/user/lib/file.c:51
  40286c:	8fc2001c 	lw	v0,28(s8)
  402870:	00000000 	nop
  402874:	8c42000c 	lw	v0,12(v0)
  402878:	00000000 	nop
  40287c:	afc20020 	sw	v0,32(s8)
/home/git/21373271/21373271/user/lib/file.c:52
  402880:	8fc2001c 	lw	v0,28(s8)
  402884:	00000000 	nop
  402888:	8c420090 	lw	v0,144(v0)
  40288c:	00000000 	nop
  402890:	afc20024 	sw	v0,36(s8)
/home/git/21373271/21373271/user/lib/file.c:54
  402894:	afc00010 	sw	zero,16(s8)
  402898:	10000017 	b	4028f8 <open+0x138>
  40289c:	00000000 	nop
/home/git/21373271/21373271/user/lib/file.c:56
  4028a0:	8fc40010 	lw	a0,16(s8)
  4028a4:	8fc20010 	lw	v0,16(s8)
  4028a8:	8fc30018 	lw	v1,24(s8)
  4028ac:	00000000 	nop
  4028b0:	00621021 	addu	v0,v1,v0
  4028b4:	00403025 	move	a2,v0
  4028b8:	00802825 	move	a1,a0
  4028bc:	8fc40020 	lw	a0,32(s8)
  4028c0:	0c100cc2 	jal	403308 <fsipc_map>
  4028c4:	00000000 	nop
  4028c8:	afc20014 	sw	v0,20(s8)
  4028cc:	8fc20014 	lw	v0,20(s8)
  4028d0:	00000000 	nop
  4028d4:	04410004 	bgez	v0,4028e8 <open+0x128>
  4028d8:	00000000 	nop
/home/git/21373271/21373271/user/lib/file.c:57
  4028dc:	8fc20014 	lw	v0,20(s8)
  4028e0:	10000010 	b	402924 <open+0x164>
  4028e4:	00000000 	nop
/home/git/21373271/21373271/user/lib/file.c:54 (discriminator 2)
  4028e8:	8fc20010 	lw	v0,16(s8)
  4028ec:	00000000 	nop
  4028f0:	24421000 	addiu	v0,v0,4096
  4028f4:	afc20010 	sw	v0,16(s8)
/home/git/21373271/21373271/user/lib/file.c:54 (discriminator 1)
  4028f8:	8fc20010 	lw	v0,16(s8)
  4028fc:	8fc30024 	lw	v1,36(s8)
  402900:	00000000 	nop
  402904:	0043102b 	sltu	v0,v0,v1
  402908:	1440ffe5 	bnez	v0,4028a0 <open+0xe0>
  40290c:	00000000 	nop
/home/git/21373271/21373271/user/lib/file.c:63
  402910:	8fc20028 	lw	v0,40(s8)
  402914:	00000000 	nop
  402918:	00402025 	move	a0,v0
  40291c:	0c100762 	jal	401d88 <fd2num>
  402920:	00000000 	nop
/home/git/21373271/21373271/user/lib/file.c:64 (discriminator 1)
  402924:	03c0e825 	move	sp,s8
  402928:	8fbf0034 	lw	ra,52(sp)
  40292c:	8fbe0030 	lw	s8,48(sp)
  402930:	27bd0038 	addiu	sp,sp,56
  402934:	03e00008 	jr	ra
  402938:	00000000 	nop

0040293c <file_close>:
file_close():
/home/git/21373271/21373271/user/lib/file.c:68
  40293c:	27bdffd0 	addiu	sp,sp,-48
  402940:	afbf002c 	sw	ra,44(sp)
  402944:	afbe0028 	sw	s8,40(sp)
  402948:	03a0f025 	move	s8,sp
  40294c:	afc40030 	sw	a0,48(s8)
/home/git/21373271/21373271/user/lib/file.c:75
  402950:	8fc20030 	lw	v0,48(s8)
  402954:	00000000 	nop
  402958:	afc20014 	sw	v0,20(s8)
/home/git/21373271/21373271/user/lib/file.c:76
  40295c:	8fc20014 	lw	v0,20(s8)
  402960:	00000000 	nop
  402964:	8c42000c 	lw	v0,12(v0)
  402968:	00000000 	nop
  40296c:	afc20018 	sw	v0,24(s8)
/home/git/21373271/21373271/user/lib/file.c:77
  402970:	8fc20014 	lw	v0,20(s8)
  402974:	00000000 	nop
  402978:	8c420090 	lw	v0,144(v0)
  40297c:	00000000 	nop
  402980:	afc2001c 	sw	v0,28(s8)
/home/git/21373271/21373271/user/lib/file.c:80
  402984:	8fc40030 	lw	a0,48(s8)
  402988:	0c100752 	jal	401d48 <fd2data>
  40298c:	00000000 	nop
  402990:	afc20020 	sw	v0,32(s8)
/home/git/21373271/21373271/user/lib/file.c:83
  402994:	afc00010 	sw	zero,16(s8)
  402998:	10000009 	b	4029c0 <file_close+0x84>
  40299c:	00000000 	nop
/home/git/21373271/21373271/user/lib/file.c:84 (discriminator 3)
  4029a0:	8fc50010 	lw	a1,16(s8)
  4029a4:	8fc40018 	lw	a0,24(s8)
  4029a8:	0c100d31 	jal	4034c4 <fsipc_dirty>
  4029ac:	00000000 	nop
/home/git/21373271/21373271/user/lib/file.c:83 (discriminator 3)
  4029b0:	8fc20010 	lw	v0,16(s8)
  4029b4:	00000000 	nop
  4029b8:	24421000 	addiu	v0,v0,4096
  4029bc:	afc20010 	sw	v0,16(s8)
/home/git/21373271/21373271/user/lib/file.c:83 (discriminator 1)
  4029c0:	8fc30010 	lw	v1,16(s8)
  4029c4:	8fc2001c 	lw	v0,28(s8)
  4029c8:	00000000 	nop
  4029cc:	0062102b 	sltu	v0,v1,v0
  4029d0:	1440fff3 	bnez	v0,4029a0 <file_close+0x64>
  4029d4:	00000000 	nop
/home/git/21373271/21373271/user/lib/file.c:88
  4029d8:	8fc40018 	lw	a0,24(s8)
  4029dc:	0c100d19 	jal	403464 <fsipc_close>
  4029e0:	00000000 	nop
  4029e4:	afc20024 	sw	v0,36(s8)
  4029e8:	8fc20024 	lw	v0,36(s8)
  4029ec:	00000000 	nop
  4029f0:	04410008 	bgez	v0,402a14 <file_close+0xd8>
  4029f4:	00000000 	nop
/home/git/21373271/21373271/user/lib/file.c:89
  4029f8:	3c020040 	lui	v0,0x40
  4029fc:	24447a98 	addiu	a0,v0,31384
  402a00:	0c10037c 	jal	400df0 <debugf>
  402a04:	00000000 	nop
/home/git/21373271/21373271/user/lib/file.c:90
  402a08:	8fc20024 	lw	v0,36(s8)
  402a0c:	1000002a 	b	402ab8 <file_close+0x17c>
  402a10:	00000000 	nop
/home/git/21373271/21373271/user/lib/file.c:94
  402a14:	8fc2001c 	lw	v0,28(s8)
  402a18:	00000000 	nop
  402a1c:	14400004 	bnez	v0,402a30 <file_close+0xf4>
  402a20:	00000000 	nop
/home/git/21373271/21373271/user/lib/file.c:95
  402a24:	00001025 	move	v0,zero
  402a28:	10000023 	b	402ab8 <file_close+0x17c>
  402a2c:	00000000 	nop
/home/git/21373271/21373271/user/lib/file.c:97
  402a30:	afc00010 	sw	zero,16(s8)
  402a34:	10000019 	b	402a9c <file_close+0x160>
  402a38:	00000000 	nop
/home/git/21373271/21373271/user/lib/file.c:98
  402a3c:	8fc30020 	lw	v1,32(s8)
  402a40:	8fc20010 	lw	v0,16(s8)
  402a44:	00000000 	nop
  402a48:	00621021 	addu	v0,v1,v0
  402a4c:	00402825 	move	a1,v0
  402a50:	00002025 	move	a0,zero
  402a54:	0c100591 	jal	401644 <syscall_mem_unmap>
  402a58:	00000000 	nop
  402a5c:	afc20024 	sw	v0,36(s8)
  402a60:	8fc20024 	lw	v0,36(s8)
  402a64:	00000000 	nop
  402a68:	04410008 	bgez	v0,402a8c <file_close+0x150>
  402a6c:	00000000 	nop
/home/git/21373271/21373271/user/lib/file.c:99
  402a70:	3c020040 	lui	v0,0x40
  402a74:	24447ab0 	addiu	a0,v0,31408
  402a78:	0c10037c 	jal	400df0 <debugf>
  402a7c:	00000000 	nop
/home/git/21373271/21373271/user/lib/file.c:100
  402a80:	8fc20024 	lw	v0,36(s8)
  402a84:	1000000c 	b	402ab8 <file_close+0x17c>
  402a88:	00000000 	nop
/home/git/21373271/21373271/user/lib/file.c:97 (discriminator 2)
  402a8c:	8fc20010 	lw	v0,16(s8)
  402a90:	00000000 	nop
  402a94:	24421000 	addiu	v0,v0,4096
  402a98:	afc20010 	sw	v0,16(s8)
/home/git/21373271/21373271/user/lib/file.c:97 (discriminator 1)
  402a9c:	8fc30010 	lw	v1,16(s8)
  402aa0:	8fc2001c 	lw	v0,28(s8)
  402aa4:	00000000 	nop
  402aa8:	0062102b 	sltu	v0,v1,v0
  402aac:	1440ffe3 	bnez	v0,402a3c <file_close+0x100>
  402ab0:	00000000 	nop
/home/git/21373271/21373271/user/lib/file.c:103
  402ab4:	00001025 	move	v0,zero
/home/git/21373271/21373271/user/lib/file.c:104
  402ab8:	03c0e825 	move	sp,s8
  402abc:	8fbf002c 	lw	ra,44(sp)
  402ac0:	8fbe0028 	lw	s8,40(sp)
  402ac4:	27bd0030 	addiu	sp,sp,48
  402ac8:	03e00008 	jr	ra
  402acc:	00000000 	nop

00402ad0 <file_read>:
file_read():
/home/git/21373271/21373271/user/lib/file.c:110
  402ad0:	27bdffe0 	addiu	sp,sp,-32
  402ad4:	afbf001c 	sw	ra,28(sp)
  402ad8:	afbe0018 	sw	s8,24(sp)
  402adc:	03a0f025 	move	s8,sp
  402ae0:	afc40020 	sw	a0,32(s8)
  402ae4:	afc50024 	sw	a1,36(s8)
  402ae8:	afc60028 	sw	a2,40(s8)
  402aec:	afc7002c 	sw	a3,44(s8)
/home/git/21373271/21373271/user/lib/file.c:113
  402af0:	8fc20020 	lw	v0,32(s8)
  402af4:	00000000 	nop
  402af8:	afc20010 	sw	v0,16(s8)
/home/git/21373271/21373271/user/lib/file.c:116
  402afc:	8fc20010 	lw	v0,16(s8)
  402b00:	00000000 	nop
  402b04:	8c420090 	lw	v0,144(v0)
  402b08:	00000000 	nop
  402b0c:	afc20014 	sw	v0,20(s8)
/home/git/21373271/21373271/user/lib/file.c:118
  402b10:	8fc3002c 	lw	v1,44(s8)
  402b14:	8fc20014 	lw	v0,20(s8)
  402b18:	00000000 	nop
  402b1c:	0043102b 	sltu	v0,v0,v1
  402b20:	10400004 	beqz	v0,402b34 <file_read+0x64>
  402b24:	00000000 	nop
/home/git/21373271/21373271/user/lib/file.c:119
  402b28:	00001025 	move	v0,zero
  402b2c:	1000001c 	b	402ba0 <file_read+0xd0>
  402b30:	00000000 	nop
/home/git/21373271/21373271/user/lib/file.c:122
  402b34:	8fc3002c 	lw	v1,44(s8)
  402b38:	8fc20028 	lw	v0,40(s8)
  402b3c:	00000000 	nop
  402b40:	00621021 	addu	v0,v1,v0
  402b44:	8fc30014 	lw	v1,20(s8)
  402b48:	00000000 	nop
  402b4c:	0062102b 	sltu	v0,v1,v0
  402b50:	10400006 	beqz	v0,402b6c <file_read+0x9c>
  402b54:	00000000 	nop
/home/git/21373271/21373271/user/lib/file.c:123
  402b58:	8fc30014 	lw	v1,20(s8)
  402b5c:	8fc2002c 	lw	v0,44(s8)
  402b60:	00000000 	nop
  402b64:	00621023 	subu	v0,v1,v0
  402b68:	afc20028 	sw	v0,40(s8)
/home/git/21373271/21373271/user/lib/file.c:126
  402b6c:	8fc40020 	lw	a0,32(s8)
  402b70:	0c100752 	jal	401d48 <fd2data>
  402b74:	00000000 	nop
  402b78:	00401825 	move	v1,v0
  402b7c:	8fc2002c 	lw	v0,44(s8)
  402b80:	00000000 	nop
  402b84:	00621021 	addu	v0,v1,v0
  402b88:	8fc60028 	lw	a2,40(s8)
  402b8c:	00402825 	move	a1,v0
  402b90:	8fc40024 	lw	a0,36(s8)
  402b94:	0c101384 	jal	404e10 <memcpy>
  402b98:	00000000 	nop
/home/git/21373271/21373271/user/lib/file.c:127
  402b9c:	8fc20028 	lw	v0,40(s8)
/home/git/21373271/21373271/user/lib/file.c:128
  402ba0:	03c0e825 	move	sp,s8
  402ba4:	8fbf001c 	lw	ra,28(sp)
  402ba8:	8fbe0018 	lw	s8,24(sp)
  402bac:	27bd0020 	addiu	sp,sp,32
  402bb0:	03e00008 	jr	ra
  402bb4:	00000000 	nop

00402bb8 <read_map>:
read_map():
/home/git/21373271/21373271/user/lib/file.c:133
  402bb8:	27bdffd8 	addiu	sp,sp,-40
  402bbc:	afbf0024 	sw	ra,36(sp)
  402bc0:	afbe0020 	sw	s8,32(sp)
  402bc4:	03a0f025 	move	s8,sp
  402bc8:	afc40028 	sw	a0,40(s8)
  402bcc:	afc5002c 	sw	a1,44(s8)
  402bd0:	afc60030 	sw	a2,48(s8)
/home/git/21373271/21373271/user/lib/file.c:138
  402bd4:	27c20018 	addiu	v0,s8,24
  402bd8:	00402825 	move	a1,v0
  402bdc:	8fc40028 	lw	a0,40(s8)
  402be0:	0c100727 	jal	401c9c <fd_lookup>
  402be4:	00000000 	nop
  402be8:	afc20010 	sw	v0,16(s8)
  402bec:	8fc20010 	lw	v0,16(s8)
  402bf0:	00000000 	nop
  402bf4:	04410004 	bgez	v0,402c08 <read_map+0x50>
  402bf8:	00000000 	nop
/home/git/21373271/21373271/user/lib/file.c:139
  402bfc:	8fc20010 	lw	v0,16(s8)
  402c00:	1000003d 	b	402cf8 <read_map+0x140>
  402c04:	00000000 	nop
/home/git/21373271/21373271/user/lib/file.c:142
  402c08:	8fc20018 	lw	v0,24(s8)
  402c0c:	00000000 	nop
  402c10:	8c420000 	lw	v0,0(v0)
  402c14:	3c030041 	lui	v1,0x41
  402c18:	8c63d010 	lw	v1,-12272(v1)
  402c1c:	00000000 	nop
  402c20:	10430004 	beq	v0,v1,402c34 <read_map+0x7c>
  402c24:	00000000 	nop
/home/git/21373271/21373271/user/lib/file.c:143
  402c28:	2402fffd 	li	v0,-3
  402c2c:	10000032 	b	402cf8 <read_map+0x140>
  402c30:	00000000 	nop
/home/git/21373271/21373271/user/lib/file.c:146
  402c34:	8fc20018 	lw	v0,24(s8)
  402c38:	00000000 	nop
  402c3c:	00402025 	move	a0,v0
  402c40:	0c100752 	jal	401d48 <fd2data>
  402c44:	00000000 	nop
  402c48:	00401825 	move	v1,v0
  402c4c:	8fc2002c 	lw	v0,44(s8)
  402c50:	00000000 	nop
  402c54:	00621021 	addu	v0,v1,v0
  402c58:	afc20014 	sw	v0,20(s8)
/home/git/21373271/21373271/user/lib/file.c:148
  402c5c:	8fc3002c 	lw	v1,44(s8)
  402c60:	3c020040 	lui	v0,0x40
  402c64:	0062102b 	sltu	v0,v1,v0
  402c68:	14400004 	bnez	v0,402c7c <read_map+0xc4>
  402c6c:	00000000 	nop
/home/git/21373271/21373271/user/lib/file.c:149
  402c70:	2402fff8 	li	v0,-8
  402c74:	10000020 	b	402cf8 <read_map+0x140>
  402c78:	00000000 	nop
/home/git/21373271/21373271/user/lib/file.c:152
  402c7c:	8fc20014 	lw	v0,20(s8)
  402c80:	00000000 	nop
  402c84:	00021582 	srl	v0,v0,0x16
  402c88:	00021880 	sll	v1,v0,0x2
  402c8c:	3c027fdf 	lui	v0,0x7fdf
  402c90:	3442f000 	ori	v0,v0,0xf000
  402c94:	00621021 	addu	v0,v1,v0
  402c98:	8c420000 	lw	v0,0(v0)
  402c9c:	00000000 	nop
  402ca0:	30420200 	andi	v0,v0,0x200
  402ca4:	1040000c 	beqz	v0,402cd8 <read_map+0x120>
  402ca8:	00000000 	nop
/home/git/21373271/21373271/user/lib/file.c:152 (discriminator 1)
  402cac:	8fc20014 	lw	v0,20(s8)
  402cb0:	00000000 	nop
  402cb4:	00021302 	srl	v0,v0,0xc
  402cb8:	00021880 	sll	v1,v0,0x2
  402cbc:	3c027fc0 	lui	v0,0x7fc0
  402cc0:	00621021 	addu	v0,v1,v0
  402cc4:	8c420000 	lw	v0,0(v0)
  402cc8:	00000000 	nop
  402ccc:	30420200 	andi	v0,v0,0x200
  402cd0:	14400004 	bnez	v0,402ce4 <read_map+0x12c>
  402cd4:	00000000 	nop
/home/git/21373271/21373271/user/lib/file.c:153
  402cd8:	2402fff8 	li	v0,-8
  402cdc:	10000006 	b	402cf8 <read_map+0x140>
  402ce0:	00000000 	nop
/home/git/21373271/21373271/user/lib/file.c:156
  402ce4:	8fc20030 	lw	v0,48(s8)
  402ce8:	8fc30014 	lw	v1,20(s8)
  402cec:	00000000 	nop
  402cf0:	ac430000 	sw	v1,0(v0)
/home/git/21373271/21373271/user/lib/file.c:157
  402cf4:	00001025 	move	v0,zero
/home/git/21373271/21373271/user/lib/file.c:158 (discriminator 1)
  402cf8:	03c0e825 	move	sp,s8
  402cfc:	8fbf0024 	lw	ra,36(sp)
  402d00:	8fbe0020 	lw	s8,32(sp)
  402d04:	27bd0028 	addiu	sp,sp,40
  402d08:	03e00008 	jr	ra
  402d0c:	00000000 	nop

00402d10 <file_write>:
file_write():
/home/git/21373271/21373271/user/lib/file.c:162
  402d10:	27bdffd8 	addiu	sp,sp,-40
  402d14:	afbf0024 	sw	ra,36(sp)
  402d18:	afbe0020 	sw	s8,32(sp)
  402d1c:	03a0f025 	move	s8,sp
  402d20:	afc40028 	sw	a0,40(s8)
  402d24:	afc5002c 	sw	a1,44(s8)
  402d28:	afc60030 	sw	a2,48(s8)
  402d2c:	afc70034 	sw	a3,52(s8)
/home/git/21373271/21373271/user/lib/file.c:167
  402d30:	8fc20028 	lw	v0,40(s8)
  402d34:	00000000 	nop
  402d38:	afc20010 	sw	v0,16(s8)
/home/git/21373271/21373271/user/lib/file.c:170
  402d3c:	8fc30034 	lw	v1,52(s8)
  402d40:	8fc20030 	lw	v0,48(s8)
  402d44:	00000000 	nop
  402d48:	00621021 	addu	v0,v1,v0
  402d4c:	afc20014 	sw	v0,20(s8)
/home/git/21373271/21373271/user/lib/file.c:172
  402d50:	8fc30014 	lw	v1,20(s8)
  402d54:	3c020040 	lui	v0,0x40
  402d58:	34420001 	ori	v0,v0,0x1
  402d5c:	0062102b 	sltu	v0,v1,v0
  402d60:	14400004 	bnez	v0,402d74 <file_write+0x64>
  402d64:	00000000 	nop
/home/git/21373271/21373271/user/lib/file.c:173
  402d68:	2402fff8 	li	v0,-8
  402d6c:	10000025 	b	402e04 <file_write+0xf4>
  402d70:	00000000 	nop
/home/git/21373271/21373271/user/lib/file.c:177
  402d74:	8fc20010 	lw	v0,16(s8)
  402d78:	00000000 	nop
  402d7c:	8c420090 	lw	v0,144(v0)
  402d80:	8fc30014 	lw	v1,20(s8)
  402d84:	00000000 	nop
  402d88:	0043102b 	sltu	v0,v0,v1
  402d8c:	10400010 	beqz	v0,402dd0 <file_write+0xc0>
  402d90:	00000000 	nop
/home/git/21373271/21373271/user/lib/file.c:178
  402d94:	8fc40028 	lw	a0,40(s8)
  402d98:	0c100762 	jal	401d88 <fd2num>
  402d9c:	00000000 	nop
  402da0:	8fc50014 	lw	a1,20(s8)
  402da4:	00402025 	move	a0,v0
  402da8:	0c100bb0 	jal	402ec0 <ftruncate>
  402dac:	00000000 	nop
  402db0:	afc20018 	sw	v0,24(s8)
  402db4:	8fc20018 	lw	v0,24(s8)
  402db8:	00000000 	nop
  402dbc:	04410004 	bgez	v0,402dd0 <file_write+0xc0>
  402dc0:	00000000 	nop
/home/git/21373271/21373271/user/lib/file.c:179
  402dc4:	8fc20018 	lw	v0,24(s8)
  402dc8:	1000000e 	b	402e04 <file_write+0xf4>
  402dcc:	00000000 	nop
/home/git/21373271/21373271/user/lib/file.c:184
  402dd0:	8fc40028 	lw	a0,40(s8)
  402dd4:	0c100752 	jal	401d48 <fd2data>
  402dd8:	00000000 	nop
  402ddc:	00401825 	move	v1,v0
  402de0:	8fc20034 	lw	v0,52(s8)
  402de4:	00000000 	nop
  402de8:	00621021 	addu	v0,v1,v0
  402dec:	8fc60030 	lw	a2,48(s8)
  402df0:	8fc5002c 	lw	a1,44(s8)
  402df4:	00402025 	move	a0,v0
  402df8:	0c101384 	jal	404e10 <memcpy>
  402dfc:	00000000 	nop
/home/git/21373271/21373271/user/lib/file.c:185
  402e00:	8fc20030 	lw	v0,48(s8)
/home/git/21373271/21373271/user/lib/file.c:186
  402e04:	03c0e825 	move	sp,s8
  402e08:	8fbf0024 	lw	ra,36(sp)
  402e0c:	8fbe0020 	lw	s8,32(sp)
  402e10:	27bd0028 	addiu	sp,sp,40
  402e14:	03e00008 	jr	ra
  402e18:	00000000 	nop

00402e1c <file_stat>:
file_stat():
/home/git/21373271/21373271/user/lib/file.c:188
  402e1c:	27bdffe0 	addiu	sp,sp,-32
  402e20:	afbf001c 	sw	ra,28(sp)
  402e24:	afbe0018 	sw	s8,24(sp)
  402e28:	03a0f025 	move	s8,sp
  402e2c:	afc40020 	sw	a0,32(s8)
  402e30:	afc50024 	sw	a1,36(s8)
/home/git/21373271/21373271/user/lib/file.c:191
  402e34:	8fc20020 	lw	v0,32(s8)
  402e38:	00000000 	nop
  402e3c:	afc20010 	sw	v0,16(s8)
/home/git/21373271/21373271/user/lib/file.c:193
  402e40:	8fc30024 	lw	v1,36(s8)
  402e44:	8fc20010 	lw	v0,16(s8)
  402e48:	00000000 	nop
  402e4c:	24420010 	addiu	v0,v0,16
  402e50:	00402825 	move	a1,v0
  402e54:	00602025 	move	a0,v1
  402e58:	0c10146b 	jal	4051ac <strcpy>
  402e5c:	00000000 	nop
/home/git/21373271/21373271/user/lib/file.c:194
  402e60:	8fc20010 	lw	v0,16(s8)
  402e64:	00000000 	nop
  402e68:	8c430090 	lw	v1,144(v0)
  402e6c:	8fc20024 	lw	v0,36(s8)
  402e70:	00000000 	nop
  402e74:	ac430080 	sw	v1,128(v0)
/home/git/21373271/21373271/user/lib/file.c:195
  402e78:	8fc20010 	lw	v0,16(s8)
  402e7c:	00000000 	nop
  402e80:	8c420094 	lw	v0,148(v0)
  402e84:	00000000 	nop
  402e88:	38420001 	xori	v0,v0,0x1
  402e8c:	2c420001 	sltiu	v0,v0,1
  402e90:	304200ff 	andi	v0,v0,0xff
  402e94:	00401825 	move	v1,v0
  402e98:	8fc20024 	lw	v0,36(s8)
  402e9c:	00000000 	nop
  402ea0:	ac430084 	sw	v1,132(v0)
/home/git/21373271/21373271/user/lib/file.c:196
  402ea4:	00001025 	move	v0,zero
/home/git/21373271/21373271/user/lib/file.c:197
  402ea8:	03c0e825 	move	sp,s8
  402eac:	8fbf001c 	lw	ra,28(sp)
  402eb0:	8fbe0018 	lw	s8,24(sp)
  402eb4:	27bd0020 	addiu	sp,sp,32
  402eb8:	03e00008 	jr	ra
  402ebc:	00000000 	nop

00402ec0 <ftruncate>:
ftruncate():
/home/git/21373271/21373271/user/lib/file.c:201
  402ec0:	27bdffc0 	addiu	sp,sp,-64
  402ec4:	afbf003c 	sw	ra,60(sp)
  402ec8:	afbe0038 	sw	s8,56(sp)
  402ecc:	03a0f025 	move	s8,sp
  402ed0:	afc40040 	sw	a0,64(s8)
  402ed4:	afc50044 	sw	a1,68(s8)
/home/git/21373271/21373271/user/lib/file.c:207
  402ed8:	8fc30044 	lw	v1,68(s8)
  402edc:	3c020040 	lui	v0,0x40
  402ee0:	34420001 	ori	v0,v0,0x1
  402ee4:	0062102b 	sltu	v0,v1,v0
  402ee8:	14400004 	bnez	v0,402efc <ftruncate+0x3c>
  402eec:	00000000 	nop
/home/git/21373271/21373271/user/lib/file.c:208
  402ef0:	2402fff8 	li	v0,-8
  402ef4:	1000009d 	b	40316c <ftruncate+0x2ac>
  402ef8:	00000000 	nop
/home/git/21373271/21373271/user/lib/file.c:211
  402efc:	27c20030 	addiu	v0,s8,48
  402f00:	00402825 	move	a1,v0
  402f04:	8fc40040 	lw	a0,64(s8)
  402f08:	0c100727 	jal	401c9c <fd_lookup>
  402f0c:	00000000 	nop
  402f10:	afc2001c 	sw	v0,28(s8)
  402f14:	8fc2001c 	lw	v0,28(s8)
  402f18:	00000000 	nop
  402f1c:	04410004 	bgez	v0,402f30 <ftruncate+0x70>
  402f20:	00000000 	nop
/home/git/21373271/21373271/user/lib/file.c:212
  402f24:	8fc2001c 	lw	v0,28(s8)
  402f28:	10000090 	b	40316c <ftruncate+0x2ac>
  402f2c:	00000000 	nop
/home/git/21373271/21373271/user/lib/file.c:215
  402f30:	8fc20030 	lw	v0,48(s8)
  402f34:	00000000 	nop
  402f38:	8c420000 	lw	v0,0(v0)
  402f3c:	3c030041 	lui	v1,0x41
  402f40:	8c63d010 	lw	v1,-12272(v1)
  402f44:	00000000 	nop
  402f48:	10430004 	beq	v0,v1,402f5c <ftruncate+0x9c>
  402f4c:	00000000 	nop
/home/git/21373271/21373271/user/lib/file.c:216
  402f50:	2402fffd 	li	v0,-3
  402f54:	10000085 	b	40316c <ftruncate+0x2ac>
  402f58:	00000000 	nop
/home/git/21373271/21373271/user/lib/file.c:219
  402f5c:	8fc20030 	lw	v0,48(s8)
  402f60:	00000000 	nop
  402f64:	afc20020 	sw	v0,32(s8)
/home/git/21373271/21373271/user/lib/file.c:220
  402f68:	8fc20020 	lw	v0,32(s8)
  402f6c:	00000000 	nop
  402f70:	8c42000c 	lw	v0,12(v0)
  402f74:	00000000 	nop
  402f78:	afc20024 	sw	v0,36(s8)
/home/git/21373271/21373271/user/lib/file.c:221
  402f7c:	8fc20020 	lw	v0,32(s8)
  402f80:	00000000 	nop
  402f84:	8c420090 	lw	v0,144(v0)
  402f88:	00000000 	nop
  402f8c:	afc20028 	sw	v0,40(s8)
/home/git/21373271/21373271/user/lib/file.c:222
  402f90:	8fc20020 	lw	v0,32(s8)
  402f94:	8fc30044 	lw	v1,68(s8)
  402f98:	00000000 	nop
  402f9c:	ac430090 	sw	v1,144(v0)
/home/git/21373271/21373271/user/lib/file.c:224
  402fa0:	8fc50044 	lw	a1,68(s8)
  402fa4:	8fc40024 	lw	a0,36(s8)
  402fa8:	0c100cfc 	jal	4033f0 <fsipc_set_size>
  402fac:	00000000 	nop
  402fb0:	afc2001c 	sw	v0,28(s8)
  402fb4:	8fc2001c 	lw	v0,28(s8)
  402fb8:	00000000 	nop
  402fbc:	04410004 	bgez	v0,402fd0 <ftruncate+0x110>
  402fc0:	00000000 	nop
/home/git/21373271/21373271/user/lib/file.c:225
  402fc4:	8fc2001c 	lw	v0,28(s8)
  402fc8:	10000068 	b	40316c <ftruncate+0x2ac>
  402fcc:	00000000 	nop
/home/git/21373271/21373271/user/lib/file.c:228
  402fd0:	8fc20030 	lw	v0,48(s8)
  402fd4:	00000000 	nop
  402fd8:	00402025 	move	a0,v0
  402fdc:	0c100752 	jal	401d48 <fd2data>
  402fe0:	00000000 	nop
  402fe4:	afc2002c 	sw	v0,44(s8)
/home/git/21373271/21373271/user/lib/file.c:231
  402fe8:	8fc20028 	lw	v0,40(s8)
  402fec:	00000000 	nop
  402ff0:	24420fff 	addiu	v0,v0,4095
  402ff4:	00401825 	move	v1,v0
  402ff8:	2402f000 	li	v0,-4096
  402ffc:	00621024 	and	v0,v1,v0
  403000:	afc20018 	sw	v0,24(s8)
  403004:	1000001b 	b	403074 <ftruncate+0x1b4>
  403008:	00000000 	nop
/home/git/21373271/21373271/user/lib/file.c:232
  40300c:	8fc40018 	lw	a0,24(s8)
  403010:	8fc20018 	lw	v0,24(s8)
  403014:	8fc3002c 	lw	v1,44(s8)
  403018:	00000000 	nop
  40301c:	00621021 	addu	v0,v1,v0
  403020:	00403025 	move	a2,v0
  403024:	00802825 	move	a1,a0
  403028:	8fc40024 	lw	a0,36(s8)
  40302c:	0c100cc2 	jal	403308 <fsipc_map>
  403030:	00000000 	nop
  403034:	afc2001c 	sw	v0,28(s8)
  403038:	8fc2001c 	lw	v0,28(s8)
  40303c:	00000000 	nop
  403040:	04410008 	bgez	v0,403064 <ftruncate+0x1a4>
  403044:	00000000 	nop
/home/git/21373271/21373271/user/lib/file.c:233
  403048:	8fc50028 	lw	a1,40(s8)
  40304c:	8fc40024 	lw	a0,36(s8)
  403050:	0c100cfc 	jal	4033f0 <fsipc_set_size>
  403054:	00000000 	nop
/home/git/21373271/21373271/user/lib/file.c:234
  403058:	8fc2001c 	lw	v0,28(s8)
  40305c:	10000043 	b	40316c <ftruncate+0x2ac>
  403060:	00000000 	nop
/home/git/21373271/21373271/user/lib/file.c:231 (discriminator 2)
  403064:	8fc20018 	lw	v0,24(s8)
  403068:	00000000 	nop
  40306c:	24421000 	addiu	v0,v0,4096
  403070:	afc20018 	sw	v0,24(s8)
/home/git/21373271/21373271/user/lib/file.c:231 (discriminator 1)
  403074:	8fc20044 	lw	v0,68(s8)
  403078:	00000000 	nop
  40307c:	24430fff 	addiu	v1,v0,4095
  403080:	2402f000 	li	v0,-4096
  403084:	00621824 	and	v1,v1,v0
  403088:	8fc20018 	lw	v0,24(s8)
  40308c:	00000000 	nop
  403090:	0043102b 	sltu	v0,v0,v1
  403094:	1440ffdd 	bnez	v0,40300c <ftruncate+0x14c>
  403098:	00000000 	nop
/home/git/21373271/21373271/user/lib/file.c:239
  40309c:	8fc20044 	lw	v0,68(s8)
  4030a0:	00000000 	nop
  4030a4:	24420fff 	addiu	v0,v0,4095
  4030a8:	00401825 	move	v1,v0
  4030ac:	2402f000 	li	v0,-4096
  4030b0:	00621024 	and	v0,v1,v0
  4030b4:	afc20018 	sw	v0,24(s8)
  4030b8:	10000021 	b	403140 <ftruncate+0x280>
  4030bc:	00000000 	nop
/home/git/21373271/21373271/user/lib/file.c:240
  4030c0:	8fc20018 	lw	v0,24(s8)
  4030c4:	8fc3002c 	lw	v1,44(s8)
  4030c8:	00000000 	nop
  4030cc:	00621021 	addu	v0,v1,v0
  4030d0:	00402825 	move	a1,v0
  4030d4:	00002025 	move	a0,zero
  4030d8:	0c100591 	jal	401644 <syscall_mem_unmap>
  4030dc:	00000000 	nop
  4030e0:	afc2001c 	sw	v0,28(s8)
  4030e4:	8fc2001c 	lw	v0,28(s8)
  4030e8:	00000000 	nop
  4030ec:	04410010 	bgez	v0,403130 <ftruncate+0x270>
  4030f0:	00000000 	nop
/home/git/21373271/21373271/user/lib/file.c:241
  4030f4:	8fc20018 	lw	v0,24(s8)
  4030f8:	8fc3002c 	lw	v1,44(s8)
  4030fc:	00000000 	nop
  403100:	00621821 	addu	v1,v1,v0
  403104:	8fc2001c 	lw	v0,28(s8)
  403108:	00000000 	nop
  40310c:	afa20010 	sw	v0,16(sp)
  403110:	00603825 	move	a3,v1
  403114:	3c020040 	lui	v0,0x40
  403118:	24467acc 	addiu	a2,v0,31436
  40311c:	240500f1 	li	a1,241
  403120:	3c020040 	lui	v0,0x40
  403124:	24447af4 	addiu	a0,v0,31476
  403128:	0c100393 	jal	400e4c <_user_panic>
  40312c:	00000000 	nop
/home/git/21373271/21373271/user/lib/file.c:239 (discriminator 2)
  403130:	8fc20018 	lw	v0,24(s8)
  403134:	00000000 	nop
  403138:	24421000 	addiu	v0,v0,4096
  40313c:	afc20018 	sw	v0,24(s8)
/home/git/21373271/21373271/user/lib/file.c:239 (discriminator 1)
  403140:	8fc20028 	lw	v0,40(s8)
  403144:	00000000 	nop
  403148:	24430fff 	addiu	v1,v0,4095
  40314c:	2402f000 	li	v0,-4096
  403150:	00621824 	and	v1,v1,v0
  403154:	8fc20018 	lw	v0,24(s8)
  403158:	00000000 	nop
  40315c:	0043102b 	sltu	v0,v0,v1
  403160:	1440ffd7 	bnez	v0,4030c0 <ftruncate+0x200>
  403164:	00000000 	nop
/home/git/21373271/21373271/user/lib/file.c:245
  403168:	00001025 	move	v0,zero
/home/git/21373271/21373271/user/lib/file.c:246 (discriminator 1)
  40316c:	03c0e825 	move	sp,s8
  403170:	8fbf003c 	lw	ra,60(sp)
  403174:	8fbe0038 	lw	s8,56(sp)
  403178:	27bd0040 	addiu	sp,sp,64
  40317c:	03e00008 	jr	ra
  403180:	00000000 	nop

00403184 <remove>:
remove():
/home/git/21373271/21373271/user/lib/file.c:250
  403184:	27bdffe8 	addiu	sp,sp,-24
  403188:	afbf0014 	sw	ra,20(sp)
  40318c:	afbe0010 	sw	s8,16(sp)
  403190:	03a0f025 	move	s8,sp
  403194:	afc40018 	sw	a0,24(s8)
/home/git/21373271/21373271/user/lib/file.c:255
  403198:	8fc40018 	lw	a0,24(s8)
  40319c:	0c100d4e 	jal	403538 <fsipc_remove>
  4031a0:	00000000 	nop
/home/git/21373271/21373271/user/lib/file.c:256
  4031a4:	03c0e825 	move	sp,s8
  4031a8:	8fbf0014 	lw	ra,20(sp)
  4031ac:	8fbe0010 	lw	s8,16(sp)
  4031b0:	27bd0018 	addiu	sp,sp,24
  4031b4:	03e00008 	jr	ra
  4031b8:	00000000 	nop

004031bc <sync>:
sync():
/home/git/21373271/21373271/user/lib/file.c:260
  4031bc:	27bdffe8 	addiu	sp,sp,-24
  4031c0:	afbf0014 	sw	ra,20(sp)
  4031c4:	afbe0010 	sw	s8,16(sp)
  4031c8:	03a0f025 	move	s8,sp
/home/git/21373271/21373271/user/lib/file.c:261
  4031cc:	0c100d75 	jal	4035d4 <fsipc_sync>
  4031d0:	00000000 	nop
/home/git/21373271/21373271/user/lib/file.c:262
  4031d4:	03c0e825 	move	sp,s8
  4031d8:	8fbf0014 	lw	ra,20(sp)
  4031dc:	8fbe0010 	lw	s8,16(sp)
  4031e0:	27bd0018 	addiu	sp,sp,24
  4031e4:	03e00008 	jr	ra
  4031e8:	00000000 	nop
  4031ec:	00000000 	nop

004031f0 <fsipc>:
fsipc():
/home/git/21373271/21373271/user/lib/fsipc.c:22
  4031f0:	27bdffe0 	addiu	sp,sp,-32
  4031f4:	afbf001c 	sw	ra,28(sp)
  4031f8:	afbe0018 	sw	s8,24(sp)
  4031fc:	03a0f025 	move	s8,sp
  403200:	afc40020 	sw	a0,32(s8)
  403204:	afc50024 	sw	a1,36(s8)
  403208:	afc60028 	sw	a2,40(s8)
  40320c:	afc7002c 	sw	a3,44(s8)
/home/git/21373271/21373271/user/lib/fsipc.c:25
  403210:	3c027f40 	lui	v0,0x7f40
  403214:	344200dc 	ori	v0,v0,0xdc
  403218:	8c4200a0 	lw	v0,160(v0)
  40321c:	24070400 	li	a3,1024
  403220:	8fc60024 	lw	a2,36(s8)
  403224:	8fc50020 	lw	a1,32(s8)
  403228:	00402025 	move	a0,v0
  40322c:	0c100630 	jal	4018c0 <ipc_send>
  403230:	00000000 	nop
/home/git/21373271/21373271/user/lib/fsipc.c:26
  403234:	8fc6002c 	lw	a2,44(s8)
  403238:	8fc50028 	lw	a1,40(s8)
  40323c:	27c20010 	addiu	v0,s8,16
  403240:	00402025 	move	a0,v0
  403244:	0c10065b 	jal	40196c <ipc_recv>
  403248:	00000000 	nop
/home/git/21373271/21373271/user/lib/fsipc.c:27
  40324c:	03c0e825 	move	sp,s8
  403250:	8fbf001c 	lw	ra,28(sp)
  403254:	8fbe0018 	lw	s8,24(sp)
  403258:	27bd0020 	addiu	sp,sp,32
  40325c:	03e00008 	jr	ra
  403260:	00000000 	nop

00403264 <fsipc_open>:
fsipc_open():
/home/git/21373271/21373271/user/lib/fsipc.c:36
  403264:	27bdffe0 	addiu	sp,sp,-32
  403268:	afbf001c 	sw	ra,28(sp)
  40326c:	afbe0018 	sw	s8,24(sp)
  403270:	03a0f025 	move	s8,sp
  403274:	afc40020 	sw	a0,32(s8)
  403278:	afc50024 	sw	a1,36(s8)
  40327c:	afc60028 	sw	a2,40(s8)
/home/git/21373271/21373271/user/lib/fsipc.c:40
  403280:	3c020041 	lui	v0,0x41
  403284:	2442f000 	addiu	v0,v0,-4096
  403288:	afc20010 	sw	v0,16(s8)
/home/git/21373271/21373271/user/lib/fsipc.c:43
  40328c:	8fc40020 	lw	a0,32(s8)
  403290:	0c101450 	jal	405140 <strlen>
  403294:	00000000 	nop
  403298:	2c420400 	sltiu	v0,v0,1024
  40329c:	14400004 	bnez	v0,4032b0 <fsipc_open+0x4c>
  4032a0:	00000000 	nop
/home/git/21373271/21373271/user/lib/fsipc.c:44
  4032a4:	2402fff5 	li	v0,-11
  4032a8:	10000011 	b	4032f0 <fsipc_open+0x8c>
  4032ac:	00000000 	nop
/home/git/21373271/21373271/user/lib/fsipc.c:47
  4032b0:	8fc20010 	lw	v0,16(s8)
  4032b4:	8fc50020 	lw	a1,32(s8)
  4032b8:	00402025 	move	a0,v0
  4032bc:	0c10146b 	jal	4051ac <strcpy>
  4032c0:	00000000 	nop
/home/git/21373271/21373271/user/lib/fsipc.c:48
  4032c4:	8fc20010 	lw	v0,16(s8)
  4032c8:	8fc30024 	lw	v1,36(s8)
  4032cc:	00000000 	nop
  4032d0:	ac430400 	sw	v1,1024(v0)
/home/git/21373271/21373271/user/lib/fsipc.c:49
  4032d4:	27c20014 	addiu	v0,s8,20
  4032d8:	00403825 	move	a3,v0
  4032dc:	8fc60028 	lw	a2,40(s8)
  4032e0:	8fc50010 	lw	a1,16(s8)
  4032e4:	24040001 	li	a0,1
  4032e8:	0c100c7c 	jal	4031f0 <fsipc>
  4032ec:	00000000 	nop
/home/git/21373271/21373271/user/lib/fsipc.c:50 (discriminator 1)
  4032f0:	03c0e825 	move	sp,s8
  4032f4:	8fbf001c 	lw	ra,28(sp)
  4032f8:	8fbe0018 	lw	s8,24(sp)
  4032fc:	27bd0020 	addiu	sp,sp,32
  403300:	03e00008 	jr	ra
  403304:	00000000 	nop

00403308 <fsipc_map>:
fsipc_map():
/home/git/21373271/21373271/user/lib/fsipc.c:60
  403308:	27bdffd0 	addiu	sp,sp,-48
  40330c:	afbf002c 	sw	ra,44(sp)
  403310:	afbe0028 	sw	s8,40(sp)
  403314:	03a0f025 	move	s8,sp
  403318:	afc40030 	sw	a0,48(s8)
  40331c:	afc50034 	sw	a1,52(s8)
  403320:	afc60038 	sw	a2,56(s8)
/home/git/21373271/21373271/user/lib/fsipc.c:65
  403324:	3c020041 	lui	v0,0x41
  403328:	2442f000 	addiu	v0,v0,-4096
  40332c:	afc20018 	sw	v0,24(s8)
/home/git/21373271/21373271/user/lib/fsipc.c:66
  403330:	8fc30030 	lw	v1,48(s8)
  403334:	8fc20018 	lw	v0,24(s8)
  403338:	00000000 	nop
  40333c:	ac430000 	sw	v1,0(v0)
/home/git/21373271/21373271/user/lib/fsipc.c:67
  403340:	8fc20018 	lw	v0,24(s8)
  403344:	8fc30034 	lw	v1,52(s8)
  403348:	00000000 	nop
  40334c:	ac430004 	sw	v1,4(v0)
/home/git/21373271/21373271/user/lib/fsipc.c:69
  403350:	27c20020 	addiu	v0,s8,32
  403354:	00403825 	move	a3,v0
  403358:	8fc60038 	lw	a2,56(s8)
  40335c:	8fc50018 	lw	a1,24(s8)
  403360:	24040002 	li	a0,2
  403364:	0c100c7c 	jal	4031f0 <fsipc>
  403368:	00000000 	nop
  40336c:	afc2001c 	sw	v0,28(s8)
  403370:	8fc2001c 	lw	v0,28(s8)
  403374:	00000000 	nop
  403378:	04410004 	bgez	v0,40338c <fsipc_map+0x84>
  40337c:	00000000 	nop
/home/git/21373271/21373271/user/lib/fsipc.c:70
  403380:	8fc2001c 	lw	v0,28(s8)
  403384:	10000014 	b	4033d8 <fsipc_map+0xd0>
  403388:	00000000 	nop
/home/git/21373271/21373271/user/lib/fsipc.c:73
  40338c:	8fc30020 	lw	v1,32(s8)
  403390:	2402fbfb 	li	v0,-1029
  403394:	00621824 	and	v1,v1,v0
  403398:	24020200 	li	v0,512
  40339c:	1062000d 	beq	v1,v0,4033d4 <fsipc_map+0xcc>
  4033a0:	00000000 	nop
/home/git/21373271/21373271/user/lib/fsipc.c:74
  4033a4:	8fc30020 	lw	v1,32(s8)
  4033a8:	8fc20038 	lw	v0,56(s8)
  4033ac:	00000000 	nop
  4033b0:	afa20010 	sw	v0,16(sp)
  4033b4:	00603825 	move	a3,v1
  4033b8:	3c020040 	lui	v0,0x40
  4033bc:	24467b00 	addiu	a2,v0,31488
  4033c0:	2405004a 	li	a1,74
  4033c4:	3c020040 	lui	v0,0x40
  4033c8:	24447b38 	addiu	a0,v0,31544
  4033cc:	0c100393 	jal	400e4c <_user_panic>
  4033d0:	00000000 	nop
/home/git/21373271/21373271/user/lib/fsipc.c:77
  4033d4:	00001025 	move	v0,zero
/home/git/21373271/21373271/user/lib/fsipc.c:78 (discriminator 1)
  4033d8:	03c0e825 	move	sp,s8
  4033dc:	8fbf002c 	lw	ra,44(sp)
  4033e0:	8fbe0028 	lw	s8,40(sp)
  4033e4:	27bd0030 	addiu	sp,sp,48
  4033e8:	03e00008 	jr	ra
  4033ec:	00000000 	nop

004033f0 <fsipc_set_size>:
fsipc_set_size():
/home/git/21373271/21373271/user/lib/fsipc.c:82
  4033f0:	27bdffe0 	addiu	sp,sp,-32
  4033f4:	afbf001c 	sw	ra,28(sp)
  4033f8:	afbe0018 	sw	s8,24(sp)
  4033fc:	03a0f025 	move	s8,sp
  403400:	afc40020 	sw	a0,32(s8)
  403404:	afc50024 	sw	a1,36(s8)
/home/git/21373271/21373271/user/lib/fsipc.c:85
  403408:	3c020041 	lui	v0,0x41
  40340c:	2442f000 	addiu	v0,v0,-4096
  403410:	afc20010 	sw	v0,16(s8)
/home/git/21373271/21373271/user/lib/fsipc.c:86
  403414:	8fc30020 	lw	v1,32(s8)
  403418:	8fc20010 	lw	v0,16(s8)
  40341c:	00000000 	nop
  403420:	ac430000 	sw	v1,0(v0)
/home/git/21373271/21373271/user/lib/fsipc.c:87
  403424:	8fc20010 	lw	v0,16(s8)
  403428:	8fc30024 	lw	v1,36(s8)
  40342c:	00000000 	nop
  403430:	ac430004 	sw	v1,4(v0)
/home/git/21373271/21373271/user/lib/fsipc.c:88
  403434:	00003825 	move	a3,zero
  403438:	00003025 	move	a2,zero
  40343c:	8fc50010 	lw	a1,16(s8)
  403440:	24040003 	li	a0,3
  403444:	0c100c7c 	jal	4031f0 <fsipc>
  403448:	00000000 	nop
/home/git/21373271/21373271/user/lib/fsipc.c:89
  40344c:	03c0e825 	move	sp,s8
  403450:	8fbf001c 	lw	ra,28(sp)
  403454:	8fbe0018 	lw	s8,24(sp)
  403458:	27bd0020 	addiu	sp,sp,32
  40345c:	03e00008 	jr	ra
  403460:	00000000 	nop

00403464 <fsipc_close>:
fsipc_close():
/home/git/21373271/21373271/user/lib/fsipc.c:93
  403464:	27bdffe0 	addiu	sp,sp,-32
  403468:	afbf001c 	sw	ra,28(sp)
  40346c:	afbe0018 	sw	s8,24(sp)
  403470:	03a0f025 	move	s8,sp
  403474:	afc40020 	sw	a0,32(s8)
/home/git/21373271/21373271/user/lib/fsipc.c:96
  403478:	3c020041 	lui	v0,0x41
  40347c:	2442f000 	addiu	v0,v0,-4096
  403480:	afc20010 	sw	v0,16(s8)
/home/git/21373271/21373271/user/lib/fsipc.c:97
  403484:	8fc30020 	lw	v1,32(s8)
  403488:	8fc20010 	lw	v0,16(s8)
  40348c:	00000000 	nop
  403490:	ac430000 	sw	v1,0(v0)
/home/git/21373271/21373271/user/lib/fsipc.c:98
  403494:	00003825 	move	a3,zero
  403498:	00003025 	move	a2,zero
  40349c:	8fc50010 	lw	a1,16(s8)
  4034a0:	24040004 	li	a0,4
  4034a4:	0c100c7c 	jal	4031f0 <fsipc>
  4034a8:	00000000 	nop
/home/git/21373271/21373271/user/lib/fsipc.c:99
  4034ac:	03c0e825 	move	sp,s8
  4034b0:	8fbf001c 	lw	ra,28(sp)
  4034b4:	8fbe0018 	lw	s8,24(sp)
  4034b8:	27bd0020 	addiu	sp,sp,32
  4034bc:	03e00008 	jr	ra
  4034c0:	00000000 	nop

004034c4 <fsipc_dirty>:
fsipc_dirty():
/home/git/21373271/21373271/user/lib/fsipc.c:103
  4034c4:	27bdffe0 	addiu	sp,sp,-32
  4034c8:	afbf001c 	sw	ra,28(sp)
  4034cc:	afbe0018 	sw	s8,24(sp)
  4034d0:	03a0f025 	move	s8,sp
  4034d4:	afc40020 	sw	a0,32(s8)
  4034d8:	afc50024 	sw	a1,36(s8)
/home/git/21373271/21373271/user/lib/fsipc.c:106
  4034dc:	3c020041 	lui	v0,0x41
  4034e0:	2442f000 	addiu	v0,v0,-4096
  4034e4:	afc20010 	sw	v0,16(s8)
/home/git/21373271/21373271/user/lib/fsipc.c:107
  4034e8:	8fc30020 	lw	v1,32(s8)
  4034ec:	8fc20010 	lw	v0,16(s8)
  4034f0:	00000000 	nop
  4034f4:	ac430000 	sw	v1,0(v0)
/home/git/21373271/21373271/user/lib/fsipc.c:108
  4034f8:	8fc20010 	lw	v0,16(s8)
  4034fc:	8fc30024 	lw	v1,36(s8)
  403500:	00000000 	nop
  403504:	ac430004 	sw	v1,4(v0)
/home/git/21373271/21373271/user/lib/fsipc.c:109
  403508:	00003825 	move	a3,zero
  40350c:	00003025 	move	a2,zero
  403510:	8fc50010 	lw	a1,16(s8)
  403514:	24040005 	li	a0,5
  403518:	0c100c7c 	jal	4031f0 <fsipc>
  40351c:	00000000 	nop
/home/git/21373271/21373271/user/lib/fsipc.c:110
  403520:	03c0e825 	move	sp,s8
  403524:	8fbf001c 	lw	ra,28(sp)
  403528:	8fbe0018 	lw	s8,24(sp)
  40352c:	27bd0020 	addiu	sp,sp,32
  403530:	03e00008 	jr	ra
  403534:	00000000 	nop

00403538 <fsipc_remove>:
fsipc_remove():
/home/git/21373271/21373271/user/lib/fsipc.c:114
  403538:	27bdffe0 	addiu	sp,sp,-32
  40353c:	afbf001c 	sw	ra,28(sp)
  403540:	afbe0018 	sw	s8,24(sp)
  403544:	03a0f025 	move	s8,sp
  403548:	afc40020 	sw	a0,32(s8)
/home/git/21373271/21373271/user/lib/fsipc.c:118
  40354c:	8fc40020 	lw	a0,32(s8)
  403550:	0c101450 	jal	405140 <strlen>
  403554:	00000000 	nop
  403558:	10400007 	beqz	v0,403578 <fsipc_remove+0x40>
  40355c:	00000000 	nop
/home/git/21373271/21373271/user/lib/fsipc.c:118 (discriminator 1)
  403560:	8fc40020 	lw	a0,32(s8)
  403564:	0c101450 	jal	405140 <strlen>
  403568:	00000000 	nop
  40356c:	2c420401 	sltiu	v0,v0,1025
  403570:	14400004 	bnez	v0,403584 <fsipc_remove+0x4c>
  403574:	00000000 	nop
/home/git/21373271/21373271/user/lib/fsipc.c:119
  403578:	2402fff5 	li	v0,-11
  40357c:	1000000f 	b	4035bc <fsipc_remove+0x84>
  403580:	00000000 	nop
/home/git/21373271/21373271/user/lib/fsipc.c:122
  403584:	3c020041 	lui	v0,0x41
  403588:	2442f000 	addiu	v0,v0,-4096
  40358c:	afc20010 	sw	v0,16(s8)
/home/git/21373271/21373271/user/lib/fsipc.c:126
  403590:	8fc20010 	lw	v0,16(s8)
  403594:	8fc50020 	lw	a1,32(s8)
  403598:	00402025 	move	a0,v0
  40359c:	0c10146b 	jal	4051ac <strcpy>
  4035a0:	00000000 	nop
/home/git/21373271/21373271/user/lib/fsipc.c:129
  4035a4:	00003825 	move	a3,zero
  4035a8:	00003025 	move	a2,zero
  4035ac:	8fc50010 	lw	a1,16(s8)
  4035b0:	24040006 	li	a0,6
  4035b4:	0c100c7c 	jal	4031f0 <fsipc>
  4035b8:	00000000 	nop
/home/git/21373271/21373271/user/lib/fsipc.c:130
  4035bc:	03c0e825 	move	sp,s8
  4035c0:	8fbf001c 	lw	ra,28(sp)
  4035c4:	8fbe0018 	lw	s8,24(sp)
  4035c8:	27bd0020 	addiu	sp,sp,32
  4035cc:	03e00008 	jr	ra
  4035d0:	00000000 	nop

004035d4 <fsipc_sync>:
fsipc_sync():
/home/git/21373271/21373271/user/lib/fsipc.c:135
  4035d4:	27bdffe8 	addiu	sp,sp,-24
  4035d8:	afbf0014 	sw	ra,20(sp)
  4035dc:	afbe0010 	sw	s8,16(sp)
  4035e0:	03a0f025 	move	s8,sp
/home/git/21373271/21373271/user/lib/fsipc.c:136
  4035e4:	00003825 	move	a3,zero
  4035e8:	00003025 	move	a2,zero
  4035ec:	3c020041 	lui	v0,0x41
  4035f0:	2445f000 	addiu	a1,v0,-4096
  4035f4:	24040007 	li	a0,7
  4035f8:	0c100c7c 	jal	4031f0 <fsipc>
  4035fc:	00000000 	nop
/home/git/21373271/21373271/user/lib/fsipc.c:137
  403600:	03c0e825 	move	sp,s8
  403604:	8fbf0014 	lw	ra,20(sp)
  403608:	8fbe0010 	lw	s8,16(sp)
  40360c:	27bd0018 	addiu	sp,sp,24
  403610:	03e00008 	jr	ra
  403614:	00000000 	nop
	...

00403620 <iscons>:
iscons():
/home/git/21373271/21373271/user/lib/console.c:18
  403620:	27bdffe0 	addiu	sp,sp,-32
  403624:	afbf001c 	sw	ra,28(sp)
  403628:	afbe0018 	sw	s8,24(sp)
  40362c:	03a0f025 	move	s8,sp
  403630:	afc40020 	sw	a0,32(s8)
/home/git/21373271/21373271/user/lib/console.c:22
  403634:	27c20014 	addiu	v0,s8,20
  403638:	00402825 	move	a1,v0
  40363c:	8fc40020 	lw	a0,32(s8)
  403640:	0c100727 	jal	401c9c <fd_lookup>
  403644:	00000000 	nop
  403648:	afc20010 	sw	v0,16(s8)
  40364c:	8fc20010 	lw	v0,16(s8)
  403650:	00000000 	nop
  403654:	04410004 	bgez	v0,403668 <iscons+0x48>
  403658:	00000000 	nop
/home/git/21373271/21373271/user/lib/console.c:23
  40365c:	8fc20010 	lw	v0,16(s8)
  403660:	1000000a 	b	40368c <iscons+0x6c>
  403664:	00000000 	nop
/home/git/21373271/21373271/user/lib/console.c:25
  403668:	8fc20014 	lw	v0,20(s8)
  40366c:	00000000 	nop
  403670:	8c420000 	lw	v0,0(v0)
  403674:	3c030041 	lui	v1,0x41
  403678:	8c63d030 	lw	v1,-12240(v1)
  40367c:	00000000 	nop
  403680:	00431026 	xor	v0,v0,v1
  403684:	2c420001 	sltiu	v0,v0,1
  403688:	304200ff 	andi	v0,v0,0xff
/home/git/21373271/21373271/user/lib/console.c:26 (discriminator 1)
  40368c:	03c0e825 	move	sp,s8
  403690:	8fbf001c 	lw	ra,28(sp)
  403694:	8fbe0018 	lw	s8,24(sp)
  403698:	27bd0020 	addiu	sp,sp,32
  40369c:	03e00008 	jr	ra
  4036a0:	00000000 	nop

004036a4 <opencons>:
opencons():
/home/git/21373271/21373271/user/lib/console.c:28
  4036a4:	27bdffe0 	addiu	sp,sp,-32
  4036a8:	afbf001c 	sw	ra,28(sp)
  4036ac:	afbe0018 	sw	s8,24(sp)
  4036b0:	03a0f025 	move	s8,sp
/home/git/21373271/21373271/user/lib/console.c:32
  4036b4:	27c20014 	addiu	v0,s8,20
  4036b8:	00402025 	move	a0,v0
  4036bc:	0c1006d6 	jal	401b58 <fd_alloc>
  4036c0:	00000000 	nop
  4036c4:	afc20010 	sw	v0,16(s8)
  4036c8:	8fc20010 	lw	v0,16(s8)
  4036cc:	00000000 	nop
  4036d0:	04410004 	bgez	v0,4036e4 <opencons+0x40>
  4036d4:	00000000 	nop
/home/git/21373271/21373271/user/lib/console.c:33
  4036d8:	8fc20010 	lw	v0,16(s8)
  4036dc:	1000001c 	b	403750 <opencons+0xac>
  4036e0:	00000000 	nop
/home/git/21373271/21373271/user/lib/console.c:35
  4036e4:	8fc20014 	lw	v0,20(s8)
  4036e8:	24060404 	li	a2,1028
  4036ec:	00402825 	move	a1,v0
  4036f0:	00002025 	move	a0,zero
  4036f4:	0c100564 	jal	401590 <syscall_mem_alloc>
  4036f8:	00000000 	nop
  4036fc:	afc20010 	sw	v0,16(s8)
  403700:	8fc20010 	lw	v0,16(s8)
  403704:	00000000 	nop
  403708:	04410004 	bgez	v0,40371c <opencons+0x78>
  40370c:	00000000 	nop
/home/git/21373271/21373271/user/lib/console.c:36
  403710:	8fc20010 	lw	v0,16(s8)
  403714:	1000000e 	b	403750 <opencons+0xac>
  403718:	00000000 	nop
/home/git/21373271/21373271/user/lib/console.c:38
  40371c:	3c020041 	lui	v0,0x41
  403720:	8c43d030 	lw	v1,-12240(v0)
  403724:	8fc20014 	lw	v0,20(s8)
  403728:	00000000 	nop
  40372c:	ac430000 	sw	v1,0(v0)
/home/git/21373271/21373271/user/lib/console.c:39
  403730:	8fc20014 	lw	v0,20(s8)
  403734:	24030002 	li	v1,2
  403738:	ac430008 	sw	v1,8(v0)
/home/git/21373271/21373271/user/lib/console.c:40
  40373c:	8fc20014 	lw	v0,20(s8)
  403740:	00000000 	nop
  403744:	00402025 	move	a0,v0
  403748:	0c100762 	jal	401d88 <fd2num>
  40374c:	00000000 	nop
/home/git/21373271/21373271/user/lib/console.c:41 (discriminator 1)
  403750:	03c0e825 	move	sp,s8
  403754:	8fbf001c 	lw	ra,28(sp)
  403758:	8fbe0018 	lw	s8,24(sp)
  40375c:	27bd0020 	addiu	sp,sp,32
  403760:	03e00008 	jr	ra
  403764:	00000000 	nop

00403768 <cons_read>:
cons_read():
/home/git/21373271/21373271/user/lib/console.c:43
  403768:	27bdffe0 	addiu	sp,sp,-32
  40376c:	afbf001c 	sw	ra,28(sp)
  403770:	afbe0018 	sw	s8,24(sp)
  403774:	03a0f025 	move	s8,sp
  403778:	afc40020 	sw	a0,32(s8)
  40377c:	afc50024 	sw	a1,36(s8)
  403780:	afc60028 	sw	a2,40(s8)
  403784:	afc7002c 	sw	a3,44(s8)
/home/git/21373271/21373271/user/lib/console.c:46
  403788:	8fc20028 	lw	v0,40(s8)
  40378c:	00000000 	nop
  403790:	14400006 	bnez	v0,4037ac <cons_read+0x44>
  403794:	00000000 	nop
/home/git/21373271/21373271/user/lib/console.c:47
  403798:	00001025 	move	v0,zero
  40379c:	1000002f 	b	40385c <cons_read+0xf4>
  4037a0:	00000000 	nop
/home/git/21373271/21373271/user/lib/console.c:51
  4037a4:	0c100536 	jal	4014d8 <syscall_yield>
  4037a8:	00000000 	nop
/home/git/21373271/21373271/user/lib/console.c:50
  4037ac:	0c1005fc 	jal	4017f0 <syscall_cgetc>
  4037b0:	00000000 	nop
  4037b4:	afc20010 	sw	v0,16(s8)
  4037b8:	8fc20010 	lw	v0,16(s8)
  4037bc:	00000000 	nop
  4037c0:	1040fff8 	beqz	v0,4037a4 <cons_read+0x3c>
  4037c4:	00000000 	nop
/home/git/21373271/21373271/user/lib/console.c:54
  4037c8:	8fc30010 	lw	v1,16(s8)
  4037cc:	2402000d 	li	v0,13
  4037d0:	10620008 	beq	v1,v0,4037f4 <cons_read+0x8c>
  4037d4:	00000000 	nop
/home/git/21373271/21373271/user/lib/console.c:55
  4037d8:	8fc50010 	lw	a1,16(s8)
  4037dc:	3c020040 	lui	v0,0x40
  4037e0:	24447b58 	addiu	a0,v0,31576
  4037e4:	0c10037c 	jal	400df0 <debugf>
  4037e8:	00000000 	nop
  4037ec:	10000005 	b	403804 <cons_read+0x9c>
  4037f0:	00000000 	nop
/home/git/21373271/21373271/user/lib/console.c:57
  4037f4:	3c020040 	lui	v0,0x40
  4037f8:	24447b5c 	addiu	a0,v0,31580
  4037fc:	0c10037c 	jal	400df0 <debugf>
  403800:	00000000 	nop
/home/git/21373271/21373271/user/lib/console.c:59
  403804:	8fc20010 	lw	v0,16(s8)
  403808:	00000000 	nop
  40380c:	04410004 	bgez	v0,403820 <cons_read+0xb8>
  403810:	00000000 	nop
/home/git/21373271/21373271/user/lib/console.c:60
  403814:	8fc20010 	lw	v0,16(s8)
  403818:	10000010 	b	40385c <cons_read+0xf4>
  40381c:	00000000 	nop
/home/git/21373271/21373271/user/lib/console.c:62
  403820:	8fc30010 	lw	v1,16(s8)
  403824:	24020004 	li	v0,4
  403828:	14620004 	bne	v1,v0,40383c <cons_read+0xd4>
  40382c:	00000000 	nop
/home/git/21373271/21373271/user/lib/console.c:63
  403830:	00001025 	move	v0,zero
  403834:	10000009 	b	40385c <cons_read+0xf4>
  403838:	00000000 	nop
/home/git/21373271/21373271/user/lib/console.c:65
  40383c:	8fc20010 	lw	v0,16(s8)
  403840:	00000000 	nop
  403844:	00021e00 	sll	v1,v0,0x18
  403848:	00031e03 	sra	v1,v1,0x18
  40384c:	8fc20024 	lw	v0,36(s8)
  403850:	00000000 	nop
  403854:	a0430000 	sb	v1,0(v0)
/home/git/21373271/21373271/user/lib/console.c:66
  403858:	24020001 	li	v0,1
/home/git/21373271/21373271/user/lib/console.c:67
  40385c:	03c0e825 	move	sp,s8
  403860:	8fbf001c 	lw	ra,28(sp)
  403864:	8fbe0018 	lw	s8,24(sp)
  403868:	27bd0020 	addiu	sp,sp,32
  40386c:	03e00008 	jr	ra
  403870:	00000000 	nop

00403874 <cons_write>:
cons_write():
/home/git/21373271/21373271/user/lib/console.c:69
  403874:	27bdffe0 	addiu	sp,sp,-32
  403878:	afbf001c 	sw	ra,28(sp)
  40387c:	afbe0018 	sw	s8,24(sp)
  403880:	03a0f025 	move	s8,sp
  403884:	afc40020 	sw	a0,32(s8)
  403888:	afc50024 	sw	a1,36(s8)
  40388c:	afc60028 	sw	a2,40(s8)
  403890:	afc7002c 	sw	a3,44(s8)
/home/git/21373271/21373271/user/lib/console.c:70
  403894:	8fc50028 	lw	a1,40(s8)
  403898:	8fc40024 	lw	a0,36(s8)
  40389c:	0c100518 	jal	401460 <syscall_print_cons>
  4038a0:	00000000 	nop
  4038a4:	afc20010 	sw	v0,16(s8)
/home/git/21373271/21373271/user/lib/console.c:71
  4038a8:	8fc20010 	lw	v0,16(s8)
  4038ac:	00000000 	nop
  4038b0:	04410004 	bgez	v0,4038c4 <cons_write+0x50>
  4038b4:	00000000 	nop
/home/git/21373271/21373271/user/lib/console.c:72
  4038b8:	8fc20010 	lw	v0,16(s8)
  4038bc:	10000002 	b	4038c8 <cons_write+0x54>
  4038c0:	00000000 	nop
/home/git/21373271/21373271/user/lib/console.c:74
  4038c4:	8fc20028 	lw	v0,40(s8)
/home/git/21373271/21373271/user/lib/console.c:75
  4038c8:	03c0e825 	move	sp,s8
  4038cc:	8fbf001c 	lw	ra,28(sp)
  4038d0:	8fbe0018 	lw	s8,24(sp)
  4038d4:	27bd0020 	addiu	sp,sp,32
  4038d8:	03e00008 	jr	ra
  4038dc:	00000000 	nop

004038e0 <cons_close>:
cons_close():
/home/git/21373271/21373271/user/lib/console.c:77
  4038e0:	27bdfff8 	addiu	sp,sp,-8
  4038e4:	afbe0004 	sw	s8,4(sp)
  4038e8:	03a0f025 	move	s8,sp
  4038ec:	afc40008 	sw	a0,8(s8)
/home/git/21373271/21373271/user/lib/console.c:78
  4038f0:	00001025 	move	v0,zero
/home/git/21373271/21373271/user/lib/console.c:79
  4038f4:	03c0e825 	move	sp,s8
  4038f8:	8fbe0004 	lw	s8,4(sp)
  4038fc:	27bd0008 	addiu	sp,sp,8
  403900:	03e00008 	jr	ra
  403904:	00000000 	nop

00403908 <cons_stat>:
cons_stat():
/home/git/21373271/21373271/user/lib/console.c:81
  403908:	27bdffe8 	addiu	sp,sp,-24
  40390c:	afbf0014 	sw	ra,20(sp)
  403910:	afbe0010 	sw	s8,16(sp)
  403914:	03a0f025 	move	s8,sp
  403918:	afc40018 	sw	a0,24(s8)
  40391c:	afc5001c 	sw	a1,28(s8)
/home/git/21373271/21373271/user/lib/console.c:82
  403920:	8fc3001c 	lw	v1,28(s8)
  403924:	3c020040 	lui	v0,0x40
  403928:	24457b60 	addiu	a1,v0,31584
  40392c:	00602025 	move	a0,v1
  403930:	0c10146b 	jal	4051ac <strcpy>
  403934:	00000000 	nop
/home/git/21373271/21373271/user/lib/console.c:83
  403938:	00001025 	move	v0,zero
/home/git/21373271/21373271/user/lib/console.c:84
  40393c:	03c0e825 	move	sp,s8
  403940:	8fbf0014 	lw	ra,20(sp)
  403944:	8fbe0010 	lw	s8,16(sp)
  403948:	27bd0018 	addiu	sp,sp,24
  40394c:	03e00008 	jr	ra
  403950:	00000000 	nop
	...

00403960 <print_output>:
print_output():
/home/git/21373271/21373271/user/lib/fprintf.c:9
  403960:	27bdffe0 	addiu	sp,sp,-32
  403964:	afbf001c 	sw	ra,28(sp)
  403968:	afbe0018 	sw	s8,24(sp)
  40396c:	03a0f025 	move	s8,sp
  403970:	afc40020 	sw	a0,32(s8)
  403974:	afc50024 	sw	a1,36(s8)
  403978:	afc60028 	sw	a2,40(s8)
/home/git/21373271/21373271/user/lib/fprintf.c:10
  40397c:	8fc20020 	lw	v0,32(s8)
  403980:	00000000 	nop
  403984:	afc20010 	sw	v0,16(s8)
/home/git/21373271/21373271/user/lib/fprintf.c:11
  403988:	8fc20010 	lw	v0,16(s8)
  40398c:	00000000 	nop
  403990:	8c420004 	lw	v0,4(v0)
  403994:	00000000 	nop
  403998:	0440001f 	bltz	v0,403a18 <print_output+0xb8>
  40399c:	00000000 	nop
/home/git/21373271/21373271/user/lib/fprintf.c:14
  4039a0:	8fc20010 	lw	v0,16(s8)
  4039a4:	00000000 	nop
  4039a8:	8c420000 	lw	v0,0(v0)
  4039ac:	8fc60028 	lw	a2,40(s8)
  4039b0:	8fc50024 	lw	a1,36(s8)
  4039b4:	00402025 	move	a0,v0
  4039b8:	0c1008f1 	jal	4023c4 <write>
  4039bc:	00000000 	nop
  4039c0:	afc20014 	sw	v0,20(s8)
/home/git/21373271/21373271/user/lib/fprintf.c:15
  4039c4:	8fc20014 	lw	v0,20(s8)
  4039c8:	00000000 	nop
  4039cc:	04410007 	bgez	v0,4039ec <print_output+0x8c>
  4039d0:	00000000 	nop
/home/git/21373271/21373271/user/lib/fprintf.c:16
  4039d4:	8fc20010 	lw	v0,16(s8)
  4039d8:	8fc30014 	lw	v1,20(s8)
  4039dc:	00000000 	nop
  4039e0:	ac430004 	sw	v1,4(v0)
  4039e4:	1000000d 	b	403a1c <print_output+0xbc>
  4039e8:	00000000 	nop
/home/git/21373271/21373271/user/lib/fprintf.c:18
  4039ec:	8fc20010 	lw	v0,16(s8)
  4039f0:	00000000 	nop
  4039f4:	8c430004 	lw	v1,4(v0)
  4039f8:	8fc20014 	lw	v0,20(s8)
  4039fc:	00000000 	nop
  403a00:	00621821 	addu	v1,v1,v0
  403a04:	8fc20010 	lw	v0,16(s8)
  403a08:	00000000 	nop
  403a0c:	ac430004 	sw	v1,4(v0)
  403a10:	10000002 	b	403a1c <print_output+0xbc>
  403a14:	00000000 	nop
/home/git/21373271/21373271/user/lib/fprintf.c:12
  403a18:	00000000 	nop
/home/git/21373271/21373271/user/lib/fprintf.c:20
  403a1c:	03c0e825 	move	sp,s8
  403a20:	8fbf001c 	lw	ra,28(sp)
  403a24:	8fbe0018 	lw	s8,24(sp)
  403a28:	27bd0020 	addiu	sp,sp,32
  403a2c:	03e00008 	jr	ra
  403a30:	00000000 	nop

00403a34 <vfprintf>:
vfprintf():
/home/git/21373271/21373271/user/lib/fprintf.c:22
  403a34:	27bdffe0 	addiu	sp,sp,-32
  403a38:	afbf001c 	sw	ra,28(sp)
  403a3c:	afbe0018 	sw	s8,24(sp)
  403a40:	03a0f025 	move	s8,sp
  403a44:	afc40020 	sw	a0,32(s8)
  403a48:	afc50024 	sw	a1,36(s8)
  403a4c:	afc60028 	sw	a2,40(s8)
/home/git/21373271/21373271/user/lib/fprintf.c:24
  403a50:	8fc20020 	lw	v0,32(s8)
  403a54:	00000000 	nop
  403a58:	afc20010 	sw	v0,16(s8)
/home/git/21373271/21373271/user/lib/fprintf.c:25
  403a5c:	afc00014 	sw	zero,20(s8)
/home/git/21373271/21373271/user/lib/fprintf.c:26
  403a60:	8fc70028 	lw	a3,40(s8)
  403a64:	8fc60024 	lw	a2,36(s8)
  403a68:	27c20010 	addiu	v0,s8,16
  403a6c:	00402825 	move	a1,v0
  403a70:	3c020040 	lui	v0,0x40
  403a74:	24443960 	addiu	a0,v0,14688
  403a78:	0c100fe0 	jal	403f80 <vprintfmt>
  403a7c:	00000000 	nop
/home/git/21373271/21373271/user/lib/fprintf.c:27
  403a80:	8fc20014 	lw	v0,20(s8)
/home/git/21373271/21373271/user/lib/fprintf.c:28
  403a84:	03c0e825 	move	sp,s8
  403a88:	8fbf001c 	lw	ra,28(sp)
  403a8c:	8fbe0018 	lw	s8,24(sp)
  403a90:	27bd0020 	addiu	sp,sp,32
  403a94:	03e00008 	jr	ra
  403a98:	00000000 	nop

00403a9c <fprintf>:
fprintf():
/home/git/21373271/21373271/user/lib/fprintf.c:30
  403a9c:	27bdffe0 	addiu	sp,sp,-32
  403aa0:	afbf001c 	sw	ra,28(sp)
  403aa4:	afbe0018 	sw	s8,24(sp)
  403aa8:	03a0f025 	move	s8,sp
  403aac:	afc40020 	sw	a0,32(s8)
  403ab0:	afc50024 	sw	a1,36(s8)
  403ab4:	afc60028 	sw	a2,40(s8)
  403ab8:	afc7002c 	sw	a3,44(s8)
/home/git/21373271/21373271/user/lib/fprintf.c:32
  403abc:	27c20028 	addiu	v0,s8,40
  403ac0:	afc20014 	sw	v0,20(s8)
/home/git/21373271/21373271/user/lib/fprintf.c:33
  403ac4:	8fc20014 	lw	v0,20(s8)
  403ac8:	00000000 	nop
  403acc:	00403025 	move	a2,v0
  403ad0:	8fc50024 	lw	a1,36(s8)
  403ad4:	8fc40020 	lw	a0,32(s8)
  403ad8:	0c100e8d 	jal	403a34 <vfprintf>
  403adc:	00000000 	nop
  403ae0:	afc20010 	sw	v0,16(s8)
/home/git/21373271/21373271/user/lib/fprintf.c:35
  403ae4:	8fc20010 	lw	v0,16(s8)
/home/git/21373271/21373271/user/lib/fprintf.c:36
  403ae8:	03c0e825 	move	sp,s8
  403aec:	8fbf001c 	lw	ra,28(sp)
  403af0:	8fbe0018 	lw	s8,24(sp)
  403af4:	27bd0020 	addiu	sp,sp,32
  403af8:	03e00008 	jr	ra
  403afc:	00000000 	nop

00403b00 <printf>:
printf():
/home/git/21373271/21373271/user/lib/fprintf.c:38
  403b00:	27bdffe0 	addiu	sp,sp,-32
  403b04:	afbf001c 	sw	ra,28(sp)
  403b08:	afbe0018 	sw	s8,24(sp)
  403b0c:	03a0f025 	move	s8,sp
  403b10:	afc40020 	sw	a0,32(s8)
  403b14:	afc50024 	sw	a1,36(s8)
  403b18:	afc60028 	sw	a2,40(s8)
  403b1c:	afc7002c 	sw	a3,44(s8)
/home/git/21373271/21373271/user/lib/fprintf.c:40
  403b20:	27c20024 	addiu	v0,s8,36
  403b24:	afc20014 	sw	v0,20(s8)
/home/git/21373271/21373271/user/lib/fprintf.c:41
  403b28:	8fc20014 	lw	v0,20(s8)
  403b2c:	00000000 	nop
  403b30:	00403025 	move	a2,v0
  403b34:	8fc50020 	lw	a1,32(s8)
  403b38:	24040001 	li	a0,1
  403b3c:	0c100e8d 	jal	403a34 <vfprintf>
  403b40:	00000000 	nop
  403b44:	afc20010 	sw	v0,16(s8)
/home/git/21373271/21373271/user/lib/fprintf.c:43
  403b48:	8fc20010 	lw	v0,16(s8)
/home/git/21373271/21373271/user/lib/fprintf.c:44
  403b4c:	03c0e825 	move	sp,s8
  403b50:	8fbf001c 	lw	ra,28(sp)
  403b54:	8fbe0018 	lw	s8,24(sp)
  403b58:	27bd0020 	addiu	sp,sp,32
  403b5c:	03e00008 	jr	ra
  403b60:	00000000 	nop
	...

00403b70 <elf_from>:
elf_from():
/home/git/21373271/21373271/lib/elfloader.c:4
#include <elf.h>
#include <pmap.h>

const Elf32_Ehdr *elf_from(const void *binary, size_t size) {
  403b70:	27bdfff0 	addiu	sp,sp,-16
  403b74:	afbe000c 	sw	s8,12(sp)
  403b78:	03a0f025 	move	s8,sp
  403b7c:	afc40010 	sw	a0,16(s8)
  403b80:	afc50014 	sw	a1,20(s8)
/home/git/21373271/21373271/lib/elfloader.c:5
	const Elf32_Ehdr *ehdr = (const Elf32_Ehdr *)binary;
  403b84:	8fc20010 	lw	v0,16(s8)
  403b88:	00000000 	nop
  403b8c:	afc20000 	sw	v0,0(s8)
/home/git/21373271/21373271/lib/elfloader.c:6
	if (size >= sizeof(Elf32_Ehdr) && ehdr->e_ident[EI_MAG0] == ELFMAG0 &&
  403b90:	8fc20014 	lw	v0,20(s8)
  403b94:	00000000 	nop
  403b98:	2c420034 	sltiu	v0,v0,52
  403b9c:	14400022 	bnez	v0,403c28 <elf_from+0xb8>
  403ba0:	00000000 	nop
/home/git/21373271/21373271/lib/elfloader.c:6 (discriminator 1)
  403ba4:	8fc20000 	lw	v0,0(s8)
  403ba8:	00000000 	nop
  403bac:	90430000 	lbu	v1,0(v0)
  403bb0:	2402007f 	li	v0,127
  403bb4:	1462001c 	bne	v1,v0,403c28 <elf_from+0xb8>
  403bb8:	00000000 	nop
/home/git/21373271/21373271/lib/elfloader.c:7 (discriminator 2)
	    ehdr->e_ident[EI_MAG1] == ELFMAG1 && ehdr->e_ident[EI_MAG2] == ELFMAG2 &&
  403bbc:	8fc20000 	lw	v0,0(s8)
  403bc0:	00000000 	nop
  403bc4:	90430001 	lbu	v1,1(v0)
/home/git/21373271/21373271/lib/elfloader.c:6 (discriminator 2)
	if (size >= sizeof(Elf32_Ehdr) && ehdr->e_ident[EI_MAG0] == ELFMAG0 &&
  403bc8:	24020045 	li	v0,69
  403bcc:	14620016 	bne	v1,v0,403c28 <elf_from+0xb8>
  403bd0:	00000000 	nop
/home/git/21373271/21373271/lib/elfloader.c:7
	    ehdr->e_ident[EI_MAG1] == ELFMAG1 && ehdr->e_ident[EI_MAG2] == ELFMAG2 &&
  403bd4:	8fc20000 	lw	v0,0(s8)
  403bd8:	00000000 	nop
  403bdc:	90430002 	lbu	v1,2(v0)
  403be0:	2402004c 	li	v0,76
  403be4:	14620010 	bne	v1,v0,403c28 <elf_from+0xb8>
  403be8:	00000000 	nop
/home/git/21373271/21373271/lib/elfloader.c:8 (discriminator 1)
	    ehdr->e_ident[EI_MAG3] == ELFMAG3 && ehdr->e_type == 2) {
  403bec:	8fc20000 	lw	v0,0(s8)
  403bf0:	00000000 	nop
  403bf4:	90430003 	lbu	v1,3(v0)
/home/git/21373271/21373271/lib/elfloader.c:7 (discriminator 1)
	    ehdr->e_ident[EI_MAG1] == ELFMAG1 && ehdr->e_ident[EI_MAG2] == ELFMAG2 &&
  403bf8:	24020046 	li	v0,70
  403bfc:	1462000a 	bne	v1,v0,403c28 <elf_from+0xb8>
  403c00:	00000000 	nop
/home/git/21373271/21373271/lib/elfloader.c:8
	    ehdr->e_ident[EI_MAG3] == ELFMAG3 && ehdr->e_type == 2) {
  403c04:	8fc20000 	lw	v0,0(s8)
  403c08:	00000000 	nop
  403c0c:	94430010 	lhu	v1,16(v0)
  403c10:	24020002 	li	v0,2
  403c14:	14620004 	bne	v1,v0,403c28 <elf_from+0xb8>
  403c18:	00000000 	nop
/home/git/21373271/21373271/lib/elfloader.c:9
		return ehdr;
  403c1c:	8fc20000 	lw	v0,0(s8)
  403c20:	10000002 	b	403c2c <elf_from+0xbc>
  403c24:	00000000 	nop
/home/git/21373271/21373271/lib/elfloader.c:11
	}
	return NULL;
  403c28:	00001025 	move	v0,zero
/home/git/21373271/21373271/lib/elfloader.c:12
}
  403c2c:	03c0e825 	move	sp,s8
  403c30:	8fbe000c 	lw	s8,12(sp)
  403c34:	27bd0010 	addiu	sp,sp,16
  403c38:	03e00008 	jr	ra
  403c3c:	00000000 	nop

00403c40 <elf_load_seg>:
elf_load_seg():
/home/git/21373271/21373271/lib/elfloader.c:25
 *
 * Post-Condition:
 *   Return 0 if success. Otherwise return < 0.
 *   If success, the entry point of `binary` will be stored in `start`
 */
int elf_load_seg(Elf32_Phdr *ph, const void *bin, elf_mapper_t map_page, void *data) {
  403c40:	27bdffa0 	addiu	sp,sp,-96
  403c44:	afbf005c 	sw	ra,92(sp)
  403c48:	afbe0058 	sw	s8,88(sp)
  403c4c:	03a0f025 	move	s8,sp
  403c50:	afc40060 	sw	a0,96(s8)
  403c54:	afc50064 	sw	a1,100(s8)
  403c58:	afc60068 	sw	a2,104(s8)
  403c5c:	afc7006c 	sw	a3,108(s8)
/home/git/21373271/21373271/lib/elfloader.c:26
	u_long va = ph->p_vaddr;
  403c60:	8fc20060 	lw	v0,96(s8)
  403c64:	00000000 	nop
  403c68:	8c420008 	lw	v0,8(v0)
  403c6c:	00000000 	nop
  403c70:	afc20020 	sw	v0,32(s8)
/home/git/21373271/21373271/lib/elfloader.c:27
	size_t bin_size = ph->p_filesz;
  403c74:	8fc20060 	lw	v0,96(s8)
  403c78:	00000000 	nop
  403c7c:	8c420010 	lw	v0,16(v0)
  403c80:	00000000 	nop
  403c84:	afc20024 	sw	v0,36(s8)
/home/git/21373271/21373271/lib/elfloader.c:28
	size_t sgsize = ph->p_memsz;
  403c88:	8fc20060 	lw	v0,96(s8)
  403c8c:	00000000 	nop
  403c90:	8c420014 	lw	v0,20(v0)
  403c94:	00000000 	nop
  403c98:	afc20028 	sw	v0,40(s8)
/home/git/21373271/21373271/lib/elfloader.c:29
	u_int perm = PTE_V;
  403c9c:	24020200 	li	v0,512
  403ca0:	afc20018 	sw	v0,24(s8)
/home/git/21373271/21373271/lib/elfloader.c:30
	if (ph->p_flags & PF_W) {
  403ca4:	8fc20060 	lw	v0,96(s8)
  403ca8:	00000000 	nop
  403cac:	8c420018 	lw	v0,24(v0)
  403cb0:	00000000 	nop
  403cb4:	30420002 	andi	v0,v0,0x2
  403cb8:	10400005 	beqz	v0,403cd0 <elf_load_seg+0x90>
  403cbc:	00000000 	nop
/home/git/21373271/21373271/lib/elfloader.c:31
		perm |= PTE_D;
  403cc0:	8fc20018 	lw	v0,24(s8)
  403cc4:	00000000 	nop
  403cc8:	34420400 	ori	v0,v0,0x400
  403ccc:	afc20018 	sw	v0,24(s8)
/home/git/21373271/21373271/lib/elfloader.c:36
	}

	int r;
	size_t i;
	u_long offset = va - ROUNDDOWN(va, BY2PG);
  403cd0:	8fc20020 	lw	v0,32(s8)
  403cd4:	00000000 	nop
  403cd8:	30420fff 	andi	v0,v0,0xfff
  403cdc:	afc2002c 	sw	v0,44(s8)
/home/git/21373271/21373271/lib/elfloader.c:37
	if (offset != 0) {
  403ce0:	8fc2002c 	lw	v0,44(s8)
  403ce4:	00000000 	nop
  403ce8:	10400023 	beqz	v0,403d78 <elf_load_seg+0x138>
  403cec:	00000000 	nop
/home/git/21373271/21373271/lib/elfloader.c:38
		if ((r = map_page(data, va, offset, perm, bin, MIN(bin_size, BY2PG - offset))) !=
  403cf0:	8fc20024 	lw	v0,36(s8)
  403cf4:	00000000 	nop
  403cf8:	afc20030 	sw	v0,48(s8)
  403cfc:	24031000 	li	v1,4096
  403d00:	8fc2002c 	lw	v0,44(s8)
  403d04:	00000000 	nop
  403d08:	00621023 	subu	v0,v1,v0
  403d0c:	afc20034 	sw	v0,52(s8)
  403d10:	8fc30034 	lw	v1,52(s8)
  403d14:	8fc20030 	lw	v0,48(s8)
  403d18:	00000000 	nop
  403d1c:	0062202b 	sltu	a0,v1,v0
  403d20:	10800002 	beqz	a0,403d2c <elf_load_seg+0xec>
  403d24:	00000000 	nop
  403d28:	00601025 	move	v0,v1
  403d2c:	afa20014 	sw	v0,20(sp)
  403d30:	8fc20064 	lw	v0,100(s8)
  403d34:	00000000 	nop
  403d38:	afa20010 	sw	v0,16(sp)
  403d3c:	8fc20068 	lw	v0,104(s8)
  403d40:	8fc70018 	lw	a3,24(s8)
  403d44:	8fc6002c 	lw	a2,44(s8)
  403d48:	8fc50020 	lw	a1,32(s8)
  403d4c:	8fc4006c 	lw	a0,108(s8)
  403d50:	0040f809 	jalr	v0
  403d54:	00000000 	nop
  403d58:	afc20038 	sw	v0,56(s8)
  403d5c:	8fc20038 	lw	v0,56(s8)
  403d60:	00000000 	nop
  403d64:	10400004 	beqz	v0,403d78 <elf_load_seg+0x138>
  403d68:	00000000 	nop
/home/git/21373271/21373271/lib/elfloader.c:40
		    0) {
			return r;
  403d6c:	8fc20038 	lw	v0,56(s8)
  403d70:	1000007a 	b	403f5c <elf_load_seg+0x31c>
  403d74:	00000000 	nop
/home/git/21373271/21373271/lib/elfloader.c:45
		}
	}

	/* Step 1: load all content of bin into memory. */
	for (i = offset ? MIN(bin_size, BY2PG - offset) : 0; i < bin_size; i += BY2PG) {
  403d78:	8fc2002c 	lw	v0,44(s8)
  403d7c:	00000000 	nop
  403d80:	10400012 	beqz	v0,403dcc <elf_load_seg+0x18c>
  403d84:	00000000 	nop
/home/git/21373271/21373271/lib/elfloader.c:45 (discriminator 1)
  403d88:	8fc20024 	lw	v0,36(s8)
  403d8c:	00000000 	nop
  403d90:	afc2003c 	sw	v0,60(s8)
  403d94:	24031000 	li	v1,4096
  403d98:	8fc2002c 	lw	v0,44(s8)
  403d9c:	00000000 	nop
  403da0:	00621023 	subu	v0,v1,v0
  403da4:	afc20040 	sw	v0,64(s8)
  403da8:	8fc30040 	lw	v1,64(s8)
  403dac:	8fc2003c 	lw	v0,60(s8)
  403db0:	00000000 	nop
  403db4:	0062202b 	sltu	a0,v1,v0
  403db8:	10800005 	beqz	a0,403dd0 <elf_load_seg+0x190>
  403dbc:	00000000 	nop
  403dc0:	00601025 	move	v0,v1
  403dc4:	10000002 	b	403dd0 <elf_load_seg+0x190>
  403dc8:	00000000 	nop
/home/git/21373271/21373271/lib/elfloader.c:45 (discriminator 2)
  403dcc:	00001025 	move	v0,zero
/home/git/21373271/21373271/lib/elfloader.c:45 (discriminator 4)
  403dd0:	afc2001c 	sw	v0,28(s8)
  403dd4:	1000002c 	b	403e88 <elf_load_seg+0x248>
  403dd8:	00000000 	nop
/home/git/21373271/21373271/lib/elfloader.c:46
		if ((r = map_page(data, va + i, 0, perm, bin + i, MIN(bin_size - i, BY2PG))) != 0) {
  403ddc:	8fc30020 	lw	v1,32(s8)
  403de0:	8fc2001c 	lw	v0,28(s8)
  403de4:	00000000 	nop
  403de8:	00624021 	addu	t0,v1,v0
  403dec:	8fc30064 	lw	v1,100(s8)
  403df0:	8fc2001c 	lw	v0,28(s8)
  403df4:	00000000 	nop
  403df8:	00622021 	addu	a0,v1,v0
  403dfc:	8fc30024 	lw	v1,36(s8)
  403e00:	8fc2001c 	lw	v0,28(s8)
  403e04:	00000000 	nop
  403e08:	00621023 	subu	v0,v1,v0
  403e0c:	afc2004c 	sw	v0,76(s8)
  403e10:	24021000 	li	v0,4096
  403e14:	afc20050 	sw	v0,80(s8)
  403e18:	8fc30050 	lw	v1,80(s8)
  403e1c:	8fc2004c 	lw	v0,76(s8)
  403e20:	00000000 	nop
  403e24:	0062282b 	sltu	a1,v1,v0
  403e28:	10a00002 	beqz	a1,403e34 <elf_load_seg+0x1f4>
  403e2c:	00000000 	nop
  403e30:	00601025 	move	v0,v1
  403e34:	afa20014 	sw	v0,20(sp)
  403e38:	afa40010 	sw	a0,16(sp)
  403e3c:	8fc20068 	lw	v0,104(s8)
  403e40:	8fc70018 	lw	a3,24(s8)
  403e44:	00003025 	move	a2,zero
  403e48:	01002825 	move	a1,t0
  403e4c:	8fc4006c 	lw	a0,108(s8)
  403e50:	0040f809 	jalr	v0
  403e54:	00000000 	nop
  403e58:	afc20038 	sw	v0,56(s8)
  403e5c:	8fc20038 	lw	v0,56(s8)
  403e60:	00000000 	nop
  403e64:	10400004 	beqz	v0,403e78 <elf_load_seg+0x238>
  403e68:	00000000 	nop
/home/git/21373271/21373271/lib/elfloader.c:47
			return r;
  403e6c:	8fc20038 	lw	v0,56(s8)
  403e70:	1000003a 	b	403f5c <elf_load_seg+0x31c>
  403e74:	00000000 	nop
/home/git/21373271/21373271/lib/elfloader.c:45 (discriminator 6)
	for (i = offset ? MIN(bin_size, BY2PG - offset) : 0; i < bin_size; i += BY2PG) {
  403e78:	8fc2001c 	lw	v0,28(s8)
  403e7c:	00000000 	nop
  403e80:	24421000 	addiu	v0,v0,4096
  403e84:	afc2001c 	sw	v0,28(s8)
/home/git/21373271/21373271/lib/elfloader.c:45 (discriminator 5)
  403e88:	8fc3001c 	lw	v1,28(s8)
  403e8c:	8fc20024 	lw	v0,36(s8)
  403e90:	00000000 	nop
  403e94:	0062102b 	sltu	v0,v1,v0
  403e98:	1440ffd0 	bnez	v0,403ddc <elf_load_seg+0x19c>
  403e9c:	00000000 	nop
/home/git/21373271/21373271/lib/elfloader.c:52
		}
	}

	/* Step 2: alloc pages to reach `sgsize` when `bin_size` < `sgsize`. */
	while (i < sgsize) {
  403ea0:	10000027 	b	403f40 <elf_load_seg+0x300>
  403ea4:	00000000 	nop
/home/git/21373271/21373271/lib/elfloader.c:53
		if ((r = map_page(data, va + i, 0, perm, NULL, MIN(bin_size - i, BY2PG))) != 0) {
  403ea8:	8fc30020 	lw	v1,32(s8)
  403eac:	8fc2001c 	lw	v0,28(s8)
  403eb0:	00000000 	nop
  403eb4:	00622821 	addu	a1,v1,v0
  403eb8:	8fc30024 	lw	v1,36(s8)
  403ebc:	8fc2001c 	lw	v0,28(s8)
  403ec0:	00000000 	nop
  403ec4:	00621023 	subu	v0,v1,v0
  403ec8:	afc20044 	sw	v0,68(s8)
  403ecc:	24021000 	li	v0,4096
  403ed0:	afc20048 	sw	v0,72(s8)
  403ed4:	8fc30048 	lw	v1,72(s8)
  403ed8:	8fc20044 	lw	v0,68(s8)
  403edc:	00000000 	nop
  403ee0:	0062202b 	sltu	a0,v1,v0
  403ee4:	10800002 	beqz	a0,403ef0 <elf_load_seg+0x2b0>
  403ee8:	00000000 	nop
  403eec:	00601025 	move	v0,v1
  403ef0:	afa20014 	sw	v0,20(sp)
  403ef4:	afa00010 	sw	zero,16(sp)
  403ef8:	8fc20068 	lw	v0,104(s8)
  403efc:	8fc70018 	lw	a3,24(s8)
  403f00:	00003025 	move	a2,zero
  403f04:	8fc4006c 	lw	a0,108(s8)
  403f08:	0040f809 	jalr	v0
  403f0c:	00000000 	nop
  403f10:	afc20038 	sw	v0,56(s8)
  403f14:	8fc20038 	lw	v0,56(s8)
  403f18:	00000000 	nop
  403f1c:	10400004 	beqz	v0,403f30 <elf_load_seg+0x2f0>
  403f20:	00000000 	nop
/home/git/21373271/21373271/lib/elfloader.c:54
			return r;
  403f24:	8fc20038 	lw	v0,56(s8)
  403f28:	1000000c 	b	403f5c <elf_load_seg+0x31c>
  403f2c:	00000000 	nop
/home/git/21373271/21373271/lib/elfloader.c:56
		}
		i += BY2PG;
  403f30:	8fc2001c 	lw	v0,28(s8)
  403f34:	00000000 	nop
  403f38:	24421000 	addiu	v0,v0,4096
  403f3c:	afc2001c 	sw	v0,28(s8)
/home/git/21373271/21373271/lib/elfloader.c:52
	while (i < sgsize) {
  403f40:	8fc3001c 	lw	v1,28(s8)
  403f44:	8fc20028 	lw	v0,40(s8)
  403f48:	00000000 	nop
  403f4c:	0062102b 	sltu	v0,v1,v0
  403f50:	1440ffd5 	bnez	v0,403ea8 <elf_load_seg+0x268>
  403f54:	00000000 	nop
/home/git/21373271/21373271/lib/elfloader.c:58
	}
	return 0;
  403f58:	00001025 	move	v0,zero
/home/git/21373271/21373271/lib/elfloader.c:59
}
  403f5c:	03c0e825 	move	sp,s8
  403f60:	8fbf005c 	lw	ra,92(sp)
  403f64:	8fbe0058 	lw	s8,88(sp)
  403f68:	27bd0060 	addiu	sp,sp,96
  403f6c:	03e00008 	jr	ra
  403f70:	00000000 	nop
	...

00403f80 <vprintfmt>:
vprintfmt():
/home/git/21373271/21373271/lib/print.c:8
/* forward declaration */
static void print_char(fmt_callback_t, void *, char, int, int);
static void print_str(fmt_callback_t, void *, const char *, int, int);
static void print_num(fmt_callback_t, void *, unsigned long, int, int, int, int, char, int);

void vprintfmt(fmt_callback_t out, void *data, const char *fmt, va_list ap) {
  403f80:	27bdffb0 	addiu	sp,sp,-80
  403f84:	afbf004c 	sw	ra,76(sp)
  403f88:	afbe0048 	sw	s8,72(sp)
  403f8c:	03a0f025 	move	s8,sp
  403f90:	afc40050 	sw	a0,80(s8)
  403f94:	afc50054 	sw	a1,84(s8)
  403f98:	afc60058 	sw	a2,88(s8)
  403f9c:	afc7005c 	sw	a3,92(s8)
/home/git/21373271/21373271/lib/print.c:20
	int neg_flag;  // output is negative
	int ladjust;   // output is left-aligned
	char padc;     // padding char

	for (;;) {
		if ( *fmt != '%' )	
  403fa0:	8fc20058 	lw	v0,88(s8)
  403fa4:	00000000 	nop
  403fa8:	80430000 	lb	v1,0(v0)
  403fac:	24020025 	li	v0,37
  403fb0:	10620013 	beq	v1,v0,404000 <vprintfmt+0x80>
  403fb4:	00000000 	nop
/home/git/21373271/21373271/lib/print.c:22
		{	
			out( data , fmt , 1 );
  403fb8:	8fc20050 	lw	v0,80(s8)
  403fbc:	24060001 	li	a2,1
  403fc0:	8fc50058 	lw	a1,88(s8)
  403fc4:	8fc40054 	lw	a0,84(s8)
  403fc8:	0040f809 	jalr	v0
  403fcc:	00000000 	nop
/home/git/21373271/21373271/lib/print.c:23
			fmt++;
  403fd0:	8fc20058 	lw	v0,88(s8)
  403fd4:	00000000 	nop
  403fd8:	24420001 	addiu	v0,v0,1
  403fdc:	afc20058 	sw	v0,88(s8)
/home/git/21373271/21373271/lib/print.c:24
			if ( *fmt != 0 ) {
  403fe0:	8fc20058 	lw	v0,88(s8)
  403fe4:	00000000 	nop
  403fe8:	80420000 	lb	v0,0(v0)
  403fec:	00000000 	nop
  403ff0:	104001a1 	beqz	v0,404678 <vprintfmt+0x6f8>
  403ff4:	00000000 	nop
/home/git/21373271/21373271/lib/print.c:25
				continue;
  403ff8:	1000019d 	b	404670 <vprintfmt+0x6f0>
  403ffc:	00000000 	nop
/home/git/21373271/21373271/lib/print.c:32
			else {
				break;
			}	
		}
		
		width = 0;
  404000:	afc0002c 	sw	zero,44(s8)
/home/git/21373271/21373271/lib/print.c:33
		long_flag = 0;
  404004:	afc00030 	sw	zero,48(s8)
/home/git/21373271/21373271/lib/print.c:34
		ladjust = 0;
  404008:	afc00038 	sw	zero,56(s8)
/home/git/21373271/21373271/lib/print.c:35
		padc = ' ';
  40400c:	24020020 	li	v0,32
  404010:	a3c2003c 	sb	v0,60(s8)
/home/git/21373271/21373271/lib/print.c:36
		fmt++;
  404014:	8fc20058 	lw	v0,88(s8)
  404018:	00000000 	nop
  40401c:	24420001 	addiu	v0,v0,1
  404020:	afc20058 	sw	v0,88(s8)
/home/git/21373271/21373271/lib/print.c:38

		if (*fmt == '-') 
  404024:	8fc20058 	lw	v0,88(s8)
  404028:	00000000 	nop
  40402c:	80430000 	lb	v1,0(v0)
  404030:	2402002d 	li	v0,45
  404034:	14620007 	bne	v1,v0,404054 <vprintfmt+0xd4>
  404038:	00000000 	nop
/home/git/21373271/21373271/lib/print.c:40
		{
			ladjust = 1;
  40403c:	24020001 	li	v0,1
  404040:	afc20038 	sw	v0,56(s8)
/home/git/21373271/21373271/lib/print.c:41
			fmt++;
  404044:	8fc20058 	lw	v0,88(s8)
  404048:	00000000 	nop
  40404c:	24420001 	addiu	v0,v0,1
  404050:	afc20058 	sw	v0,88(s8)
/home/git/21373271/21373271/lib/print.c:43
		}
		if (*fmt == '0')
  404054:	8fc20058 	lw	v0,88(s8)
  404058:	00000000 	nop
  40405c:	80430000 	lb	v1,0(v0)
  404060:	24020030 	li	v0,48
  404064:	1462001b 	bne	v1,v0,4040d4 <vprintfmt+0x154>
  404068:	00000000 	nop
/home/git/21373271/21373271/lib/print.c:45
		{
			padc = '0';
  40406c:	24020030 	li	v0,48
  404070:	a3c2003c 	sb	v0,60(s8)
/home/git/21373271/21373271/lib/print.c:46
			fmt++;
  404074:	8fc20058 	lw	v0,88(s8)
  404078:	00000000 	nop
  40407c:	24420001 	addiu	v0,v0,1
  404080:	afc20058 	sw	v0,88(s8)
/home/git/21373271/21373271/lib/print.c:49
		}

		while ( (*fmt) >= '0' && (*fmt) <= '9')
  404084:	10000013 	b	4040d4 <vprintfmt+0x154>
  404088:	00000000 	nop
/home/git/21373271/21373271/lib/print.c:51
		{
			width = width * 10 + (*fmt) - '0';
  40408c:	8fc3002c 	lw	v1,44(s8)
  404090:	00000000 	nop
  404094:	00601025 	move	v0,v1
  404098:	00021080 	sll	v0,v0,0x2
  40409c:	00431021 	addu	v0,v0,v1
  4040a0:	00021040 	sll	v0,v0,0x1
  4040a4:	00401825 	move	v1,v0
  4040a8:	8fc20058 	lw	v0,88(s8)
  4040ac:	00000000 	nop
  4040b0:	80420000 	lb	v0,0(v0)
  4040b4:	00000000 	nop
  4040b8:	00621021 	addu	v0,v1,v0
  4040bc:	2442ffd0 	addiu	v0,v0,-48
  4040c0:	afc2002c 	sw	v0,44(s8)
/home/git/21373271/21373271/lib/print.c:52
			fmt++;
  4040c4:	8fc20058 	lw	v0,88(s8)
  4040c8:	00000000 	nop
  4040cc:	24420001 	addiu	v0,v0,1
  4040d0:	afc20058 	sw	v0,88(s8)
/home/git/21373271/21373271/lib/print.c:49
		while ( (*fmt) >= '0' && (*fmt) <= '9')
  4040d4:	8fc20058 	lw	v0,88(s8)
  4040d8:	00000000 	nop
  4040dc:	80420000 	lb	v0,0(v0)
  4040e0:	00000000 	nop
  4040e4:	28420030 	slti	v0,v0,48
  4040e8:	14400008 	bnez	v0,40410c <vprintfmt+0x18c>
  4040ec:	00000000 	nop
/home/git/21373271/21373271/lib/print.c:49 (discriminator 1)
  4040f0:	8fc20058 	lw	v0,88(s8)
  4040f4:	00000000 	nop
  4040f8:	80420000 	lb	v0,0(v0)
  4040fc:	00000000 	nop
  404100:	2842003a 	slti	v0,v0,58
  404104:	1440ffe1 	bnez	v0,40408c <vprintfmt+0x10c>
  404108:	00000000 	nop
/home/git/21373271/21373271/lib/print.c:55
		}

		if (*fmt == 'l') 
  40410c:	8fc20058 	lw	v0,88(s8)
  404110:	00000000 	nop
  404114:	80430000 	lb	v1,0(v0)
  404118:	2402006c 	li	v0,108
  40411c:	14620007 	bne	v1,v0,40413c <vprintfmt+0x1bc>
  404120:	00000000 	nop
/home/git/21373271/21373271/lib/print.c:57
		{
			long_flag = 1;
  404124:	24020001 	li	v0,1
  404128:	afc20030 	sw	v0,48(s8)
/home/git/21373271/21373271/lib/print.c:58
			fmt++;
  40412c:	8fc20058 	lw	v0,88(s8)
  404130:	00000000 	nop
  404134:	24420001 	addiu	v0,v0,1
  404138:	afc20058 	sw	v0,88(s8)
/home/git/21373271/21373271/lib/print.c:61
		}

		neg_flag = 0;
  40413c:	afc00034 	sw	zero,52(s8)
/home/git/21373271/21373271/lib/print.c:62
		switch (*fmt) {
  404140:	8fc20058 	lw	v0,88(s8)
  404144:	00000000 	nop
  404148:	80420000 	lb	v0,0(v0)
  40414c:	00000000 	nop
  404150:	10400137 	beqz	v0,404630 <vprintfmt+0x6b0>
  404154:	00000000 	nop
  404158:	0440013b 	bltz	v0,404648 <vprintfmt+0x6c8>
  40415c:	00000000 	nop
  404160:	28430079 	slti	v1,v0,121
  404164:	10600138 	beqz	v1,404648 <vprintfmt+0x6c8>
  404168:	00000000 	nop
  40416c:	28430044 	slti	v1,v0,68
  404170:	14600135 	bnez	v1,404648 <vprintfmt+0x6c8>
  404174:	00000000 	nop
  404178:	2442ffbc 	addiu	v0,v0,-68
  40417c:	2c430035 	sltiu	v1,v0,53
  404180:	10600131 	beqz	v1,404648 <vprintfmt+0x6c8>
  404184:	00000000 	nop
  404188:	00021880 	sll	v1,v0,0x2
  40418c:	3c020040 	lui	v0,0x40
  404190:	24427b70 	addiu	v0,v0,31600
  404194:	00621021 	addu	v0,v1,v0
  404198:	8c420000 	lw	v0,0(v0)
  40419c:	00000000 	nop
  4041a0:	00400008 	jr	v0
  4041a4:	00000000 	nop
/home/git/21373271/21373271/lib/print.c:64
		case 'b':
			if (long_flag) {
  4041a8:	8fc20030 	lw	v0,48(s8)
  4041ac:	00000000 	nop
  4041b0:	1040000a 	beqz	v0,4041dc <vprintfmt+0x25c>
  4041b4:	00000000 	nop
/home/git/21373271/21373271/lib/print.c:65
				num = va_arg(ap, long int);
  4041b8:	8fc2005c 	lw	v0,92(s8)
  4041bc:	00000000 	nop
  4041c0:	24430004 	addiu	v1,v0,4
  4041c4:	afc3005c 	sw	v1,92(s8)
  4041c8:	8c420000 	lw	v0,0(v0)
  4041cc:	00000000 	nop
  4041d0:	afc20028 	sw	v0,40(s8)
  4041d4:	10000008 	b	4041f8 <vprintfmt+0x278>
  4041d8:	00000000 	nop
/home/git/21373271/21373271/lib/print.c:67
			} else {
				num = va_arg(ap, int);
  4041dc:	8fc2005c 	lw	v0,92(s8)
  4041e0:	00000000 	nop
  4041e4:	24430004 	addiu	v1,v0,4
  4041e8:	afc3005c 	sw	v1,92(s8)
  4041ec:	8c420000 	lw	v0,0(v0)
  4041f0:	00000000 	nop
  4041f4:	afc20028 	sw	v0,40(s8)
/home/git/21373271/21373271/lib/print.c:69
			}
			print_num(out, data, num, 2, 0, width, ladjust, padc, 0);
  4041f8:	8fc30028 	lw	v1,40(s8)
  4041fc:	afa00020 	sw	zero,32(sp)
  404200:	83c2003c 	lb	v0,60(s8)
  404204:	00000000 	nop
  404208:	afa2001c 	sw	v0,28(sp)
  40420c:	8fc20038 	lw	v0,56(s8)
  404210:	00000000 	nop
  404214:	afa20018 	sw	v0,24(sp)
  404218:	8fc2002c 	lw	v0,44(s8)
  40421c:	00000000 	nop
  404220:	afa20014 	sw	v0,20(sp)
  404224:	afa00010 	sw	zero,16(sp)
  404228:	24070002 	li	a3,2
  40422c:	00603025 	move	a2,v1
  404230:	8fc50054 	lw	a1,84(s8)
  404234:	8fc40050 	lw	a0,80(s8)
  404238:	0c101268 	jal	4049a0 <print_num>
  40423c:	00000000 	nop
/home/git/21373271/21373271/lib/print.c:70
			break;
  404240:	10000107 	b	404660 <vprintfmt+0x6e0>
  404244:	00000000 	nop
/home/git/21373271/21373271/lib/print.c:74

		case 'd':
		case 'D':
			if (long_flag) {
  404248:	8fc20030 	lw	v0,48(s8)
  40424c:	00000000 	nop
  404250:	1040000a 	beqz	v0,40427c <vprintfmt+0x2fc>
  404254:	00000000 	nop
/home/git/21373271/21373271/lib/print.c:75
				num = va_arg(ap, long int);
  404258:	8fc2005c 	lw	v0,92(s8)
  40425c:	00000000 	nop
  404260:	24430004 	addiu	v1,v0,4
  404264:	afc3005c 	sw	v1,92(s8)
  404268:	8c420000 	lw	v0,0(v0)
  40426c:	00000000 	nop
  404270:	afc20028 	sw	v0,40(s8)
  404274:	10000008 	b	404298 <vprintfmt+0x318>
  404278:	00000000 	nop
/home/git/21373271/21373271/lib/print.c:77
			} else {
				num = va_arg(ap, int);
  40427c:	8fc2005c 	lw	v0,92(s8)
  404280:	00000000 	nop
  404284:	24430004 	addiu	v1,v0,4
  404288:	afc3005c 	sw	v1,92(s8)
  40428c:	8c420000 	lw	v0,0(v0)
  404290:	00000000 	nop
  404294:	afc20028 	sw	v0,40(s8)
/home/git/21373271/21373271/lib/print.c:80
			}
			
			if(num < 0)
  404298:	8fc20028 	lw	v0,40(s8)
  40429c:	00000000 	nop
  4042a0:	04410007 	bgez	v0,4042c0 <vprintfmt+0x340>
  4042a4:	00000000 	nop
/home/git/21373271/21373271/lib/print.c:82
			{
				neg_flag = 1;
  4042a8:	24020001 	li	v0,1
  4042ac:	afc20034 	sw	v0,52(s8)
/home/git/21373271/21373271/lib/print.c:83
				num = -num;
  4042b0:	8fc20028 	lw	v0,40(s8)
  4042b4:	00000000 	nop
  4042b8:	00021023 	negu	v0,v0
  4042bc:	afc20028 	sw	v0,40(s8)
/home/git/21373271/21373271/lib/print.c:85
			}
			print_num(out, data, num, 10, neg_flag, width, ladjust, padc, 0);
  4042c0:	8fc30028 	lw	v1,40(s8)
  4042c4:	afa00020 	sw	zero,32(sp)
  4042c8:	83c2003c 	lb	v0,60(s8)
  4042cc:	00000000 	nop
  4042d0:	afa2001c 	sw	v0,28(sp)
  4042d4:	8fc20038 	lw	v0,56(s8)
  4042d8:	00000000 	nop
  4042dc:	afa20018 	sw	v0,24(sp)
  4042e0:	8fc2002c 	lw	v0,44(s8)
  4042e4:	00000000 	nop
  4042e8:	afa20014 	sw	v0,20(sp)
  4042ec:	8fc20034 	lw	v0,52(s8)
  4042f0:	00000000 	nop
  4042f4:	afa20010 	sw	v0,16(sp)
  4042f8:	2407000a 	li	a3,10
  4042fc:	00603025 	move	a2,v1
  404300:	8fc50054 	lw	a1,84(s8)
  404304:	8fc40050 	lw	a0,80(s8)
  404308:	0c101268 	jal	4049a0 <print_num>
  40430c:	00000000 	nop
/home/git/21373271/21373271/lib/print.c:93
			 * complete this part. Think the differences between case 'd' and the
			 * others. (hint: 'neg_flag').
			 */
			/* Exercise 1.4: Your code here. (8/8) */

			break;
  404310:	100000d3 	b	404660 <vprintfmt+0x6e0>
  404314:	00000000 	nop
/home/git/21373271/21373271/lib/print.c:97

		case 'o':
		case 'O':
			if (long_flag) {
  404318:	8fc20030 	lw	v0,48(s8)
  40431c:	00000000 	nop
  404320:	1040000a 	beqz	v0,40434c <vprintfmt+0x3cc>
  404324:	00000000 	nop
/home/git/21373271/21373271/lib/print.c:98
				num = va_arg(ap, long int);
  404328:	8fc2005c 	lw	v0,92(s8)
  40432c:	00000000 	nop
  404330:	24430004 	addiu	v1,v0,4
  404334:	afc3005c 	sw	v1,92(s8)
  404338:	8c420000 	lw	v0,0(v0)
  40433c:	00000000 	nop
  404340:	afc20028 	sw	v0,40(s8)
  404344:	10000008 	b	404368 <vprintfmt+0x3e8>
  404348:	00000000 	nop
/home/git/21373271/21373271/lib/print.c:100
			} else {
				num = va_arg(ap, int);
  40434c:	8fc2005c 	lw	v0,92(s8)
  404350:	00000000 	nop
  404354:	24430004 	addiu	v1,v0,4
  404358:	afc3005c 	sw	v1,92(s8)
  40435c:	8c420000 	lw	v0,0(v0)
  404360:	00000000 	nop
  404364:	afc20028 	sw	v0,40(s8)
/home/git/21373271/21373271/lib/print.c:102
			}
			print_num(out, data, num, 8, 0, width, ladjust, padc, 0);
  404368:	8fc30028 	lw	v1,40(s8)
  40436c:	afa00020 	sw	zero,32(sp)
  404370:	83c2003c 	lb	v0,60(s8)
  404374:	00000000 	nop
  404378:	afa2001c 	sw	v0,28(sp)
  40437c:	8fc20038 	lw	v0,56(s8)
  404380:	00000000 	nop
  404384:	afa20018 	sw	v0,24(sp)
  404388:	8fc2002c 	lw	v0,44(s8)
  40438c:	00000000 	nop
  404390:	afa20014 	sw	v0,20(sp)
  404394:	afa00010 	sw	zero,16(sp)
  404398:	24070008 	li	a3,8
  40439c:	00603025 	move	a2,v1
  4043a0:	8fc50054 	lw	a1,84(s8)
  4043a4:	8fc40050 	lw	a0,80(s8)
  4043a8:	0c101268 	jal	4049a0 <print_num>
  4043ac:	00000000 	nop
/home/git/21373271/21373271/lib/print.c:103
			break;
  4043b0:	100000ab 	b	404660 <vprintfmt+0x6e0>
  4043b4:	00000000 	nop
/home/git/21373271/21373271/lib/print.c:107

		case 'u':
		case 'U':
			if (long_flag) {
  4043b8:	8fc20030 	lw	v0,48(s8)
  4043bc:	00000000 	nop
  4043c0:	1040000a 	beqz	v0,4043ec <vprintfmt+0x46c>
  4043c4:	00000000 	nop
/home/git/21373271/21373271/lib/print.c:108
				num = va_arg(ap, long int);
  4043c8:	8fc2005c 	lw	v0,92(s8)
  4043cc:	00000000 	nop
  4043d0:	24430004 	addiu	v1,v0,4
  4043d4:	afc3005c 	sw	v1,92(s8)
  4043d8:	8c420000 	lw	v0,0(v0)
  4043dc:	00000000 	nop
  4043e0:	afc20028 	sw	v0,40(s8)
  4043e4:	10000008 	b	404408 <vprintfmt+0x488>
  4043e8:	00000000 	nop
/home/git/21373271/21373271/lib/print.c:110
			} else {
				num = va_arg(ap, int);
  4043ec:	8fc2005c 	lw	v0,92(s8)
  4043f0:	00000000 	nop
  4043f4:	24430004 	addiu	v1,v0,4
  4043f8:	afc3005c 	sw	v1,92(s8)
  4043fc:	8c420000 	lw	v0,0(v0)
  404400:	00000000 	nop
  404404:	afc20028 	sw	v0,40(s8)
/home/git/21373271/21373271/lib/print.c:112
			}
			print_num(out, data, num, 10, 0, width, ladjust, padc, 0);
  404408:	8fc30028 	lw	v1,40(s8)
  40440c:	afa00020 	sw	zero,32(sp)
  404410:	83c2003c 	lb	v0,60(s8)
  404414:	00000000 	nop
  404418:	afa2001c 	sw	v0,28(sp)
  40441c:	8fc20038 	lw	v0,56(s8)
  404420:	00000000 	nop
  404424:	afa20018 	sw	v0,24(sp)
  404428:	8fc2002c 	lw	v0,44(s8)
  40442c:	00000000 	nop
  404430:	afa20014 	sw	v0,20(sp)
  404434:	afa00010 	sw	zero,16(sp)
  404438:	2407000a 	li	a3,10
  40443c:	00603025 	move	a2,v1
  404440:	8fc50054 	lw	a1,84(s8)
  404444:	8fc40050 	lw	a0,80(s8)
  404448:	0c101268 	jal	4049a0 <print_num>
  40444c:	00000000 	nop
/home/git/21373271/21373271/lib/print.c:113
			break;
  404450:	10000083 	b	404660 <vprintfmt+0x6e0>
  404454:	00000000 	nop
/home/git/21373271/21373271/lib/print.c:116

		case 'x':
			if (long_flag) {
  404458:	8fc20030 	lw	v0,48(s8)
  40445c:	00000000 	nop
  404460:	1040000a 	beqz	v0,40448c <vprintfmt+0x50c>
  404464:	00000000 	nop
/home/git/21373271/21373271/lib/print.c:117
				num = va_arg(ap, long int);
  404468:	8fc2005c 	lw	v0,92(s8)
  40446c:	00000000 	nop
  404470:	24430004 	addiu	v1,v0,4
  404474:	afc3005c 	sw	v1,92(s8)
  404478:	8c420000 	lw	v0,0(v0)
  40447c:	00000000 	nop
  404480:	afc20028 	sw	v0,40(s8)
  404484:	10000008 	b	4044a8 <vprintfmt+0x528>
  404488:	00000000 	nop
/home/git/21373271/21373271/lib/print.c:119
			} else {
				num = va_arg(ap, int);
  40448c:	8fc2005c 	lw	v0,92(s8)
  404490:	00000000 	nop
  404494:	24430004 	addiu	v1,v0,4
  404498:	afc3005c 	sw	v1,92(s8)
  40449c:	8c420000 	lw	v0,0(v0)
  4044a0:	00000000 	nop
  4044a4:	afc20028 	sw	v0,40(s8)
/home/git/21373271/21373271/lib/print.c:121
			}
			print_num(out, data, num, 16, 0, width, ladjust, padc, 0);
  4044a8:	8fc30028 	lw	v1,40(s8)
  4044ac:	afa00020 	sw	zero,32(sp)
  4044b0:	83c2003c 	lb	v0,60(s8)
  4044b4:	00000000 	nop
  4044b8:	afa2001c 	sw	v0,28(sp)
  4044bc:	8fc20038 	lw	v0,56(s8)
  4044c0:	00000000 	nop
  4044c4:	afa20018 	sw	v0,24(sp)
  4044c8:	8fc2002c 	lw	v0,44(s8)
  4044cc:	00000000 	nop
  4044d0:	afa20014 	sw	v0,20(sp)
  4044d4:	afa00010 	sw	zero,16(sp)
  4044d8:	24070010 	li	a3,16
  4044dc:	00603025 	move	a2,v1
  4044e0:	8fc50054 	lw	a1,84(s8)
  4044e4:	8fc40050 	lw	a0,80(s8)
  4044e8:	0c101268 	jal	4049a0 <print_num>
  4044ec:	00000000 	nop
/home/git/21373271/21373271/lib/print.c:122
			break;
  4044f0:	1000005b 	b	404660 <vprintfmt+0x6e0>
  4044f4:	00000000 	nop
/home/git/21373271/21373271/lib/print.c:125

		case 'X':
			if (long_flag) {
  4044f8:	8fc20030 	lw	v0,48(s8)
  4044fc:	00000000 	nop
  404500:	1040000a 	beqz	v0,40452c <vprintfmt+0x5ac>
  404504:	00000000 	nop
/home/git/21373271/21373271/lib/print.c:126
				num = va_arg(ap, long int);
  404508:	8fc2005c 	lw	v0,92(s8)
  40450c:	00000000 	nop
  404510:	24430004 	addiu	v1,v0,4
  404514:	afc3005c 	sw	v1,92(s8)
  404518:	8c420000 	lw	v0,0(v0)
  40451c:	00000000 	nop
  404520:	afc20028 	sw	v0,40(s8)
  404524:	10000008 	b	404548 <vprintfmt+0x5c8>
  404528:	00000000 	nop
/home/git/21373271/21373271/lib/print.c:128
			} else {
				num = va_arg(ap, int);
  40452c:	8fc2005c 	lw	v0,92(s8)
  404530:	00000000 	nop
  404534:	24430004 	addiu	v1,v0,4
  404538:	afc3005c 	sw	v1,92(s8)
  40453c:	8c420000 	lw	v0,0(v0)
  404540:	00000000 	nop
  404544:	afc20028 	sw	v0,40(s8)
/home/git/21373271/21373271/lib/print.c:130
			}
			print_num(out, data, num, 16, 0, width, ladjust, padc, 1);
  404548:	8fc30028 	lw	v1,40(s8)
  40454c:	24020001 	li	v0,1
  404550:	afa20020 	sw	v0,32(sp)
  404554:	83c2003c 	lb	v0,60(s8)
  404558:	00000000 	nop
  40455c:	afa2001c 	sw	v0,28(sp)
  404560:	8fc20038 	lw	v0,56(s8)
  404564:	00000000 	nop
  404568:	afa20018 	sw	v0,24(sp)
  40456c:	8fc2002c 	lw	v0,44(s8)
  404570:	00000000 	nop
  404574:	afa20014 	sw	v0,20(sp)
  404578:	afa00010 	sw	zero,16(sp)
  40457c:	24070010 	li	a3,16
  404580:	00603025 	move	a2,v1
  404584:	8fc50054 	lw	a1,84(s8)
  404588:	8fc40050 	lw	a0,80(s8)
  40458c:	0c101268 	jal	4049a0 <print_num>
  404590:	00000000 	nop
/home/git/21373271/21373271/lib/print.c:131
			break;
  404594:	10000032 	b	404660 <vprintfmt+0x6e0>
  404598:	00000000 	nop
/home/git/21373271/21373271/lib/print.c:134

		case 'c':
			c = (char)va_arg(ap, int);
  40459c:	8fc2005c 	lw	v0,92(s8)
  4045a0:	00000000 	nop
  4045a4:	24430004 	addiu	v1,v0,4
  4045a8:	afc3005c 	sw	v1,92(s8)
  4045ac:	8c420000 	lw	v0,0(v0)
  4045b0:	00000000 	nop
  4045b4:	a3c20044 	sb	v0,68(s8)
/home/git/21373271/21373271/lib/print.c:135
			print_char(out, data, c, width, ladjust);
  4045b8:	83c30044 	lb	v1,68(s8)
  4045bc:	8fc20038 	lw	v0,56(s8)
  4045c0:	00000000 	nop
  4045c4:	afa20010 	sw	v0,16(sp)
  4045c8:	8fc7002c 	lw	a3,44(s8)
  4045cc:	00603025 	move	a2,v1
  4045d0:	8fc50054 	lw	a1,84(s8)
  4045d4:	8fc40050 	lw	a0,80(s8)
  4045d8:	0c1011a6 	jal	404698 <print_char>
  4045dc:	00000000 	nop
/home/git/21373271/21373271/lib/print.c:136
			break;
  4045e0:	1000001f 	b	404660 <vprintfmt+0x6e0>
  4045e4:	00000000 	nop
/home/git/21373271/21373271/lib/print.c:139

		case 's':
			s = (char *)va_arg(ap, char *);
  4045e8:	8fc2005c 	lw	v0,92(s8)
  4045ec:	00000000 	nop
  4045f0:	24430004 	addiu	v1,v0,4
  4045f4:	afc3005c 	sw	v1,92(s8)
  4045f8:	8c420000 	lw	v0,0(v0)
  4045fc:	00000000 	nop
  404600:	afc20040 	sw	v0,64(s8)
/home/git/21373271/21373271/lib/print.c:140
			print_str(out, data, s, width, ladjust);
  404604:	8fc20038 	lw	v0,56(s8)
  404608:	00000000 	nop
  40460c:	afa20010 	sw	v0,16(sp)
  404610:	8fc7002c 	lw	a3,44(s8)
  404614:	8fc60040 	lw	a2,64(s8)
  404618:	8fc50054 	lw	a1,84(s8)
  40461c:	8fc40050 	lw	a0,80(s8)
  404620:	0c1011fd 	jal	4047f4 <print_str>
  404624:	00000000 	nop
/home/git/21373271/21373271/lib/print.c:141
			break;
  404628:	1000000d 	b	404660 <vprintfmt+0x6e0>
  40462c:	00000000 	nop
/home/git/21373271/21373271/lib/print.c:144

		case '\0':
			fmt--;
  404630:	8fc20058 	lw	v0,88(s8)
  404634:	00000000 	nop
  404638:	2442ffff 	addiu	v0,v0,-1
  40463c:	afc20058 	sw	v0,88(s8)
/home/git/21373271/21373271/lib/print.c:145
			break;
  404640:	10000007 	b	404660 <vprintfmt+0x6e0>
  404644:	00000000 	nop
/home/git/21373271/21373271/lib/print.c:149

		default:
			/* output this char as it is */
			out(data, fmt, 1);
  404648:	8fc20050 	lw	v0,80(s8)
  40464c:	24060001 	li	a2,1
  404650:	8fc50058 	lw	a1,88(s8)
  404654:	8fc40054 	lw	a0,84(s8)
  404658:	0040f809 	jalr	v0
  40465c:	00000000 	nop
/home/git/21373271/21373271/lib/print.c:151
		}
		fmt++;
  404660:	8fc20058 	lw	v0,88(s8)
  404664:	00000000 	nop
  404668:	24420001 	addiu	v0,v0,1
  40466c:	afc20058 	sw	v0,88(s8)
/home/git/21373271/21373271/lib/print.c:20
		if ( *fmt != '%' )	
  404670:	1000fe4b 	b	403fa0 <vprintfmt+0x20>
  404674:	00000000 	nop
	...
/home/git/21373271/21373271/lib/print.c:153
	}
}
  404680:	03c0e825 	move	sp,s8
  404684:	8fbf004c 	lw	ra,76(sp)
  404688:	8fbe0048 	lw	s8,72(sp)
  40468c:	27bd0050 	addiu	sp,sp,80
  404690:	03e00008 	jr	ra
  404694:	00000000 	nop

00404698 <print_char>:
print_char():
/home/git/21373271/21373271/lib/print.c:156

/* --------------- local help functions --------------------- */
void print_char(fmt_callback_t out, void *data, char c, int length, int ladjust) {
  404698:	27bdffe0 	addiu	sp,sp,-32
  40469c:	afbf001c 	sw	ra,28(sp)
  4046a0:	afbe0018 	sw	s8,24(sp)
  4046a4:	03a0f025 	move	s8,sp
  4046a8:	afc40020 	sw	a0,32(s8)
  4046ac:	afc50024 	sw	a1,36(s8)
  4046b0:	00c01025 	move	v0,a2
  4046b4:	afc7002c 	sw	a3,44(s8)
  4046b8:	a3c20028 	sb	v0,40(s8)
/home/git/21373271/21373271/lib/print.c:159
	int i;

	if (length < 1) {
  4046bc:	8fc2002c 	lw	v0,44(s8)
  4046c0:	00000000 	nop
  4046c4:	1c400003 	bgtz	v0,4046d4 <print_char+0x3c>
  4046c8:	00000000 	nop
/home/git/21373271/21373271/lib/print.c:160
		length = 1;
  4046cc:	24020001 	li	v0,1
  4046d0:	afc2002c 	sw	v0,44(s8)
/home/git/21373271/21373271/lib/print.c:162
	}
	const char space = ' ';
  4046d4:	24020020 	li	v0,32
  4046d8:	a3c20014 	sb	v0,20(s8)
/home/git/21373271/21373271/lib/print.c:163
	if (ladjust) {
  4046dc:	8fc20030 	lw	v0,48(s8)
  4046e0:	00000000 	nop
  4046e4:	1040001f 	beqz	v0,404764 <print_char+0xcc>
  4046e8:	00000000 	nop
/home/git/21373271/21373271/lib/print.c:164
		out(data, &c, 1);
  4046ec:	27c30028 	addiu	v1,s8,40
  4046f0:	8fc20020 	lw	v0,32(s8)
  4046f4:	24060001 	li	a2,1
  4046f8:	00602825 	move	a1,v1
  4046fc:	8fc40024 	lw	a0,36(s8)
  404700:	0040f809 	jalr	v0
  404704:	00000000 	nop
/home/git/21373271/21373271/lib/print.c:165
		for (i = 1; i < length; i++) {
  404708:	24020001 	li	v0,1
  40470c:	afc20010 	sw	v0,16(s8)
  404710:	1000000c 	b	404744 <print_char+0xac>
  404714:	00000000 	nop
/home/git/21373271/21373271/lib/print.c:166 (discriminator 3)
			out(data, &space, 1);
  404718:	27c30014 	addiu	v1,s8,20
  40471c:	8fc20020 	lw	v0,32(s8)
  404720:	24060001 	li	a2,1
  404724:	00602825 	move	a1,v1
  404728:	8fc40024 	lw	a0,36(s8)
  40472c:	0040f809 	jalr	v0
  404730:	00000000 	nop
/home/git/21373271/21373271/lib/print.c:165 (discriminator 3)
		for (i = 1; i < length; i++) {
  404734:	8fc20010 	lw	v0,16(s8)
  404738:	00000000 	nop
  40473c:	24420001 	addiu	v0,v0,1
  404740:	afc20010 	sw	v0,16(s8)
/home/git/21373271/21373271/lib/print.c:165 (discriminator 1)
  404744:	8fc30010 	lw	v1,16(s8)
  404748:	8fc2002c 	lw	v0,44(s8)
  40474c:	00000000 	nop
  404750:	0062102a 	slt	v0,v1,v0
  404754:	1440fff0 	bnez	v0,404718 <print_char+0x80>
  404758:	00000000 	nop
/home/git/21373271/21373271/lib/print.c:174
		for (i = 0; i < length - 1; i++) {
			out(data, &space, 1);
		}
		out(data, &c, 1);
	}
}
  40475c:	1000001e 	b	4047d8 <print_char+0x140>
  404760:	00000000 	nop
/home/git/21373271/21373271/lib/print.c:169
		for (i = 0; i < length - 1; i++) {
  404764:	afc00010 	sw	zero,16(s8)
  404768:	1000000c 	b	40479c <print_char+0x104>
  40476c:	00000000 	nop
/home/git/21373271/21373271/lib/print.c:170 (discriminator 3)
			out(data, &space, 1);
  404770:	27c30014 	addiu	v1,s8,20
  404774:	8fc20020 	lw	v0,32(s8)
  404778:	24060001 	li	a2,1
  40477c:	00602825 	move	a1,v1
  404780:	8fc40024 	lw	a0,36(s8)
  404784:	0040f809 	jalr	v0
  404788:	00000000 	nop
/home/git/21373271/21373271/lib/print.c:169 (discriminator 3)
		for (i = 0; i < length - 1; i++) {
  40478c:	8fc20010 	lw	v0,16(s8)
  404790:	00000000 	nop
  404794:	24420001 	addiu	v0,v0,1
  404798:	afc20010 	sw	v0,16(s8)
/home/git/21373271/21373271/lib/print.c:169 (discriminator 1)
  40479c:	8fc2002c 	lw	v0,44(s8)
  4047a0:	00000000 	nop
  4047a4:	2442ffff 	addiu	v0,v0,-1
  4047a8:	8fc30010 	lw	v1,16(s8)
  4047ac:	00000000 	nop
  4047b0:	0062102a 	slt	v0,v1,v0
  4047b4:	1440ffee 	bnez	v0,404770 <print_char+0xd8>
  4047b8:	00000000 	nop
/home/git/21373271/21373271/lib/print.c:172
		out(data, &c, 1);
  4047bc:	27c30028 	addiu	v1,s8,40
  4047c0:	8fc20020 	lw	v0,32(s8)
  4047c4:	24060001 	li	a2,1
  4047c8:	00602825 	move	a1,v1
  4047cc:	8fc40024 	lw	a0,36(s8)
  4047d0:	0040f809 	jalr	v0
  4047d4:	00000000 	nop
/home/git/21373271/21373271/lib/print.c:174
}
  4047d8:	00000000 	nop
  4047dc:	03c0e825 	move	sp,s8
  4047e0:	8fbf001c 	lw	ra,28(sp)
  4047e4:	8fbe0018 	lw	s8,24(sp)
  4047e8:	27bd0020 	addiu	sp,sp,32
  4047ec:	03e00008 	jr	ra
  4047f0:	00000000 	nop

004047f4 <print_str>:
print_str():
/home/git/21373271/21373271/lib/print.c:176

void print_str(fmt_callback_t out, void *data, const char *s, int length, int ladjust) {
  4047f4:	27bdffd8 	addiu	sp,sp,-40
  4047f8:	afbf0024 	sw	ra,36(sp)
  4047fc:	afbe0020 	sw	s8,32(sp)
  404800:	03a0f025 	move	s8,sp
  404804:	afc40028 	sw	a0,40(s8)
  404808:	afc5002c 	sw	a1,44(s8)
  40480c:	afc60030 	sw	a2,48(s8)
  404810:	afc70034 	sw	a3,52(s8)
/home/git/21373271/21373271/lib/print.c:178
	int i;
	int len = 0;
  404814:	afc00014 	sw	zero,20(s8)
/home/git/21373271/21373271/lib/print.c:179
	const char *s1 = s;
  404818:	8fc20030 	lw	v0,48(s8)
  40481c:	00000000 	nop
  404820:	afc20018 	sw	v0,24(s8)
/home/git/21373271/21373271/lib/print.c:180
	while (*s1++) {
  404824:	10000005 	b	40483c <print_str+0x48>
  404828:	00000000 	nop
/home/git/21373271/21373271/lib/print.c:181
		len++;
  40482c:	8fc20014 	lw	v0,20(s8)
  404830:	00000000 	nop
  404834:	24420001 	addiu	v0,v0,1
  404838:	afc20014 	sw	v0,20(s8)
/home/git/21373271/21373271/lib/print.c:180
	while (*s1++) {
  40483c:	8fc20018 	lw	v0,24(s8)
  404840:	00000000 	nop
  404844:	24430001 	addiu	v1,v0,1
  404848:	afc30018 	sw	v1,24(s8)
  40484c:	80420000 	lb	v0,0(v0)
  404850:	00000000 	nop
  404854:	1440fff5 	bnez	v0,40482c <print_str+0x38>
  404858:	00000000 	nop
/home/git/21373271/21373271/lib/print.c:183
	}
	if (length < len) {
  40485c:	8fc30034 	lw	v1,52(s8)
  404860:	8fc20014 	lw	v0,20(s8)
  404864:	00000000 	nop
  404868:	0062102a 	slt	v0,v1,v0
  40486c:	10400004 	beqz	v0,404880 <print_str+0x8c>
  404870:	00000000 	nop
/home/git/21373271/21373271/lib/print.c:184
		length = len;
  404874:	8fc20014 	lw	v0,20(s8)
  404878:	00000000 	nop
  40487c:	afc20034 	sw	v0,52(s8)
/home/git/21373271/21373271/lib/print.c:187
	}

	if (ladjust) {
  404880:	8fc20038 	lw	v0,56(s8)
  404884:	00000000 	nop
  404888:	10400020 	beqz	v0,40490c <print_str+0x118>
  40488c:	00000000 	nop
/home/git/21373271/21373271/lib/print.c:188
		out(data, s, len);
  404890:	8fc30014 	lw	v1,20(s8)
  404894:	8fc20028 	lw	v0,40(s8)
  404898:	00603025 	move	a2,v1
  40489c:	8fc50030 	lw	a1,48(s8)
  4048a0:	8fc4002c 	lw	a0,44(s8)
  4048a4:	0040f809 	jalr	v0
  4048a8:	00000000 	nop
/home/git/21373271/21373271/lib/print.c:189
		for (i = len; i < length; i++) {
  4048ac:	8fc20014 	lw	v0,20(s8)
  4048b0:	00000000 	nop
  4048b4:	afc20010 	sw	v0,16(s8)
  4048b8:	1000000c 	b	4048ec <print_str+0xf8>
  4048bc:	00000000 	nop
/home/git/21373271/21373271/lib/print.c:190 (discriminator 3)
			out(data, " ", 1);
  4048c0:	8fc20028 	lw	v0,40(s8)
  4048c4:	24060001 	li	a2,1
  4048c8:	3c030040 	lui	v1,0x40
  4048cc:	24657c44 	addiu	a1,v1,31812
  4048d0:	8fc4002c 	lw	a0,44(s8)
  4048d4:	0040f809 	jalr	v0
  4048d8:	00000000 	nop
/home/git/21373271/21373271/lib/print.c:189 (discriminator 3)
		for (i = len; i < length; i++) {
  4048dc:	8fc20010 	lw	v0,16(s8)
  4048e0:	00000000 	nop
  4048e4:	24420001 	addiu	v0,v0,1
  4048e8:	afc20010 	sw	v0,16(s8)
/home/git/21373271/21373271/lib/print.c:189 (discriminator 1)
  4048ec:	8fc30010 	lw	v1,16(s8)
  4048f0:	8fc20034 	lw	v0,52(s8)
  4048f4:	00000000 	nop
  4048f8:	0062102a 	slt	v0,v1,v0
  4048fc:	1440fff0 	bnez	v0,4048c0 <print_str+0xcc>
  404900:	00000000 	nop
/home/git/21373271/21373271/lib/print.c:198
		for (i = 0; i < length - len; i++) {
			out(data, " ", 1);
		}
		out(data, s, len);
	}
}
  404904:	1000001f 	b	404984 <print_str+0x190>
  404908:	00000000 	nop
/home/git/21373271/21373271/lib/print.c:193
		for (i = 0; i < length - len; i++) {
  40490c:	afc00010 	sw	zero,16(s8)
  404910:	1000000c 	b	404944 <print_str+0x150>
  404914:	00000000 	nop
/home/git/21373271/21373271/lib/print.c:194 (discriminator 3)
			out(data, " ", 1);
  404918:	8fc20028 	lw	v0,40(s8)
  40491c:	24060001 	li	a2,1
  404920:	3c030040 	lui	v1,0x40
  404924:	24657c44 	addiu	a1,v1,31812
  404928:	8fc4002c 	lw	a0,44(s8)
  40492c:	0040f809 	jalr	v0
  404930:	00000000 	nop
/home/git/21373271/21373271/lib/print.c:193 (discriminator 3)
		for (i = 0; i < length - len; i++) {
  404934:	8fc20010 	lw	v0,16(s8)
  404938:	00000000 	nop
  40493c:	24420001 	addiu	v0,v0,1
  404940:	afc20010 	sw	v0,16(s8)
/home/git/21373271/21373271/lib/print.c:193 (discriminator 1)
  404944:	8fc30034 	lw	v1,52(s8)
  404948:	8fc20014 	lw	v0,20(s8)
  40494c:	00000000 	nop
  404950:	00621023 	subu	v0,v1,v0
  404954:	8fc30010 	lw	v1,16(s8)
  404958:	00000000 	nop
  40495c:	0062102a 	slt	v0,v1,v0
  404960:	1440ffed 	bnez	v0,404918 <print_str+0x124>
  404964:	00000000 	nop
/home/git/21373271/21373271/lib/print.c:196
		out(data, s, len);
  404968:	8fc30014 	lw	v1,20(s8)
  40496c:	8fc20028 	lw	v0,40(s8)
  404970:	00603025 	move	a2,v1
  404974:	8fc50030 	lw	a1,48(s8)
  404978:	8fc4002c 	lw	a0,44(s8)
  40497c:	0040f809 	jalr	v0
  404980:	00000000 	nop
/home/git/21373271/21373271/lib/print.c:198
}
  404984:	00000000 	nop
  404988:	03c0e825 	move	sp,s8
  40498c:	8fbf0024 	lw	ra,36(sp)
  404990:	8fbe0020 	lw	s8,32(sp)
  404994:	27bd0028 	addiu	sp,sp,40
  404998:	03e00008 	jr	ra
  40499c:	00000000 	nop

004049a0 <print_num>:
print_num():
/home/git/21373271/21373271/lib/print.c:201

void print_num(fmt_callback_t out, void *data, unsigned long u, int base, int neg_flag, int length,
	       int ladjust, char padc, int upcase) {
  4049a0:	27bdffb8 	addiu	sp,sp,-72
  4049a4:	afbf0044 	sw	ra,68(sp)
  4049a8:	afbe0040 	sw	s8,64(sp)
  4049ac:	afb0003c 	sw	s0,60(sp)
  4049b0:	03a0f025 	move	s8,sp
  4049b4:	afc40048 	sw	a0,72(s8)
  4049b8:	afc5004c 	sw	a1,76(s8)
  4049bc:	afc60050 	sw	a2,80(s8)
  4049c0:	afc70054 	sw	a3,84(s8)
  4049c4:	03a02025 	move	a0,sp
  4049c8:	00808025 	move	s0,a0
/home/git/21373271/21373271/lib/print.c:212
	 *		    if negtive, insert  "0" padding between "0" and number.
	 *  3. if (!ladjust) we reverse the whole string including paddings
	 *  4. otherwise we only reverse the actual string representing the num.
	 */

	int actualLength = 0;
  4049cc:	afc00020 	sw	zero,32(s8)
/home/git/21373271/21373271/lib/print.c:213
	char buf[length + 70];
  4049d0:	8fc4005c 	lw	a0,92(s8)
  4049d4:	00000000 	nop
  4049d8:	24840046 	addiu	a0,a0,70
  4049dc:	2485ffff 	addiu	a1,a0,-1
  4049e0:	afc50024 	sw	a1,36(s8)
  4049e4:	00802825 	move	a1,a0
  4049e8:	00a06025 	move	t4,a1
  4049ec:	00006825 	move	t5,zero
  4049f0:	000c2f42 	srl	a1,t4,0x1d
  4049f4:	000d48c0 	sll	t1,t5,0x3
  4049f8:	00a94825 	or	t1,a1,t1
  4049fc:	000c40c0 	sll	t0,t4,0x3
  404a00:	00802825 	move	a1,a0
  404a04:	00a05025 	move	t2,a1
  404a08:	00005825 	move	t3,zero
  404a0c:	000a2f42 	srl	a1,t2,0x1d
  404a10:	000b18c0 	sll	v1,t3,0x3
  404a14:	00a31825 	or	v1,a1,v1
  404a18:	000a10c0 	sll	v0,t2,0x3
  404a1c:	00801025 	move	v0,a0
  404a20:	24420007 	addiu	v0,v0,7
  404a24:	000210c2 	srl	v0,v0,0x3
  404a28:	000210c0 	sll	v0,v0,0x3
  404a2c:	03a2e823 	subu	sp,sp,v0
  404a30:	27a20010 	addiu	v0,sp,16
  404a34:	24420000 	addiu	v0,v0,0
  404a38:	afc20028 	sw	v0,40(s8)
/home/git/21373271/21373271/lib/print.c:214
	char *p = buf;
  404a3c:	8fc20028 	lw	v0,40(s8)
  404a40:	00000000 	nop
  404a44:	afc20010 	sw	v0,16(s8)
/home/git/21373271/21373271/lib/print.c:218
	int i;

	do {
		int tmp = u % base;
  404a48:	8fc20054 	lw	v0,84(s8)
  404a4c:	8fc30050 	lw	v1,80(s8)
  404a50:	00000000 	nop
  404a54:	0062001b 	divu	zero,v1,v0
  404a58:	14400002 	bnez	v0,404a64 <print_num+0xc4>
  404a5c:	00000000 	nop
  404a60:	0007000d 	break	0x7
  404a64:	00001010 	mfhi	v0
  404a68:	afc2002c 	sw	v0,44(s8)
/home/git/21373271/21373271/lib/print.c:219
		if (tmp <= 9) {
  404a6c:	8fc2002c 	lw	v0,44(s8)
  404a70:	00000000 	nop
  404a74:	2842000a 	slti	v0,v0,10
  404a78:	1040000f 	beqz	v0,404ab8 <print_num+0x118>
  404a7c:	00000000 	nop
/home/git/21373271/21373271/lib/print.c:220
			*p++ = '0' + tmp;
  404a80:	8fc2002c 	lw	v0,44(s8)
  404a84:	00000000 	nop
  404a88:	304200ff 	andi	v0,v0,0xff
  404a8c:	24420030 	addiu	v0,v0,48
  404a90:	304400ff 	andi	a0,v0,0xff
  404a94:	8fc20010 	lw	v0,16(s8)
  404a98:	00000000 	nop
  404a9c:	24430001 	addiu	v1,v0,1
  404aa0:	afc30010 	sw	v1,16(s8)
  404aa4:	00041e00 	sll	v1,a0,0x18
  404aa8:	00031e03 	sra	v1,v1,0x18
  404aac:	a0430000 	sb	v1,0(v0)
  404ab0:	1000001f 	b	404b30 <print_num+0x190>
  404ab4:	00000000 	nop
/home/git/21373271/21373271/lib/print.c:221
		} else if (upcase) {
  404ab8:	8fc20068 	lw	v0,104(s8)
  404abc:	00000000 	nop
  404ac0:	1040000f 	beqz	v0,404b00 <print_num+0x160>
  404ac4:	00000000 	nop
/home/git/21373271/21373271/lib/print.c:222
			*p++ = 'A' + tmp - 10;
  404ac8:	8fc2002c 	lw	v0,44(s8)
  404acc:	00000000 	nop
  404ad0:	304200ff 	andi	v0,v0,0xff
  404ad4:	24420037 	addiu	v0,v0,55
  404ad8:	304400ff 	andi	a0,v0,0xff
  404adc:	8fc20010 	lw	v0,16(s8)
  404ae0:	00000000 	nop
  404ae4:	24430001 	addiu	v1,v0,1
  404ae8:	afc30010 	sw	v1,16(s8)
  404aec:	00041e00 	sll	v1,a0,0x18
  404af0:	00031e03 	sra	v1,v1,0x18
  404af4:	a0430000 	sb	v1,0(v0)
  404af8:	1000000d 	b	404b30 <print_num+0x190>
  404afc:	00000000 	nop
/home/git/21373271/21373271/lib/print.c:224
		} else {
			*p++ = 'a' + tmp - 10;
  404b00:	8fc2002c 	lw	v0,44(s8)
  404b04:	00000000 	nop
  404b08:	304200ff 	andi	v0,v0,0xff
  404b0c:	24420057 	addiu	v0,v0,87
  404b10:	304400ff 	andi	a0,v0,0xff
  404b14:	8fc20010 	lw	v0,16(s8)
  404b18:	00000000 	nop
  404b1c:	24430001 	addiu	v1,v0,1
  404b20:	afc30010 	sw	v1,16(s8)
  404b24:	00041e00 	sll	v1,a0,0x18
  404b28:	00031e03 	sra	v1,v1,0x18
  404b2c:	a0430000 	sb	v1,0(v0)
/home/git/21373271/21373271/lib/print.c:226
		}
		u /= base;
  404b30:	8fc20054 	lw	v0,84(s8)
  404b34:	8fc30050 	lw	v1,80(s8)
  404b38:	00000000 	nop
  404b3c:	0062001b 	divu	zero,v1,v0
  404b40:	14400002 	bnez	v0,404b4c <print_num+0x1ac>
  404b44:	00000000 	nop
  404b48:	0007000d 	break	0x7
  404b4c:	00001010 	mfhi	v0
  404b50:	00001012 	mflo	v0
  404b54:	afc20050 	sw	v0,80(s8)
/home/git/21373271/21373271/lib/print.c:227
	} while (u != 0);
  404b58:	8fc20050 	lw	v0,80(s8)
  404b5c:	00000000 	nop
  404b60:	1440ffb9 	bnez	v0,404a48 <print_num+0xa8>
  404b64:	00000000 	nop
/home/git/21373271/21373271/lib/print.c:229

	if (neg_flag) {
  404b68:	8fc20058 	lw	v0,88(s8)
  404b6c:	00000000 	nop
  404b70:	10400007 	beqz	v0,404b90 <print_num+0x1f0>
  404b74:	00000000 	nop
/home/git/21373271/21373271/lib/print.c:230
		*p++ = '-';
  404b78:	8fc20010 	lw	v0,16(s8)
  404b7c:	00000000 	nop
  404b80:	24430001 	addiu	v1,v0,1
  404b84:	afc30010 	sw	v1,16(s8)
  404b88:	2403002d 	li	v1,45
  404b8c:	a0430000 	sb	v1,0(v0)
/home/git/21373271/21373271/lib/print.c:234
	}

	/* figure out actual length and adjust the maximum length */
	actualLength = p - buf;
  404b90:	8fc30010 	lw	v1,16(s8)
  404b94:	8fc20028 	lw	v0,40(s8)
  404b98:	00000000 	nop
  404b9c:	00621023 	subu	v0,v1,v0
  404ba0:	afc20020 	sw	v0,32(s8)
/home/git/21373271/21373271/lib/print.c:235
	if (length < actualLength) {
  404ba4:	8fc3005c 	lw	v1,92(s8)
  404ba8:	8fc20020 	lw	v0,32(s8)
  404bac:	00000000 	nop
  404bb0:	0062102a 	slt	v0,v1,v0
  404bb4:	10400004 	beqz	v0,404bc8 <print_num+0x228>
  404bb8:	00000000 	nop
/home/git/21373271/21373271/lib/print.c:236
		length = actualLength;
  404bbc:	8fc20020 	lw	v0,32(s8)
  404bc0:	00000000 	nop
  404bc4:	afc2005c 	sw	v0,92(s8)
/home/git/21373271/21373271/lib/print.c:240
	}

	/* add padding */
	if (ladjust) {
  404bc8:	8fc20060 	lw	v0,96(s8)
  404bcc:	00000000 	nop
  404bd0:	10400003 	beqz	v0,404be0 <print_num+0x240>
  404bd4:	00000000 	nop
/home/git/21373271/21373271/lib/print.c:241
		padc = ' ';
  404bd8:	24020020 	li	v0,32
  404bdc:	a3c20064 	sb	v0,100(s8)
/home/git/21373271/21373271/lib/print.c:243
	}
	if (neg_flag && !ladjust && (padc == '0')) {
  404be0:	8fc20058 	lw	v0,88(s8)
  404be4:	00000000 	nop
  404be8:	1040002c 	beqz	v0,404c9c <print_num+0x2fc>
  404bec:	00000000 	nop
/home/git/21373271/21373271/lib/print.c:243 (discriminator 1)
  404bf0:	8fc20060 	lw	v0,96(s8)
  404bf4:	00000000 	nop
  404bf8:	14400028 	bnez	v0,404c9c <print_num+0x2fc>
  404bfc:	00000000 	nop
/home/git/21373271/21373271/lib/print.c:243 (discriminator 2)
  404c00:	83c30064 	lb	v1,100(s8)
  404c04:	24020030 	li	v0,48
  404c08:	14620024 	bne	v1,v0,404c9c <print_num+0x2fc>
  404c0c:	00000000 	nop
/home/git/21373271/21373271/lib/print.c:244
		for (i = actualLength - 1; i < length - 1; i++) {
  404c10:	8fc20020 	lw	v0,32(s8)
  404c14:	00000000 	nop
  404c18:	2442ffff 	addiu	v0,v0,-1
  404c1c:	afc20014 	sw	v0,20(s8)
  404c20:	1000000c 	b	404c54 <print_num+0x2b4>
  404c24:	00000000 	nop
/home/git/21373271/21373271/lib/print.c:245 (discriminator 3)
			buf[i] = padc;
  404c28:	8fc30028 	lw	v1,40(s8)
  404c2c:	8fc20014 	lw	v0,20(s8)
  404c30:	00000000 	nop
  404c34:	00621021 	addu	v0,v1,v0
  404c38:	93c30064 	lbu	v1,100(s8)
  404c3c:	00000000 	nop
  404c40:	a0430000 	sb	v1,0(v0)
/home/git/21373271/21373271/lib/print.c:244 (discriminator 3)
		for (i = actualLength - 1; i < length - 1; i++) {
  404c44:	8fc20014 	lw	v0,20(s8)
  404c48:	00000000 	nop
  404c4c:	24420001 	addiu	v0,v0,1
  404c50:	afc20014 	sw	v0,20(s8)
/home/git/21373271/21373271/lib/print.c:244 (discriminator 1)
  404c54:	8fc2005c 	lw	v0,92(s8)
  404c58:	00000000 	nop
  404c5c:	2442ffff 	addiu	v0,v0,-1
  404c60:	8fc30014 	lw	v1,20(s8)
  404c64:	00000000 	nop
  404c68:	0062102a 	slt	v0,v1,v0
  404c6c:	1440ffee 	bnez	v0,404c28 <print_num+0x288>
  404c70:	00000000 	nop
/home/git/21373271/21373271/lib/print.c:247
		}
		buf[length - 1] = '-';
  404c74:	8fc2005c 	lw	v0,92(s8)
  404c78:	00000000 	nop
  404c7c:	2442ffff 	addiu	v0,v0,-1
  404c80:	8fc30028 	lw	v1,40(s8)
  404c84:	00000000 	nop
  404c88:	00621021 	addu	v0,v1,v0
  404c8c:	2403002d 	li	v1,45
  404c90:	a0430000 	sb	v1,0(v0)
  404c94:	10000017 	b	404cf4 <print_num+0x354>
  404c98:	00000000 	nop
/home/git/21373271/21373271/lib/print.c:249
	} else {
		for (i = actualLength; i < length; i++) {
  404c9c:	8fc20020 	lw	v0,32(s8)
  404ca0:	00000000 	nop
  404ca4:	afc20014 	sw	v0,20(s8)
  404ca8:	1000000c 	b	404cdc <print_num+0x33c>
  404cac:	00000000 	nop
/home/git/21373271/21373271/lib/print.c:250 (discriminator 3)
			buf[i] = padc;
  404cb0:	8fc30028 	lw	v1,40(s8)
  404cb4:	8fc20014 	lw	v0,20(s8)
  404cb8:	00000000 	nop
  404cbc:	00621021 	addu	v0,v1,v0
  404cc0:	93c30064 	lbu	v1,100(s8)
  404cc4:	00000000 	nop
  404cc8:	a0430000 	sb	v1,0(v0)
/home/git/21373271/21373271/lib/print.c:249 (discriminator 3)
		for (i = actualLength; i < length; i++) {
  404ccc:	8fc20014 	lw	v0,20(s8)
  404cd0:	00000000 	nop
  404cd4:	24420001 	addiu	v0,v0,1
  404cd8:	afc20014 	sw	v0,20(s8)
/home/git/21373271/21373271/lib/print.c:249 (discriminator 1)
  404cdc:	8fc30014 	lw	v1,20(s8)
  404ce0:	8fc2005c 	lw	v0,92(s8)
  404ce4:	00000000 	nop
  404ce8:	0062102a 	slt	v0,v1,v0
  404cec:	1440fff0 	bnez	v0,404cb0 <print_num+0x310>
  404cf0:	00000000 	nop
/home/git/21373271/21373271/lib/print.c:255
		}
	}

	/* prepare to reverse the string */
	int begin = 0;
  404cf4:	afc00018 	sw	zero,24(s8)
/home/git/21373271/21373271/lib/print.c:257
	int end;
	if (ladjust) {
  404cf8:	8fc20060 	lw	v0,96(s8)
  404cfc:	00000000 	nop
  404d00:	10400007 	beqz	v0,404d20 <print_num+0x380>
  404d04:	00000000 	nop
/home/git/21373271/21373271/lib/print.c:258
		end = actualLength - 1;
  404d08:	8fc20020 	lw	v0,32(s8)
  404d0c:	00000000 	nop
  404d10:	2442ffff 	addiu	v0,v0,-1
  404d14:	afc2001c 	sw	v0,28(s8)
  404d18:	10000027 	b	404db8 <print_num+0x418>
  404d1c:	00000000 	nop
/home/git/21373271/21373271/lib/print.c:260
	} else {
		end = length - 1;
  404d20:	8fc2005c 	lw	v0,92(s8)
  404d24:	00000000 	nop
  404d28:	2442ffff 	addiu	v0,v0,-1
  404d2c:	afc2001c 	sw	v0,28(s8)
/home/git/21373271/21373271/lib/print.c:264
	}

	/* adjust the string pointer */
	while (end > begin) {
  404d30:	10000021 	b	404db8 <print_num+0x418>
  404d34:	00000000 	nop
/home/git/21373271/21373271/lib/print.c:265
		char tmp = buf[begin];
  404d38:	8fc30028 	lw	v1,40(s8)
  404d3c:	8fc20018 	lw	v0,24(s8)
  404d40:	00000000 	nop
  404d44:	00621021 	addu	v0,v1,v0
  404d48:	90420000 	lbu	v0,0(v0)
  404d4c:	00000000 	nop
  404d50:	a3c20030 	sb	v0,48(s8)
/home/git/21373271/21373271/lib/print.c:266
		buf[begin] = buf[end];
  404d54:	8fc30028 	lw	v1,40(s8)
  404d58:	8fc2001c 	lw	v0,28(s8)
  404d5c:	00000000 	nop
  404d60:	00621021 	addu	v0,v1,v0
  404d64:	80430000 	lb	v1,0(v0)
  404d68:	8fc40028 	lw	a0,40(s8)
  404d6c:	8fc20018 	lw	v0,24(s8)
  404d70:	00000000 	nop
  404d74:	00821021 	addu	v0,a0,v0
  404d78:	a0430000 	sb	v1,0(v0)
/home/git/21373271/21373271/lib/print.c:267
		buf[end] = tmp;
  404d7c:	8fc30028 	lw	v1,40(s8)
  404d80:	8fc2001c 	lw	v0,28(s8)
  404d84:	00000000 	nop
  404d88:	00621021 	addu	v0,v1,v0
  404d8c:	93c30030 	lbu	v1,48(s8)
  404d90:	00000000 	nop
  404d94:	a0430000 	sb	v1,0(v0)
/home/git/21373271/21373271/lib/print.c:268
		begin++;
  404d98:	8fc20018 	lw	v0,24(s8)
  404d9c:	00000000 	nop
  404da0:	24420001 	addiu	v0,v0,1
  404da4:	afc20018 	sw	v0,24(s8)
/home/git/21373271/21373271/lib/print.c:269
		end--;
  404da8:	8fc2001c 	lw	v0,28(s8)
  404dac:	00000000 	nop
  404db0:	2442ffff 	addiu	v0,v0,-1
  404db4:	afc2001c 	sw	v0,28(s8)
/home/git/21373271/21373271/lib/print.c:264
	while (end > begin) {
  404db8:	8fc3001c 	lw	v1,28(s8)
  404dbc:	8fc20018 	lw	v0,24(s8)
  404dc0:	00000000 	nop
  404dc4:	0043102a 	slt	v0,v0,v1
  404dc8:	1440ffdb 	bnez	v0,404d38 <print_num+0x398>
  404dcc:	00000000 	nop
/home/git/21373271/21373271/lib/print.c:272
	}

	out(data, buf, length);
  404dd0:	8fc3005c 	lw	v1,92(s8)
  404dd4:	8fc20048 	lw	v0,72(s8)
  404dd8:	00603025 	move	a2,v1
  404ddc:	8fc50028 	lw	a1,40(s8)
  404de0:	8fc4004c 	lw	a0,76(s8)
  404de4:	0040f809 	jalr	v0
  404de8:	00000000 	nop
  404dec:	0200e825 	move	sp,s0
/home/git/21373271/21373271/lib/print.c:273
}
  404df0:	00000000 	nop
  404df4:	03c0e825 	move	sp,s8
  404df8:	8fbf0044 	lw	ra,68(sp)
  404dfc:	8fbe0040 	lw	s8,64(sp)
  404e00:	8fb0003c 	lw	s0,60(sp)
  404e04:	27bd0048 	addiu	sp,sp,72
  404e08:	03e00008 	jr	ra
  404e0c:	00000000 	nop

00404e10 <memcpy>:
memcpy():
/home/git/21373271/21373271/lib/string.c:3
#include <types.h>

void *memcpy(void *dst, const void *src, size_t n) {
  404e10:	27bdfff0 	addiu	sp,sp,-16
  404e14:	afbe000c 	sw	s8,12(sp)
  404e18:	03a0f025 	move	s8,sp
  404e1c:	afc40010 	sw	a0,16(s8)
  404e20:	afc50014 	sw	a1,20(s8)
  404e24:	afc60018 	sw	a2,24(s8)
/home/git/21373271/21373271/lib/string.c:4
	void *dstaddr = dst;
  404e28:	8fc20010 	lw	v0,16(s8)
  404e2c:	00000000 	nop
  404e30:	afc20000 	sw	v0,0(s8)
/home/git/21373271/21373271/lib/string.c:5
	void *max = dst + n;
  404e34:	8fc30010 	lw	v1,16(s8)
  404e38:	8fc20018 	lw	v0,24(s8)
  404e3c:	00000000 	nop
  404e40:	00621021 	addu	v0,v1,v0
  404e44:	afc20004 	sw	v0,4(s8)
/home/git/21373271/21373271/lib/string.c:7

	if (((u_long)src & 3) != ((u_long)dst & 3)) {
  404e48:	8fc30014 	lw	v1,20(s8)
  404e4c:	8fc20010 	lw	v0,16(s8)
  404e50:	00000000 	nop
  404e54:	00621026 	xor	v0,v1,v0
  404e58:	30420003 	andi	v0,v0,0x3
  404e5c:	10400022 	beqz	v0,404ee8 <memcpy+0xd8>
  404e60:	00000000 	nop
/home/git/21373271/21373271/lib/string.c:8
		while (dst < max) {
  404e64:	1000000c 	b	404e98 <memcpy+0x88>
  404e68:	00000000 	nop
/home/git/21373271/21373271/lib/string.c:9
			*(char *)dst++ = *(char *)src++;
  404e6c:	8fc30014 	lw	v1,20(s8)
  404e70:	00000000 	nop
  404e74:	24620001 	addiu	v0,v1,1
  404e78:	afc20014 	sw	v0,20(s8)
  404e7c:	8fc20010 	lw	v0,16(s8)
  404e80:	00000000 	nop
  404e84:	24440001 	addiu	a0,v0,1
  404e88:	afc40010 	sw	a0,16(s8)
  404e8c:	80630000 	lb	v1,0(v1)
  404e90:	00000000 	nop
  404e94:	a0430000 	sb	v1,0(v0)
/home/git/21373271/21373271/lib/string.c:8
		while (dst < max) {
  404e98:	8fc30010 	lw	v1,16(s8)
  404e9c:	8fc20004 	lw	v0,4(s8)
  404ea0:	00000000 	nop
  404ea4:	0062102b 	sltu	v0,v1,v0
  404ea8:	1440fff0 	bnez	v0,404e6c <memcpy+0x5c>
  404eac:	00000000 	nop
/home/git/21373271/21373271/lib/string.c:11
		}
		return dstaddr;
  404eb0:	8fc20000 	lw	v0,0(s8)
  404eb4:	10000043 	b	404fc4 <memcpy+0x1b4>
  404eb8:	00000000 	nop
/home/git/21373271/21373271/lib/string.c:15
	}

	while (((u_long)dst & 3) && dst < max) {
		*(char *)dst++ = *(char *)src++;
  404ebc:	8fc30014 	lw	v1,20(s8)
  404ec0:	00000000 	nop
  404ec4:	24620001 	addiu	v0,v1,1
  404ec8:	afc20014 	sw	v0,20(s8)
  404ecc:	8fc20010 	lw	v0,16(s8)
  404ed0:	00000000 	nop
  404ed4:	24440001 	addiu	a0,v0,1
  404ed8:	afc40010 	sw	a0,16(s8)
  404edc:	80630000 	lb	v1,0(v1)
  404ee0:	00000000 	nop
  404ee4:	a0430000 	sb	v1,0(v0)
/home/git/21373271/21373271/lib/string.c:14
	while (((u_long)dst & 3) && dst < max) {
  404ee8:	8fc20010 	lw	v0,16(s8)
  404eec:	00000000 	nop
  404ef0:	30420003 	andi	v0,v0,0x3
  404ef4:	10400017 	beqz	v0,404f54 <memcpy+0x144>
  404ef8:	00000000 	nop
/home/git/21373271/21373271/lib/string.c:14 (discriminator 1)
  404efc:	8fc30010 	lw	v1,16(s8)
  404f00:	8fc20004 	lw	v0,4(s8)
  404f04:	00000000 	nop
  404f08:	0062102b 	sltu	v0,v1,v0
  404f0c:	1440ffeb 	bnez	v0,404ebc <memcpy+0xac>
  404f10:	00000000 	nop
/home/git/21373271/21373271/lib/string.c:19
	}

	// copy machine words while possible
	while (dst + 4 <= max) {
  404f14:	1000000f 	b	404f54 <memcpy+0x144>
  404f18:	00000000 	nop
/home/git/21373271/21373271/lib/string.c:20
		*(uint32_t *)dst = *(uint32_t *)src;
  404f1c:	8fc20014 	lw	v0,20(s8)
  404f20:	00000000 	nop
  404f24:	8c430000 	lw	v1,0(v0)
  404f28:	8fc20010 	lw	v0,16(s8)
  404f2c:	00000000 	nop
  404f30:	ac430000 	sw	v1,0(v0)
/home/git/21373271/21373271/lib/string.c:21
		dst += 4;
  404f34:	8fc20010 	lw	v0,16(s8)
  404f38:	00000000 	nop
  404f3c:	24420004 	addiu	v0,v0,4
  404f40:	afc20010 	sw	v0,16(s8)
/home/git/21373271/21373271/lib/string.c:22
		src += 4;
  404f44:	8fc20014 	lw	v0,20(s8)
  404f48:	00000000 	nop
  404f4c:	24420004 	addiu	v0,v0,4
  404f50:	afc20014 	sw	v0,20(s8)
/home/git/21373271/21373271/lib/string.c:19
	while (dst + 4 <= max) {
  404f54:	8fc20010 	lw	v0,16(s8)
  404f58:	00000000 	nop
  404f5c:	24420004 	addiu	v0,v0,4
  404f60:	8fc30004 	lw	v1,4(s8)
  404f64:	00000000 	nop
  404f68:	0062102b 	sltu	v0,v1,v0
  404f6c:	1040ffeb 	beqz	v0,404f1c <memcpy+0x10c>
  404f70:	00000000 	nop
/home/git/21373271/21373271/lib/string.c:26
	}

	// finish the remaining 0-3 bytes
	while (dst < max) {
  404f74:	1000000c 	b	404fa8 <memcpy+0x198>
  404f78:	00000000 	nop
/home/git/21373271/21373271/lib/string.c:27
		*(char *)dst++ = *(char *)src++;
  404f7c:	8fc30014 	lw	v1,20(s8)
  404f80:	00000000 	nop
  404f84:	24620001 	addiu	v0,v1,1
  404f88:	afc20014 	sw	v0,20(s8)
  404f8c:	8fc20010 	lw	v0,16(s8)
  404f90:	00000000 	nop
  404f94:	24440001 	addiu	a0,v0,1
  404f98:	afc40010 	sw	a0,16(s8)
  404f9c:	80630000 	lb	v1,0(v1)
  404fa0:	00000000 	nop
  404fa4:	a0430000 	sb	v1,0(v0)
/home/git/21373271/21373271/lib/string.c:26
	while (dst < max) {
  404fa8:	8fc30010 	lw	v1,16(s8)
  404fac:	8fc20004 	lw	v0,4(s8)
  404fb0:	00000000 	nop
  404fb4:	0062102b 	sltu	v0,v1,v0
  404fb8:	1440fff0 	bnez	v0,404f7c <memcpy+0x16c>
  404fbc:	00000000 	nop
/home/git/21373271/21373271/lib/string.c:29
	}
	return dstaddr;
  404fc0:	8fc20000 	lw	v0,0(s8)
/home/git/21373271/21373271/lib/string.c:30
}
  404fc4:	03c0e825 	move	sp,s8
  404fc8:	8fbe000c 	lw	s8,12(sp)
  404fcc:	27bd0010 	addiu	sp,sp,16
  404fd0:	03e00008 	jr	ra
  404fd4:	00000000 	nop

00404fd8 <memset>:
memset():
/home/git/21373271/21373271/lib/string.c:32

void *memset(void *dst, int c, size_t n) {
  404fd8:	27bdffe8 	addiu	sp,sp,-24
  404fdc:	afbe0014 	sw	s8,20(sp)
  404fe0:	03a0f025 	move	s8,sp
  404fe4:	afc40018 	sw	a0,24(s8)
  404fe8:	afc5001c 	sw	a1,28(s8)
  404fec:	afc60020 	sw	a2,32(s8)
/home/git/21373271/21373271/lib/string.c:33
	void *dstaddr = dst;
  404ff0:	8fc20018 	lw	v0,24(s8)
  404ff4:	00000000 	nop
  404ff8:	afc20000 	sw	v0,0(s8)
/home/git/21373271/21373271/lib/string.c:34
	void *max = dst + n;
  404ffc:	8fc30018 	lw	v1,24(s8)
  405000:	8fc20020 	lw	v0,32(s8)
  405004:	00000000 	nop
  405008:	00621021 	addu	v0,v1,v0
  40500c:	afc20004 	sw	v0,4(s8)
/home/git/21373271/21373271/lib/string.c:35
	u_char byte = c & 0xff;
  405010:	8fc2001c 	lw	v0,28(s8)
  405014:	00000000 	nop
  405018:	a3c20008 	sb	v0,8(s8)
/home/git/21373271/21373271/lib/string.c:36
	uint32_t word = byte | byte << 8 | byte << 16 | byte << 24;
  40501c:	93c30008 	lbu	v1,8(s8)
  405020:	93c20008 	lbu	v0,8(s8)
  405024:	00000000 	nop
  405028:	00021200 	sll	v0,v0,0x8
  40502c:	00621825 	or	v1,v1,v0
  405030:	93c20008 	lbu	v0,8(s8)
  405034:	00000000 	nop
  405038:	00021400 	sll	v0,v0,0x10
  40503c:	00621825 	or	v1,v1,v0
  405040:	93c20008 	lbu	v0,8(s8)
  405044:	00000000 	nop
  405048:	00021600 	sll	v0,v0,0x18
  40504c:	00621025 	or	v0,v1,v0
  405050:	afc2000c 	sw	v0,12(s8)
/home/git/21373271/21373271/lib/string.c:38

	while (((u_long)dst & 3) && dst < max) {
  405054:	10000008 	b	405078 <memset+0xa0>
  405058:	00000000 	nop
/home/git/21373271/21373271/lib/string.c:39
		*(u_char *)dst++ = byte;
  40505c:	8fc20018 	lw	v0,24(s8)
  405060:	00000000 	nop
  405064:	24430001 	addiu	v1,v0,1
  405068:	afc30018 	sw	v1,24(s8)
  40506c:	93c30008 	lbu	v1,8(s8)
  405070:	00000000 	nop
  405074:	a0430000 	sb	v1,0(v0)
/home/git/21373271/21373271/lib/string.c:38
	while (((u_long)dst & 3) && dst < max) {
  405078:	8fc20018 	lw	v0,24(s8)
  40507c:	00000000 	nop
  405080:	30420003 	andi	v0,v0,0x3
  405084:	10400011 	beqz	v0,4050cc <memset+0xf4>
  405088:	00000000 	nop
/home/git/21373271/21373271/lib/string.c:38 (discriminator 1)
  40508c:	8fc30018 	lw	v1,24(s8)
  405090:	8fc20004 	lw	v0,4(s8)
  405094:	00000000 	nop
  405098:	0062102b 	sltu	v0,v1,v0
  40509c:	1440ffef 	bnez	v0,40505c <memset+0x84>
  4050a0:	00000000 	nop
/home/git/21373271/21373271/lib/string.c:43
	}

	// fill machine words while possible
	while (dst + 4 <= max) {
  4050a4:	10000009 	b	4050cc <memset+0xf4>
  4050a8:	00000000 	nop
/home/git/21373271/21373271/lib/string.c:44
		*(uint32_t *)dst = word;
  4050ac:	8fc20018 	lw	v0,24(s8)
  4050b0:	8fc3000c 	lw	v1,12(s8)
  4050b4:	00000000 	nop
  4050b8:	ac430000 	sw	v1,0(v0)
/home/git/21373271/21373271/lib/string.c:45
		dst += 4;
  4050bc:	8fc20018 	lw	v0,24(s8)
  4050c0:	00000000 	nop
  4050c4:	24420004 	addiu	v0,v0,4
  4050c8:	afc20018 	sw	v0,24(s8)
/home/git/21373271/21373271/lib/string.c:43
	while (dst + 4 <= max) {
  4050cc:	8fc20018 	lw	v0,24(s8)
  4050d0:	00000000 	nop
  4050d4:	24420004 	addiu	v0,v0,4
  4050d8:	8fc30004 	lw	v1,4(s8)
  4050dc:	00000000 	nop
  4050e0:	0062102b 	sltu	v0,v1,v0
  4050e4:	1040fff1 	beqz	v0,4050ac <memset+0xd4>
  4050e8:	00000000 	nop
/home/git/21373271/21373271/lib/string.c:49
	}

	// finish the remaining 0-3 bytes
	while (dst < max) {
  4050ec:	10000008 	b	405110 <memset+0x138>
  4050f0:	00000000 	nop
/home/git/21373271/21373271/lib/string.c:50
		*(u_char *)dst++ = byte;
  4050f4:	8fc20018 	lw	v0,24(s8)
  4050f8:	00000000 	nop
  4050fc:	24430001 	addiu	v1,v0,1
  405100:	afc30018 	sw	v1,24(s8)
  405104:	93c30008 	lbu	v1,8(s8)
  405108:	00000000 	nop
  40510c:	a0430000 	sb	v1,0(v0)
/home/git/21373271/21373271/lib/string.c:49
	while (dst < max) {
  405110:	8fc30018 	lw	v1,24(s8)
  405114:	8fc20004 	lw	v0,4(s8)
  405118:	00000000 	nop
  40511c:	0062102b 	sltu	v0,v1,v0
  405120:	1440fff4 	bnez	v0,4050f4 <memset+0x11c>
  405124:	00000000 	nop
/home/git/21373271/21373271/lib/string.c:52
	}
	return dstaddr;
  405128:	8fc20000 	lw	v0,0(s8)
/home/git/21373271/21373271/lib/string.c:53
}
  40512c:	03c0e825 	move	sp,s8
  405130:	8fbe0014 	lw	s8,20(sp)
  405134:	27bd0018 	addiu	sp,sp,24
  405138:	03e00008 	jr	ra
  40513c:	00000000 	nop

00405140 <strlen>:
strlen():
/home/git/21373271/21373271/lib/string.c:55

size_t strlen(const char *s) {
  405140:	27bdfff0 	addiu	sp,sp,-16
  405144:	afbe000c 	sw	s8,12(sp)
  405148:	03a0f025 	move	s8,sp
  40514c:	afc40010 	sw	a0,16(s8)
/home/git/21373271/21373271/lib/string.c:58
	int n;

	for (n = 0; *s; s++) {
  405150:	afc00000 	sw	zero,0(s8)
  405154:	10000009 	b	40517c <strlen+0x3c>
  405158:	00000000 	nop
/home/git/21373271/21373271/lib/string.c:59 (discriminator 3)
		n++;
  40515c:	8fc20000 	lw	v0,0(s8)
  405160:	00000000 	nop
  405164:	24420001 	addiu	v0,v0,1
  405168:	afc20000 	sw	v0,0(s8)
/home/git/21373271/21373271/lib/string.c:58 (discriminator 3)
	for (n = 0; *s; s++) {
  40516c:	8fc20010 	lw	v0,16(s8)
  405170:	00000000 	nop
  405174:	24420001 	addiu	v0,v0,1
  405178:	afc20010 	sw	v0,16(s8)
/home/git/21373271/21373271/lib/string.c:58 (discriminator 1)
  40517c:	8fc20010 	lw	v0,16(s8)
  405180:	00000000 	nop
  405184:	80420000 	lb	v0,0(v0)
  405188:	00000000 	nop
  40518c:	1440fff3 	bnez	v0,40515c <strlen+0x1c>
  405190:	00000000 	nop
/home/git/21373271/21373271/lib/string.c:62
	}

	return n;
  405194:	8fc20000 	lw	v0,0(s8)
/home/git/21373271/21373271/lib/string.c:63
}
  405198:	03c0e825 	move	sp,s8
  40519c:	8fbe000c 	lw	s8,12(sp)
  4051a0:	27bd0010 	addiu	sp,sp,16
  4051a4:	03e00008 	jr	ra
  4051a8:	00000000 	nop

004051ac <strcpy>:
strcpy():
/home/git/21373271/21373271/lib/string.c:65

char *strcpy(char *dst, const char *src) {
  4051ac:	27bdfff0 	addiu	sp,sp,-16
  4051b0:	afbe000c 	sw	s8,12(sp)
  4051b4:	03a0f025 	move	s8,sp
  4051b8:	afc40010 	sw	a0,16(s8)
  4051bc:	afc50014 	sw	a1,20(s8)
/home/git/21373271/21373271/lib/string.c:66
	char *ret = dst;
  4051c0:	8fc20010 	lw	v0,16(s8)
  4051c4:	00000000 	nop
  4051c8:	afc20000 	sw	v0,0(s8)
/home/git/21373271/21373271/lib/string.c:68

	while ((*dst++ = *src++) != 0) {
  4051cc:	00000000 	nop
/home/git/21373271/21373271/lib/string.c:68 (discriminator 1)
  4051d0:	8fc30014 	lw	v1,20(s8)
  4051d4:	00000000 	nop
  4051d8:	24620001 	addiu	v0,v1,1
  4051dc:	afc20014 	sw	v0,20(s8)
  4051e0:	8fc20010 	lw	v0,16(s8)
  4051e4:	00000000 	nop
  4051e8:	24440001 	addiu	a0,v0,1
  4051ec:	afc40010 	sw	a0,16(s8)
  4051f0:	80630000 	lb	v1,0(v1)
  4051f4:	00000000 	nop
  4051f8:	a0430000 	sb	v1,0(v0)
  4051fc:	80420000 	lb	v0,0(v0)
  405200:	00000000 	nop
  405204:	1440fff2 	bnez	v0,4051d0 <strcpy+0x24>
  405208:	00000000 	nop
/home/git/21373271/21373271/lib/string.c:71
	}

	return ret;
  40520c:	8fc20000 	lw	v0,0(s8)
/home/git/21373271/21373271/lib/string.c:72
}
  405210:	03c0e825 	move	sp,s8
  405214:	8fbe000c 	lw	s8,12(sp)
  405218:	27bd0010 	addiu	sp,sp,16
  40521c:	03e00008 	jr	ra
  405220:	00000000 	nop

00405224 <strchr>:
strchr():
/home/git/21373271/21373271/lib/string.c:74

const char *strchr(const char *s, int c) {
  405224:	27bdfff8 	addiu	sp,sp,-8
  405228:	afbe0004 	sw	s8,4(sp)
  40522c:	03a0f025 	move	s8,sp
  405230:	afc40008 	sw	a0,8(s8)
  405234:	afc5000c 	sw	a1,12(s8)
/home/git/21373271/21373271/lib/string.c:75
	for (; *s; s++) {
  405238:	10000011 	b	405280 <strchr+0x5c>
  40523c:	00000000 	nop
/home/git/21373271/21373271/lib/string.c:76
		if (*s == c) {
  405240:	8fc20008 	lw	v0,8(s8)
  405244:	00000000 	nop
  405248:	80420000 	lb	v0,0(v0)
  40524c:	00000000 	nop
  405250:	00401825 	move	v1,v0
  405254:	8fc2000c 	lw	v0,12(s8)
  405258:	00000000 	nop
  40525c:	14430004 	bne	v0,v1,405270 <strchr+0x4c>
  405260:	00000000 	nop
/home/git/21373271/21373271/lib/string.c:77
			return s;
  405264:	8fc20008 	lw	v0,8(s8)
  405268:	1000000c 	b	40529c <strchr+0x78>
  40526c:	00000000 	nop
/home/git/21373271/21373271/lib/string.c:75
	for (; *s; s++) {
  405270:	8fc20008 	lw	v0,8(s8)
  405274:	00000000 	nop
  405278:	24420001 	addiu	v0,v0,1
  40527c:	afc20008 	sw	v0,8(s8)
/home/git/21373271/21373271/lib/string.c:75 (discriminator 1)
  405280:	8fc20008 	lw	v0,8(s8)
  405284:	00000000 	nop
  405288:	80420000 	lb	v0,0(v0)
  40528c:	00000000 	nop
  405290:	1440ffeb 	bnez	v0,405240 <strchr+0x1c>
  405294:	00000000 	nop
/home/git/21373271/21373271/lib/string.c:80
		}
	}
	return 0;
  405298:	00001025 	move	v0,zero
/home/git/21373271/21373271/lib/string.c:81
}
  40529c:	03c0e825 	move	sp,s8
  4052a0:	8fbe0004 	lw	s8,4(sp)
  4052a4:	27bd0008 	addiu	sp,sp,8
  4052a8:	03e00008 	jr	ra
  4052ac:	00000000 	nop

004052b0 <strcmp>:
strcmp():
/home/git/21373271/21373271/lib/string.c:83

int strcmp(const char *p, const char *q) {
  4052b0:	27bdfff8 	addiu	sp,sp,-8
  4052b4:	afbe0004 	sw	s8,4(sp)
  4052b8:	03a0f025 	move	s8,sp
  4052bc:	afc40008 	sw	a0,8(s8)
  4052c0:	afc5000c 	sw	a1,12(s8)
/home/git/21373271/21373271/lib/string.c:84
	while (*p && *p == *q) {
  4052c4:	10000009 	b	4052ec <strcmp+0x3c>
  4052c8:	00000000 	nop
/home/git/21373271/21373271/lib/string.c:85
		p++, q++;
  4052cc:	8fc20008 	lw	v0,8(s8)
  4052d0:	00000000 	nop
  4052d4:	24420001 	addiu	v0,v0,1
  4052d8:	afc20008 	sw	v0,8(s8)
  4052dc:	8fc2000c 	lw	v0,12(s8)
  4052e0:	00000000 	nop
  4052e4:	24420001 	addiu	v0,v0,1
  4052e8:	afc2000c 	sw	v0,12(s8)
/home/git/21373271/21373271/lib/string.c:84
	while (*p && *p == *q) {
  4052ec:	8fc20008 	lw	v0,8(s8)
  4052f0:	00000000 	nop
  4052f4:	80420000 	lb	v0,0(v0)
  4052f8:	00000000 	nop
  4052fc:	1040000a 	beqz	v0,405328 <strcmp+0x78>
  405300:	00000000 	nop
/home/git/21373271/21373271/lib/string.c:84 (discriminator 1)
  405304:	8fc20008 	lw	v0,8(s8)
  405308:	00000000 	nop
  40530c:	80430000 	lb	v1,0(v0)
  405310:	8fc2000c 	lw	v0,12(s8)
  405314:	00000000 	nop
  405318:	80420000 	lb	v0,0(v0)
  40531c:	00000000 	nop
  405320:	1062ffea 	beq	v1,v0,4052cc <strcmp+0x1c>
  405324:	00000000 	nop
/home/git/21373271/21373271/lib/string.c:88
	}

	if ((u_int)*p < (u_int)*q) {
  405328:	8fc20008 	lw	v0,8(s8)
  40532c:	00000000 	nop
  405330:	80420000 	lb	v0,0(v0)
  405334:	00000000 	nop
  405338:	304300ff 	andi	v1,v0,0xff
  40533c:	8fc2000c 	lw	v0,12(s8)
  405340:	00000000 	nop
  405344:	80420000 	lb	v0,0(v0)
  405348:	00000000 	nop
  40534c:	304200ff 	andi	v0,v0,0xff
  405350:	0062102b 	sltu	v0,v1,v0
  405354:	10400004 	beqz	v0,405368 <strcmp+0xb8>
  405358:	00000000 	nop
/home/git/21373271/21373271/lib/string.c:89
		return -1;
  40535c:	2402ffff 	li	v0,-1
  405360:	10000012 	b	4053ac <strcmp+0xfc>
  405364:	00000000 	nop
/home/git/21373271/21373271/lib/string.c:92
	}

	if ((u_int)*p > (u_int)*q) {
  405368:	8fc20008 	lw	v0,8(s8)
  40536c:	00000000 	nop
  405370:	80420000 	lb	v0,0(v0)
  405374:	00000000 	nop
  405378:	304300ff 	andi	v1,v0,0xff
  40537c:	8fc2000c 	lw	v0,12(s8)
  405380:	00000000 	nop
  405384:	80420000 	lb	v0,0(v0)
  405388:	00000000 	nop
  40538c:	304200ff 	andi	v0,v0,0xff
  405390:	0043102b 	sltu	v0,v0,v1
  405394:	10400004 	beqz	v0,4053a8 <strcmp+0xf8>
  405398:	00000000 	nop
/home/git/21373271/21373271/lib/string.c:93
		return 1;
  40539c:	24020001 	li	v0,1
  4053a0:	10000002 	b	4053ac <strcmp+0xfc>
  4053a4:	00000000 	nop
/home/git/21373271/21373271/lib/string.c:96
	}

	return 0;
  4053a8:	00001025 	move	v0,zero
/home/git/21373271/21373271/lib/string.c:97
}
  4053ac:	03c0e825 	move	sp,s8
  4053b0:	8fbe0004 	lw	s8,4(sp)
  4053b4:	27bd0008 	addiu	sp,sp,8
  4053b8:	03e00008 	jr	ra
  4053bc:	00000000 	nop

004053c0 <diskaddr>:
diskaddr():
/home/git/21373271/21373271/fs/fs.c:14
  4053c0:	27bdfff8 	addiu	sp,sp,-8
  4053c4:	afbe0004 	sw	s8,4(sp)
  4053c8:	03a0f025 	move	s8,sp
  4053cc:	afc40008 	sw	a0,8(s8)
/home/git/21373271/21373271/fs/fs.c:16
  4053d0:	8fc30008 	lw	v1,8(s8)
  4053d4:	3c020001 	lui	v0,0x1
  4053d8:	00621021 	addu	v0,v1,v0
  4053dc:	00021300 	sll	v0,v0,0xc
/home/git/21373271/21373271/fs/fs.c:17
  4053e0:	03c0e825 	move	sp,s8
  4053e4:	8fbe0004 	lw	s8,4(sp)
  4053e8:	27bd0008 	addiu	sp,sp,8
  4053ec:	03e00008 	jr	ra
  4053f0:	00000000 	nop

004053f4 <va_is_mapped>:
va_is_mapped():
/home/git/21373271/21373271/fs/fs.c:21
  4053f4:	27bdfff8 	addiu	sp,sp,-8
  4053f8:	afbe0004 	sw	s8,4(sp)
  4053fc:	03a0f025 	move	s8,sp
  405400:	afc40008 	sw	a0,8(s8)
/home/git/21373271/21373271/fs/fs.c:22
  405404:	8fc20008 	lw	v0,8(s8)
  405408:	00000000 	nop
  40540c:	00021582 	srl	v0,v0,0x16
  405410:	00021880 	sll	v1,v0,0x2
  405414:	3c027fdf 	lui	v0,0x7fdf
  405418:	3442f000 	ori	v0,v0,0xf000
  40541c:	00621021 	addu	v0,v1,v0
  405420:	8c420000 	lw	v0,0(v0)
  405424:	00000000 	nop
  405428:	30420200 	andi	v0,v0,0x200
  40542c:	1040000f 	beqz	v0,40546c <va_is_mapped+0x78>
  405430:	00000000 	nop
/home/git/21373271/21373271/fs/fs.c:22 (discriminator 1)
  405434:	8fc20008 	lw	v0,8(s8)
  405438:	00000000 	nop
  40543c:	00021302 	srl	v0,v0,0xc
  405440:	00021880 	sll	v1,v0,0x2
  405444:	3c027fc0 	lui	v0,0x7fc0
  405448:	00621021 	addu	v0,v1,v0
  40544c:	8c420000 	lw	v0,0(v0)
  405450:	00000000 	nop
  405454:	30420200 	andi	v0,v0,0x200
  405458:	10400004 	beqz	v0,40546c <va_is_mapped+0x78>
  40545c:	00000000 	nop
/home/git/21373271/21373271/fs/fs.c:22 (discriminator 3)
  405460:	24020001 	li	v0,1
  405464:	10000002 	b	405470 <va_is_mapped+0x7c>
  405468:	00000000 	nop
/home/git/21373271/21373271/fs/fs.c:22 (discriminator 4)
  40546c:	00001025 	move	v0,zero
/home/git/21373271/21373271/fs/fs.c:23 (discriminator 7)
  405470:	03c0e825 	move	sp,s8
  405474:	8fbe0004 	lw	s8,4(sp)
  405478:	27bd0008 	addiu	sp,sp,8
  40547c:	03e00008 	jr	ra
  405480:	00000000 	nop

00405484 <block_is_mapped>:
block_is_mapped():
/home/git/21373271/21373271/fs/fs.c:28
  405484:	27bdffe0 	addiu	sp,sp,-32
  405488:	afbf001c 	sw	ra,28(sp)
  40548c:	afbe0018 	sw	s8,24(sp)
  405490:	03a0f025 	move	s8,sp
  405494:	afc40020 	sw	a0,32(s8)
/home/git/21373271/21373271/fs/fs.c:29
  405498:	8fc40020 	lw	a0,32(s8)
  40549c:	0c1014f0 	jal	4053c0 <diskaddr>
  4054a0:	00000000 	nop
  4054a4:	afc20010 	sw	v0,16(s8)
/home/git/21373271/21373271/fs/fs.c:30
  4054a8:	8fc40010 	lw	a0,16(s8)
  4054ac:	0c1014fd 	jal	4053f4 <va_is_mapped>
  4054b0:	00000000 	nop
  4054b4:	10400004 	beqz	v0,4054c8 <block_is_mapped+0x44>
  4054b8:	00000000 	nop
/home/git/21373271/21373271/fs/fs.c:31
  4054bc:	8fc20010 	lw	v0,16(s8)
  4054c0:	10000002 	b	4054cc <block_is_mapped+0x48>
  4054c4:	00000000 	nop
/home/git/21373271/21373271/fs/fs.c:33
  4054c8:	00001025 	move	v0,zero
/home/git/21373271/21373271/fs/fs.c:34
  4054cc:	03c0e825 	move	sp,s8
  4054d0:	8fbf001c 	lw	ra,28(sp)
  4054d4:	8fbe0018 	lw	s8,24(sp)
  4054d8:	27bd0020 	addiu	sp,sp,32
  4054dc:	03e00008 	jr	ra
  4054e0:	00000000 	nop

004054e4 <va_is_dirty>:
va_is_dirty():
/home/git/21373271/21373271/fs/fs.c:38
  4054e4:	27bdfff8 	addiu	sp,sp,-8
  4054e8:	afbe0004 	sw	s8,4(sp)
  4054ec:	03a0f025 	move	s8,sp
  4054f0:	afc40008 	sw	a0,8(s8)
/home/git/21373271/21373271/fs/fs.c:39
  4054f4:	8fc20008 	lw	v0,8(s8)
  4054f8:	00000000 	nop
  4054fc:	00021302 	srl	v0,v0,0xc
  405500:	00021880 	sll	v1,v0,0x2
  405504:	3c027fc0 	lui	v0,0x7fc0
  405508:	00621021 	addu	v0,v1,v0
  40550c:	8c420000 	lw	v0,0(v0)
  405510:	00000000 	nop
  405514:	30420002 	andi	v0,v0,0x2
/home/git/21373271/21373271/fs/fs.c:40
  405518:	03c0e825 	move	sp,s8
  40551c:	8fbe0004 	lw	s8,4(sp)
  405520:	27bd0008 	addiu	sp,sp,8
  405524:	03e00008 	jr	ra
  405528:	00000000 	nop

0040552c <block_is_dirty>:
block_is_dirty():
/home/git/21373271/21373271/fs/fs.c:44
  40552c:	27bdffe0 	addiu	sp,sp,-32
  405530:	afbf001c 	sw	ra,28(sp)
  405534:	afbe0018 	sw	s8,24(sp)
  405538:	03a0f025 	move	s8,sp
  40553c:	afc40020 	sw	a0,32(s8)
/home/git/21373271/21373271/fs/fs.c:45
  405540:	8fc40020 	lw	a0,32(s8)
  405544:	0c1014f0 	jal	4053c0 <diskaddr>
  405548:	00000000 	nop
  40554c:	afc20010 	sw	v0,16(s8)
/home/git/21373271/21373271/fs/fs.c:46
  405550:	8fc40010 	lw	a0,16(s8)
  405554:	0c1014fd 	jal	4053f4 <va_is_mapped>
  405558:	00000000 	nop
  40555c:	10400009 	beqz	v0,405584 <block_is_dirty+0x58>
  405560:	00000000 	nop
/home/git/21373271/21373271/fs/fs.c:46 (discriminator 1)
  405564:	8fc40010 	lw	a0,16(s8)
  405568:	0c101539 	jal	4054e4 <va_is_dirty>
  40556c:	00000000 	nop
  405570:	10400004 	beqz	v0,405584 <block_is_dirty+0x58>
  405574:	00000000 	nop
/home/git/21373271/21373271/fs/fs.c:46 (discriminator 3)
  405578:	24020001 	li	v0,1
  40557c:	10000002 	b	405588 <block_is_dirty+0x5c>
  405580:	00000000 	nop
/home/git/21373271/21373271/fs/fs.c:46 (discriminator 4)
  405584:	00001025 	move	v0,zero
/home/git/21373271/21373271/fs/fs.c:47 (discriminator 7)
  405588:	03c0e825 	move	sp,s8
  40558c:	8fbf001c 	lw	ra,28(sp)
  405590:	8fbe0018 	lw	s8,24(sp)
  405594:	27bd0020 	addiu	sp,sp,32
  405598:	03e00008 	jr	ra
  40559c:	00000000 	nop

004055a0 <dirty_block>:
dirty_block():
/home/git/21373271/21373271/fs/fs.c:51
  4055a0:	27bdffd8 	addiu	sp,sp,-40
  4055a4:	afbf0024 	sw	ra,36(sp)
  4055a8:	afbe0020 	sw	s8,32(sp)
  4055ac:	03a0f025 	move	s8,sp
  4055b0:	afc40028 	sw	a0,40(s8)
/home/git/21373271/21373271/fs/fs.c:52
  4055b4:	8fc40028 	lw	a0,40(s8)
  4055b8:	0c1014f0 	jal	4053c0 <diskaddr>
  4055bc:	00000000 	nop
  4055c0:	afc20018 	sw	v0,24(s8)
/home/git/21373271/21373271/fs/fs.c:54
  4055c4:	8fc40018 	lw	a0,24(s8)
  4055c8:	0c1014fd 	jal	4053f4 <va_is_mapped>
  4055cc:	00000000 	nop
  4055d0:	14400004 	bnez	v0,4055e4 <dirty_block+0x44>
  4055d4:	00000000 	nop
/home/git/21373271/21373271/fs/fs.c:55
  4055d8:	2402fff6 	li	v0,-10
  4055dc:	10000011 	b	405624 <dirty_block+0x84>
  4055e0:	00000000 	nop
/home/git/21373271/21373271/fs/fs.c:58
  4055e4:	8fc40018 	lw	a0,24(s8)
  4055e8:	0c101539 	jal	4054e4 <va_is_dirty>
  4055ec:	00000000 	nop
  4055f0:	10400004 	beqz	v0,405604 <dirty_block+0x64>
  4055f4:	00000000 	nop
/home/git/21373271/21373271/fs/fs.c:59
  4055f8:	00001025 	move	v0,zero
  4055fc:	10000009 	b	405624 <dirty_block+0x84>
  405600:	00000000 	nop
/home/git/21373271/21373271/fs/fs.c:62
  405604:	24020402 	li	v0,1026
  405608:	afa20010 	sw	v0,16(sp)
  40560c:	8fc70018 	lw	a3,24(s8)
  405610:	00003025 	move	a2,zero
  405614:	8fc50018 	lw	a1,24(s8)
  405618:	00002025 	move	a0,zero
  40561c:	0c100577 	jal	4015dc <syscall_mem_map>
  405620:	00000000 	nop
/home/git/21373271/21373271/fs/fs.c:63
  405624:	03c0e825 	move	sp,s8
  405628:	8fbf0024 	lw	ra,36(sp)
  40562c:	8fbe0020 	lw	s8,32(sp)
  405630:	27bd0028 	addiu	sp,sp,40
  405634:	03e00008 	jr	ra
  405638:	00000000 	nop

0040563c <write_block>:
write_block():
/home/git/21373271/21373271/fs/fs.c:67
  40563c:	27bdffe0 	addiu	sp,sp,-32
  405640:	afbf001c 	sw	ra,28(sp)
  405644:	afbe0018 	sw	s8,24(sp)
  405648:	03a0f025 	move	s8,sp
  40564c:	afc40020 	sw	a0,32(s8)
/home/git/21373271/21373271/fs/fs.c:69
  405650:	8fc40020 	lw	a0,32(s8)
  405654:	0c101521 	jal	405484 <block_is_mapped>
  405658:	00000000 	nop
  40565c:	14400009 	bnez	v0,405684 <write_block+0x48>
  405660:	00000000 	nop
/home/git/21373271/21373271/fs/fs.c:70
  405664:	8fc70020 	lw	a3,32(s8)
  405668:	3c020040 	lui	v0,0x40
  40566c:	24467c50 	addiu	a2,v0,31824
  405670:	24050046 	li	a1,70
  405674:	3c020040 	lui	v0,0x40
  405678:	24447c6c 	addiu	a0,v0,31852
  40567c:	0c100393 	jal	400e4c <_user_panic>
  405680:	00000000 	nop
/home/git/21373271/21373271/fs/fs.c:74
  405684:	8fc40020 	lw	a0,32(s8)
  405688:	0c1014f0 	jal	4053c0 <diskaddr>
  40568c:	00000000 	nop
  405690:	afc20010 	sw	v0,16(s8)
/home/git/21373271/21373271/fs/fs.c:75
  405694:	8fc20020 	lw	v0,32(s8)
  405698:	00000000 	nop
  40569c:	000210c0 	sll	v0,v0,0x3
  4056a0:	24070008 	li	a3,8
  4056a4:	8fc60010 	lw	a2,16(s8)
  4056a8:	00402825 	move	a1,v0
  4056ac:	00002025 	move	a0,zero
  4056b0:	0c101d74 	jal	4075d0 <ide_write>
  4056b4:	00000000 	nop
/home/git/21373271/21373271/fs/fs.c:76
  4056b8:	00000000 	nop
  4056bc:	03c0e825 	move	sp,s8
  4056c0:	8fbf001c 	lw	ra,28(sp)
  4056c4:	8fbe0018 	lw	s8,24(sp)
  4056c8:	27bd0020 	addiu	sp,sp,32
  4056cc:	03e00008 	jr	ra
  4056d0:	00000000 	nop

004056d4 <read_block>:
read_block():
/home/git/21373271/21373271/fs/fs.c:93
  4056d4:	27bdffe0 	addiu	sp,sp,-32
  4056d8:	afbf001c 	sw	ra,28(sp)
  4056dc:	afbe0018 	sw	s8,24(sp)
  4056e0:	03a0f025 	move	s8,sp
  4056e4:	afc40020 	sw	a0,32(s8)
  4056e8:	afc50024 	sw	a1,36(s8)
  4056ec:	afc60028 	sw	a2,40(s8)
/home/git/21373271/21373271/fs/fs.c:95
  4056f0:	3c020041 	lui	v0,0x41
  4056f4:	8c420000 	lw	v0,0(v0)
  4056f8:	00000000 	nop
  4056fc:	10400012 	beqz	v0,405748 <read_block+0x74>
  405700:	00000000 	nop
/home/git/21373271/21373271/fs/fs.c:95 (discriminator 1)
  405704:	3c020041 	lui	v0,0x41
  405708:	8c420000 	lw	v0,0(v0)
  40570c:	00000000 	nop
  405710:	8c420004 	lw	v0,4(v0)
  405714:	8fc30020 	lw	v1,32(s8)
  405718:	00000000 	nop
  40571c:	0062102b 	sltu	v0,v1,v0
  405720:	14400009 	bnez	v0,405748 <read_block+0x74>
  405724:	00000000 	nop
/home/git/21373271/21373271/fs/fs.c:96
  405728:	8fc70020 	lw	a3,32(s8)
  40572c:	3c020040 	lui	v0,0x40
  405730:	24467c74 	addiu	a2,v0,31860
  405734:	24050060 	li	a1,96
  405738:	3c020040 	lui	v0,0x40
  40573c:	24447c6c 	addiu	a0,v0,31852
  405740:	0c100393 	jal	400e4c <_user_panic>
  405744:	00000000 	nop
/home/git/21373271/21373271/fs/fs.c:104
  405748:	3c020041 	lui	v0,0x41
  40574c:	8c420004 	lw	v0,4(v0)
  405750:	00000000 	nop
  405754:	1040000e 	beqz	v0,405790 <read_block+0xbc>
  405758:	00000000 	nop
/home/git/21373271/21373271/fs/fs.c:104 (discriminator 1)
  40575c:	8fc40020 	lw	a0,32(s8)
  405760:	0c101668 	jal	4059a0 <block_is_free>
  405764:	00000000 	nop
  405768:	10400009 	beqz	v0,405790 <read_block+0xbc>
  40576c:	00000000 	nop
/home/git/21373271/21373271/fs/fs.c:105
  405770:	8fc70020 	lw	a3,32(s8)
  405774:	3c020040 	lui	v0,0x40
  405778:	24467c98 	addiu	a2,v0,31896
  40577c:	24050069 	li	a1,105
  405780:	3c020040 	lui	v0,0x40
  405784:	24447c6c 	addiu	a0,v0,31852
  405788:	0c100393 	jal	400e4c <_user_panic>
  40578c:	00000000 	nop
/home/git/21373271/21373271/fs/fs.c:109
  405790:	8fc40020 	lw	a0,32(s8)
  405794:	0c1014f0 	jal	4053c0 <diskaddr>
  405798:	00000000 	nop
  40579c:	afc20010 	sw	v0,16(s8)
/home/git/21373271/21373271/fs/fs.c:116
  4057a0:	8fc40020 	lw	a0,32(s8)
  4057a4:	0c101521 	jal	405484 <block_is_mapped>
  4057a8:	00000000 	nop
  4057ac:	1040000a 	beqz	v0,4057d8 <read_block+0x104>
  4057b0:	00000000 	nop
/home/git/21373271/21373271/fs/fs.c:117
  4057b4:	8fc20028 	lw	v0,40(s8)
  4057b8:	00000000 	nop
  4057bc:	1040001b 	beqz	v0,40582c <read_block+0x158>
  4057c0:	00000000 	nop
/home/git/21373271/21373271/fs/fs.c:118
  4057c4:	8fc20028 	lw	v0,40(s8)
  4057c8:	00000000 	nop
  4057cc:	ac400000 	sw	zero,0(v0)
  4057d0:	10000016 	b	40582c <read_block+0x158>
  4057d4:	00000000 	nop
/home/git/21373271/21373271/fs/fs.c:121
  4057d8:	8fc20028 	lw	v0,40(s8)
  4057dc:	00000000 	nop
  4057e0:	10400004 	beqz	v0,4057f4 <read_block+0x120>
  4057e4:	00000000 	nop
/home/git/21373271/21373271/fs/fs.c:122
  4057e8:	8fc20028 	lw	v0,40(s8)
  4057ec:	24030001 	li	v1,1
  4057f0:	ac430000 	sw	v1,0(v0)
/home/git/21373271/21373271/fs/fs.c:124
  4057f4:	24060400 	li	a2,1024
  4057f8:	8fc50010 	lw	a1,16(s8)
  4057fc:	00002025 	move	a0,zero
