
tests/lab5_5/fs_strong_check.b：     文件格式 elf32-tradlittlemips
tests/lab5_5/fs_strong_check.b


Disassembly of section .text:

00400000 <test_read>:
test_read():
/home/git/21373271/21373271/tests/lab5_5/fs_strong_check.c:8
  400000:	27bdfbd0 	addiu	sp,sp,-1072
  400004:	afbf042c 	sw	ra,1068(sp)
  400008:	afbe0428 	sw	s8,1064(sp)
  40000c:	03a0f025 	move	s8,sp
  400010:	afc40430 	sw	a0,1072(s8)
  400014:	afc50434 	sw	a1,1076(s8)
/home/git/21373271/21373271/tests/lab5_5/fs_strong_check.c:10
  400018:	24050002 	li	a1,2
  40001c:	8fc40430 	lw	a0,1072(s8)
  400020:	0c1007ec 	jal	401fb0 <open>
  400024:	00000000 	nop
  400028:	afc20018 	sw	v0,24(s8)
/home/git/21373271/21373271/tests/lab5_5/fs_strong_check.c:11
  40002c:	8fc20018 	lw	v0,24(s8)
  400030:	00000000 	nop
  400034:	0441000c 	bgez	v0,400068 <test_read+0x68>
  400038:	00000000 	nop
/home/git/21373271/21373271/tests/lab5_5/fs_strong_check.c:12
  40003c:	8fc20018 	lw	v0,24(s8)
  400040:	00000000 	nop
  400044:	afa20010 	sw	v0,16(sp)
  400048:	8fc70430 	lw	a3,1072(s8)
  40004c:	3c020040 	lui	v0,0x40
  400050:	24467980 	addiu	a2,v0,31104
  400054:	2405000c 	li	a1,12
  400058:	3c020040 	lui	v0,0x40
  40005c:	244479a4 	addiu	a0,v0,31140
  400060:	0c100487 	jal	40121c <_user_panic>
  400064:	00000000 	nop
/home/git/21373271/21373271/tests/lab5_5/fs_strong_check.c:14
  400068:	8fc40434 	lw	a0,1076(s8)
  40006c:	0c101db4 	jal	4076d0 <strlen>
  400070:	00000000 	nop
  400074:	afc2001c 	sw	v0,28(s8)
/home/git/21373271/21373271/tests/lab5_5/fs_strong_check.c:15
  400078:	8fc6001c 	lw	a2,28(s8)
  40007c:	8fc50434 	lw	a1,1076(s8)
  400080:	8fc40018 	lw	a0,24(s8)
  400084:	0c100bd3 	jal	402f4c <fprintf>
  400088:	00000000 	nop
/home/git/21373271/21373271/tests/lab5_5/fs_strong_check.c:16
  40008c:	8fc40018 	lw	a0,24(s8)
  400090:	0c1005b1 	jal	4016c4 <close>
  400094:	00000000 	nop
/home/git/21373271/21373271/tests/lab5_5/fs_strong_check.c:17
  400098:	24050002 	li	a1,2
  40009c:	8fc40430 	lw	a0,1072(s8)
  4000a0:	0c1007ec 	jal	401fb0 <open>
  4000a4:	00000000 	nop
  4000a8:	afc20018 	sw	v0,24(s8)
/home/git/21373271/21373271/tests/lab5_5/fs_strong_check.c:18
  4000ac:	8fc20018 	lw	v0,24(s8)
  4000b0:	00000000 	nop
  4000b4:	0441000c 	bgez	v0,4000e8 <test_read+0xe8>
  4000b8:	00000000 	nop
/home/git/21373271/21373271/tests/lab5_5/fs_strong_check.c:19
  4000bc:	8fc20018 	lw	v0,24(s8)
  4000c0:	00000000 	nop
  4000c4:	afa20010 	sw	v0,16(sp)
  4000c8:	8fc70430 	lw	a3,1072(s8)
  4000cc:	3c020040 	lui	v0,0x40
  4000d0:	24467980 	addiu	a2,v0,31104
  4000d4:	24050013 	li	a1,19
  4000d8:	3c020040 	lui	v0,0x40
  4000dc:	244479a4 	addiu	a0,v0,31140
  4000e0:	0c100487 	jal	40121c <_user_panic>
  4000e4:	00000000 	nop
/home/git/21373271/21373271/tests/lab5_5/fs_strong_check.c:21
  4000e8:	8fc2001c 	lw	v0,28(s8)
  4000ec:	27c30024 	addiu	v1,s8,36
  4000f0:	00403025 	move	a2,v0
  4000f4:	00602825 	move	a1,v1
  4000f8:	8fc40018 	lw	a0,24(s8)
  4000fc:	0c1006a1 	jal	401a84 <read>
  400100:	00000000 	nop
  400104:	afc20020 	sw	v0,32(s8)
/home/git/21373271/21373271/tests/lab5_5/fs_strong_check.c:22
  400108:	8fc30020 	lw	v1,32(s8)
  40010c:	8fc2001c 	lw	v0,28(s8)
  400110:	00000000 	nop
  400114:	1062000c 	beq	v1,v0,400148 <test_read+0x148>
  400118:	00000000 	nop
/home/git/21373271/21373271/tests/lab5_5/fs_strong_check.c:23
  40011c:	8fc20020 	lw	v0,32(s8)
  400120:	00000000 	nop
  400124:	afa20010 	sw	v0,16(sp)
  400128:	8fc7001c 	lw	a3,28(s8)
  40012c:	3c020040 	lui	v0,0x40
  400130:	244679b8 	addiu	a2,v0,31160
  400134:	24050017 	li	a1,23
  400138:	3c020040 	lui	v0,0x40
  40013c:	244479a4 	addiu	a0,v0,31140
  400140:	0c100487 	jal	40121c <_user_panic>
  400144:	00000000 	nop
/home/git/21373271/21373271/tests/lab5_5/fs_strong_check.c:25
  400148:	8fc2001c 	lw	v0,28(s8)
  40014c:	27c30018 	addiu	v1,s8,24
  400150:	00621021 	addu	v0,v1,v0
  400154:	a040000c 	sb	zero,12(v0)
/home/git/21373271/21373271/tests/lab5_5/fs_strong_check.c:26
  400158:	27c20024 	addiu	v0,s8,36
  40015c:	00402825 	move	a1,v0
  400160:	8fc40434 	lw	a0,1076(s8)
  400164:	0c101e10 	jal	407840 <strcmp>
  400168:	00000000 	nop
  40016c:	1040000a 	beqz	v0,400198 <test_read+0x198>
  400170:	00000000 	nop
/home/git/21373271/21373271/tests/lab5_5/fs_strong_check.c:27
  400174:	27c20024 	addiu	v0,s8,36
  400178:	00403025 	move	a2,v0
  40017c:	8fc50434 	lw	a1,1076(s8)
  400180:	3c020040 	lui	v0,0x40
  400184:	244479e0 	addiu	a0,v0,31200
  400188:	0c100470 	jal	4011c0 <debugf>
  40018c:	00000000 	nop
  400190:	1000000d 	b	4001c8 <test_read+0x1c8>
  400194:	00000000 	nop
/home/git/21373271/21373271/tests/lab5_5/fs_strong_check.c:30
  400198:	8fc40018 	lw	a0,24(s8)
  40019c:	0c1005b1 	jal	4016c4 <close>
  4001a0:	00000000 	nop
/home/git/21373271/21373271/tests/lab5_5/fs_strong_check.c:31
  4001a4:	8fc40434 	lw	a0,1076(s8)
  4001a8:	0c101db4 	jal	4076d0 <strlen>
  4001ac:	00000000 	nop
  4001b0:	8fc60430 	lw	a2,1072(s8)
  4001b4:	00402825 	move	a1,v0
  4001b8:	3c020040 	lui	v0,0x40
  4001bc:	24447a0c 	addiu	a0,v0,31244
  4001c0:	0c100470 	jal	4011c0 <debugf>
  4001c4:	00000000 	nop
/home/git/21373271/21373271/tests/lab5_5/fs_strong_check.c:32
  4001c8:	03c0e825 	move	sp,s8
  4001cc:	8fbf042c 	lw	ra,1068(sp)
  4001d0:	8fbe0428 	lw	s8,1064(sp)
  4001d4:	27bd0430 	addiu	sp,sp,1072
  4001d8:	03e00008 	jr	ra
  4001dc:	00000000 	nop

004001e0 <test_fd_alloc>:
test_fd_alloc():
/home/git/21373271/21373271/tests/lab5_5/fs_strong_check.c:34
  4001e0:	27bdffd8 	addiu	sp,sp,-40
  4001e4:	afbf0024 	sw	ra,36(sp)
  4001e8:	afbe0020 	sw	s8,32(sp)
  4001ec:	03a0f025 	move	s8,sp
  4001f0:	afc40028 	sw	a0,40(s8)
/home/git/21373271/21373271/tests/lab5_5/fs_strong_check.c:35
  4001f4:	afc00018 	sw	zero,24(s8)
  4001f8:	afc0001c 	sw	zero,28(s8)
/home/git/21373271/21373271/tests/lab5_5/fs_strong_check.c:36
  4001fc:	afc00018 	sw	zero,24(s8)
  400200:	10000025 	b	400298 <test_fd_alloc+0xb8>
  400204:	00000000 	nop
/home/git/21373271/21373271/tests/lab5_5/fs_strong_check.c:37
  400208:	24050002 	li	a1,2
  40020c:	8fc40028 	lw	a0,40(s8)
  400210:	0c1007ec 	jal	401fb0 <open>
  400214:	00000000 	nop
  400218:	afc2001c 	sw	v0,28(s8)
  40021c:	8fc2001c 	lw	v0,28(s8)
  400220:	00000000 	nop
  400224:	04410008 	bgez	v0,400248 <test_fd_alloc+0x68>
  400228:	00000000 	nop
/home/git/21373271/21373271/tests/lab5_5/fs_strong_check.c:38
  40022c:	3c020040 	lui	v0,0x40
  400230:	24467a38 	addiu	a2,v0,31288
  400234:	24050026 	li	a1,38
  400238:	3c020040 	lui	v0,0x40
  40023c:	244479a4 	addiu	a0,v0,31140
  400240:	0c100487 	jal	40121c <_user_panic>
  400244:	00000000 	nop
/home/git/21373271/21373271/tests/lab5_5/fs_strong_check.c:40
  400248:	8fc3001c 	lw	v1,28(s8)
  40024c:	8fc20018 	lw	v0,24(s8)
  400250:	00000000 	nop
  400254:	1062000c 	beq	v1,v0,400288 <test_fd_alloc+0xa8>
  400258:	00000000 	nop
/home/git/21373271/21373271/tests/lab5_5/fs_strong_check.c:41
  40025c:	8fc2001c 	lw	v0,28(s8)
  400260:	00000000 	nop
  400264:	afa20010 	sw	v0,16(sp)
  400268:	8fc70018 	lw	a3,24(s8)
  40026c:	3c020040 	lui	v0,0x40
  400270:	24467a48 	addiu	a2,v0,31304
  400274:	24050029 	li	a1,41
  400278:	3c020040 	lui	v0,0x40
  40027c:	244479a4 	addiu	a0,v0,31140
  400280:	0c100487 	jal	40121c <_user_panic>
  400284:	00000000 	nop
/home/git/21373271/21373271/tests/lab5_5/fs_strong_check.c:36 (discriminator 2)
  400288:	8fc20018 	lw	v0,24(s8)
  40028c:	00000000 	nop
  400290:	24420001 	addiu	v0,v0,1
  400294:	afc20018 	sw	v0,24(s8)
/home/git/21373271/21373271/tests/lab5_5/fs_strong_check.c:36 (discriminator 1)
  400298:	8fc20018 	lw	v0,24(s8)
  40029c:	00000000 	nop
  4002a0:	2842001f 	slti	v0,v0,31
  4002a4:	1440ffd8 	bnez	v0,400208 <test_fd_alloc+0x28>
  4002a8:	00000000 	nop
/home/git/21373271/21373271/tests/lab5_5/fs_strong_check.c:45
  4002ac:	2402001e 	li	v0,30
  4002b0:	afc20018 	sw	v0,24(s8)
  4002b4:	10000014 	b	400308 <test_fd_alloc+0x128>
  4002b8:	00000000 	nop
/home/git/21373271/21373271/tests/lab5_5/fs_strong_check.c:46
  4002bc:	8fc40018 	lw	a0,24(s8)
  4002c0:	0c1005b1 	jal	4016c4 <close>
  4002c4:	00000000 	nop
  4002c8:	afc2001c 	sw	v0,28(s8)
  4002cc:	8fc2001c 	lw	v0,28(s8)
  4002d0:	00000000 	nop
  4002d4:	04410008 	bgez	v0,4002f8 <test_fd_alloc+0x118>
  4002d8:	00000000 	nop
/home/git/21373271/21373271/tests/lab5_5/fs_strong_check.c:47
  4002dc:	3c020040 	lui	v0,0x40
  4002e0:	24467a70 	addiu	a2,v0,31344
  4002e4:	2405002f 	li	a1,47
  4002e8:	3c020040 	lui	v0,0x40
  4002ec:	244479a4 	addiu	a0,v0,31140
  4002f0:	0c100487 	jal	40121c <_user_panic>
  4002f4:	00000000 	nop
/home/git/21373271/21373271/tests/lab5_5/fs_strong_check.c:45 (discriminator 2)
  4002f8:	8fc20018 	lw	v0,24(s8)
  4002fc:	00000000 	nop
  400300:	2442ffff 	addiu	v0,v0,-1
  400304:	afc20018 	sw	v0,24(s8)
/home/git/21373271/21373271/tests/lab5_5/fs_strong_check.c:45 (discriminator 1)
  400308:	8fc20018 	lw	v0,24(s8)
  40030c:	00000000 	nop
  400310:	0441ffea 	bgez	v0,4002bc <test_fd_alloc+0xdc>
  400314:	00000000 	nop
/home/git/21373271/21373271/tests/lab5_5/fs_strong_check.c:51
  400318:	8fc50028 	lw	a1,40(s8)
  40031c:	3c020040 	lui	v0,0x40
  400320:	24447a80 	addiu	a0,v0,31360
  400324:	0c100470 	jal	4011c0 <debugf>
  400328:	00000000 	nop
/home/git/21373271/21373271/tests/lab5_5/fs_strong_check.c:52
  40032c:	00000000 	nop
  400330:	03c0e825 	move	sp,s8
  400334:	8fbf0024 	lw	ra,36(sp)
  400338:	8fbe0020 	lw	s8,32(sp)
  40033c:	27bd0028 	addiu	sp,sp,40
  400340:	03e00008 	jr	ra
  400344:	00000000 	nop

00400348 <test_close>:
test_close():
/home/git/21373271/21373271/tests/lab5_5/fs_strong_check.c:54
  400348:	27bdfdd8 	addiu	sp,sp,-552
  40034c:	afbf0224 	sw	ra,548(sp)
  400350:	afbe0220 	sw	s8,544(sp)
  400354:	03a0f025 	move	s8,sp
  400358:	afc40228 	sw	a0,552(s8)
/home/git/21373271/21373271/tests/lab5_5/fs_strong_check.c:58
  40035c:	24050002 	li	a1,2
  400360:	8fc40228 	lw	a0,552(s8)
  400364:	0c1007ec 	jal	401fb0 <open>
  400368:	00000000 	nop
  40036c:	afc20010 	sw	v0,16(s8)
  400370:	8fc20010 	lw	v0,16(s8)
  400374:	00000000 	nop
  400378:	04400005 	bltz	v0,400390 <test_close+0x48>
  40037c:	00000000 	nop
/home/git/21373271/21373271/tests/lab5_5/fs_strong_check.c:58 (discriminator 1)
  400380:	8fc20010 	lw	v0,16(s8)
  400384:	00000000 	nop
  400388:	10400008 	beqz	v0,4003ac <test_close+0x64>
  40038c:	00000000 	nop
/home/git/21373271/21373271/tests/lab5_5/fs_strong_check.c:59
  400390:	3c020040 	lui	v0,0x40
  400394:	24467aa4 	addiu	a2,v0,31396
  400398:	2405003b 	li	a1,59
  40039c:	3c020040 	lui	v0,0x40
  4003a0:	244479a4 	addiu	a0,v0,31140
  4003a4:	0c100487 	jal	40121c <_user_panic>
  4003a8:	00000000 	nop
/home/git/21373271/21373271/tests/lab5_5/fs_strong_check.c:61
  4003ac:	8fc20010 	lw	v0,16(s8)
  4003b0:	00000000 	nop
  4003b4:	afc20014 	sw	v0,20(s8)
/home/git/21373271/21373271/tests/lab5_5/fs_strong_check.c:62
  4003b8:	27c2001c 	addiu	v0,s8,28
  4003bc:	240601ff 	li	a2,511
  4003c0:	00402825 	move	a1,v0
  4003c4:	8fc40014 	lw	a0,20(s8)
  4003c8:	0c1006a1 	jal	401a84 <read>
  4003cc:	00000000 	nop
  4003d0:	afc20018 	sw	v0,24(s8)
  4003d4:	8fc20018 	lw	v0,24(s8)
  4003d8:	00000000 	nop
  4003dc:	04410009 	bgez	v0,400404 <test_close+0xbc>
  4003e0:	00000000 	nop
/home/git/21373271/21373271/tests/lab5_5/fs_strong_check.c:63
  4003e4:	8fc70010 	lw	a3,16(s8)
  4003e8:	3c020040 	lui	v0,0x40
  4003ec:	24467abc 	addiu	a2,v0,31420
  4003f0:	2405003f 	li	a1,63
  4003f4:	3c020040 	lui	v0,0x40
  4003f8:	244479a4 	addiu	a0,v0,31140
  4003fc:	0c100487 	jal	40121c <_user_panic>
  400400:	00000000 	nop
/home/git/21373271/21373271/tests/lab5_5/fs_strong_check.c:66
  400404:	8fc40014 	lw	a0,20(s8)
  400408:	0c1005b1 	jal	4016c4 <close>
  40040c:	00000000 	nop
  400410:	afc20010 	sw	v0,16(s8)
  400414:	8fc20010 	lw	v0,16(s8)
  400418:	00000000 	nop
  40041c:	04410008 	bgez	v0,400440 <test_close+0xf8>
  400420:	00000000 	nop
/home/git/21373271/21373271/tests/lab5_5/fs_strong_check.c:67
  400424:	3c020040 	lui	v0,0x40
  400428:	24467ad0 	addiu	a2,v0,31440
  40042c:	24050043 	li	a1,67
  400430:	3c020040 	lui	v0,0x40
  400434:	244479a4 	addiu	a0,v0,31140
  400438:	0c100487 	jal	40121c <_user_panic>
  40043c:	00000000 	nop
/home/git/21373271/21373271/tests/lab5_5/fs_strong_check.c:70
  400440:	27c2001c 	addiu	v0,s8,28
  400444:	240601ff 	li	a2,511
  400448:	00402825 	move	a1,v0
  40044c:	8fc40014 	lw	a0,20(s8)
  400450:	0c1006a1 	jal	401a84 <read>
  400454:	00000000 	nop
  400458:	afc20018 	sw	v0,24(s8)
  40045c:	8fc20018 	lw	v0,24(s8)
  400460:	00000000 	nop
  400464:	18400009 	blez	v0,40048c <test_close+0x144>
  400468:	00000000 	nop
/home/git/21373271/21373271/tests/lab5_5/fs_strong_check.c:71
  40046c:	8fc70010 	lw	a3,16(s8)
  400470:	3c020040 	lui	v0,0x40
  400474:	24467ae0 	addiu	a2,v0,31456
  400478:	24050047 	li	a1,71
  40047c:	3c020040 	lui	v0,0x40
  400480:	244479a4 	addiu	a0,v0,31140
  400484:	0c100487 	jal	40121c <_user_panic>
  400488:	00000000 	nop
/home/git/21373271/21373271/tests/lab5_5/fs_strong_check.c:74
  40048c:	24050001 	li	a1,1
  400490:	8fc40228 	lw	a0,552(s8)
  400494:	0c1007ec 	jal	401fb0 <open>
  400498:	00000000 	nop
  40049c:	afc20010 	sw	v0,16(s8)
  4004a0:	8fc20010 	lw	v0,16(s8)
  4004a4:	00000000 	nop
  4004a8:	04400005 	bltz	v0,4004c0 <test_close+0x178>
  4004ac:	00000000 	nop
/home/git/21373271/21373271/tests/lab5_5/fs_strong_check.c:74 (discriminator 1)
  4004b0:	8fc20010 	lw	v0,16(s8)
  4004b4:	00000000 	nop
  4004b8:	10400008 	beqz	v0,4004dc <test_close+0x194>
  4004bc:	00000000 	nop
/home/git/21373271/21373271/tests/lab5_5/fs_strong_check.c:75
  4004c0:	3c020040 	lui	v0,0x40
  4004c4:	24467aa4 	addiu	a2,v0,31396
  4004c8:	2405004b 	li	a1,75
  4004cc:	3c020040 	lui	v0,0x40
  4004d0:	244479a4 	addiu	a0,v0,31140
  4004d4:	0c100487 	jal	40121c <_user_panic>
  4004d8:	00000000 	nop
/home/git/21373271/21373271/tests/lab5_5/fs_strong_check.c:78
  4004dc:	8fc40014 	lw	a0,20(s8)
  4004e0:	0c1005b1 	jal	4016c4 <close>
  4004e4:	00000000 	nop
  4004e8:	afc20010 	sw	v0,16(s8)
  4004ec:	8fc20010 	lw	v0,16(s8)
  4004f0:	00000000 	nop
  4004f4:	04410008 	bgez	v0,400518 <test_close+0x1d0>
  4004f8:	00000000 	nop
/home/git/21373271/21373271/tests/lab5_5/fs_strong_check.c:79
  4004fc:	3c020040 	lui	v0,0x40
  400500:	24467ad0 	addiu	a2,v0,31440
  400504:	2405004f 	li	a1,79
  400508:	3c020040 	lui	v0,0x40
  40050c:	244479a4 	addiu	a0,v0,31140
  400510:	0c100487 	jal	40121c <_user_panic>
  400514:	00000000 	nop
/home/git/21373271/21373271/tests/lab5_5/fs_strong_check.c:81
  400518:	8fc50228 	lw	a1,552(s8)
  40051c:	3c020040 	lui	v0,0x40
  400520:	24447afc 	addiu	a0,v0,31484
  400524:	0c100470 	jal	4011c0 <debugf>
  400528:	00000000 	nop
/home/git/21373271/21373271/tests/lab5_5/fs_strong_check.c:82
  40052c:	00000000 	nop
  400530:	03c0e825 	move	sp,s8
  400534:	8fbf0224 	lw	ra,548(sp)
  400538:	8fbe0220 	lw	s8,544(sp)
  40053c:	27bd0228 	addiu	sp,sp,552
  400540:	03e00008 	jr	ra
  400544:	00000000 	nop

00400548 <test_mode>:
test_mode():
/home/git/21373271/21373271/tests/lab5_5/fs_strong_check.c:84
  400548:	27bdfdd8 	addiu	sp,sp,-552
  40054c:	afbf0224 	sw	ra,548(sp)
  400550:	afbe0220 	sw	s8,544(sp)
  400554:	03a0f025 	move	s8,sp
  400558:	afc40228 	sw	a0,552(s8)
/home/git/21373271/21373271/tests/lab5_5/fs_strong_check.c:87
  40055c:	24020061 	li	v0,97
  400560:	a3c2001c 	sb	v0,28(s8)
/home/git/21373271/21373271/tests/lab5_5/fs_strong_check.c:89
  400564:	24050001 	li	a1,1
  400568:	8fc40228 	lw	a0,552(s8)
  40056c:	0c1007ec 	jal	401fb0 <open>
  400570:	00000000 	nop
  400574:	afc20010 	sw	v0,16(s8)
  400578:	8fc20010 	lw	v0,16(s8)
  40057c:	00000000 	nop
  400580:	04400005 	bltz	v0,400598 <test_mode+0x50>
  400584:	00000000 	nop
/home/git/21373271/21373271/tests/lab5_5/fs_strong_check.c:89 (discriminator 1)
  400588:	8fc20010 	lw	v0,16(s8)
  40058c:	00000000 	nop
  400590:	10400008 	beqz	v0,4005b4 <test_mode+0x6c>
  400594:	00000000 	nop
/home/git/21373271/21373271/tests/lab5_5/fs_strong_check.c:90
  400598:	3c020040 	lui	v0,0x40
  40059c:	24467aa4 	addiu	a2,v0,31396
  4005a0:	2405005a 	li	a1,90
  4005a4:	3c020040 	lui	v0,0x40
  4005a8:	244479a4 	addiu	a0,v0,31140
  4005ac:	0c100487 	jal	40121c <_user_panic>
  4005b0:	00000000 	nop
/home/git/21373271/21373271/tests/lab5_5/fs_strong_check.c:92
  4005b4:	8fc20010 	lw	v0,16(s8)
  4005b8:	00000000 	nop
  4005bc:	afc20014 	sw	v0,20(s8)
/home/git/21373271/21373271/tests/lab5_5/fs_strong_check.c:94
  4005c0:	27c2001c 	addiu	v0,s8,28
  4005c4:	240601ff 	li	a2,511
  4005c8:	00402825 	move	a1,v0
  4005cc:	8fc40014 	lw	a0,20(s8)
  4005d0:	0c1006a1 	jal	401a84 <read>
  4005d4:	00000000 	nop
  4005d8:	afc20018 	sw	v0,24(s8)
  4005dc:	8fc20018 	lw	v0,24(s8)
  4005e0:	00000000 	nop
  4005e4:	04400009 	bltz	v0,40060c <test_mode+0xc4>
  4005e8:	00000000 	nop
/home/git/21373271/21373271/tests/lab5_5/fs_strong_check.c:95
  4005ec:	8fc70010 	lw	a3,16(s8)
  4005f0:	3c020040 	lui	v0,0x40
  4005f4:	24467b1c 	addiu	a2,v0,31516
  4005f8:	2405005f 	li	a1,95
  4005fc:	3c020040 	lui	v0,0x40
  400600:	244479a4 	addiu	a0,v0,31140
  400604:	0c100487 	jal	40121c <_user_panic>
  400608:	00000000 	nop
/home/git/21373271/21373271/tests/lab5_5/fs_strong_check.c:98
  40060c:	8fc40014 	lw	a0,20(s8)
  400610:	0c1005b1 	jal	4016c4 <close>
  400614:	00000000 	nop
  400618:	afc20010 	sw	v0,16(s8)
  40061c:	8fc20010 	lw	v0,16(s8)
  400620:	00000000 	nop
  400624:	04410008 	bgez	v0,400648 <test_mode+0x100>
  400628:	00000000 	nop
/home/git/21373271/21373271/tests/lab5_5/fs_strong_check.c:99
  40062c:	3c020040 	lui	v0,0x40
  400630:	24467ad0 	addiu	a2,v0,31440
  400634:	24050063 	li	a1,99
  400638:	3c020040 	lui	v0,0x40
  40063c:	244479a4 	addiu	a0,v0,31140
  400640:	0c100487 	jal	40121c <_user_panic>
  400644:	00000000 	nop
/home/git/21373271/21373271/tests/lab5_5/fs_strong_check.c:102
  400648:	00002825 	move	a1,zero
  40064c:	8fc40228 	lw	a0,552(s8)
  400650:	0c1007ec 	jal	401fb0 <open>
  400654:	00000000 	nop
  400658:	afc20010 	sw	v0,16(s8)
  40065c:	8fc20010 	lw	v0,16(s8)
  400660:	00000000 	nop
  400664:	04400005 	bltz	v0,40067c <test_mode+0x134>
  400668:	00000000 	nop
/home/git/21373271/21373271/tests/lab5_5/fs_strong_check.c:102 (discriminator 1)
  40066c:	8fc20010 	lw	v0,16(s8)
  400670:	00000000 	nop
  400674:	10400008 	beqz	v0,400698 <test_mode+0x150>
  400678:	00000000 	nop
/home/git/21373271/21373271/tests/lab5_5/fs_strong_check.c:103
  40067c:	3c020040 	lui	v0,0x40
  400680:	24467aa4 	addiu	a2,v0,31396
  400684:	24050067 	li	a1,103
  400688:	3c020040 	lui	v0,0x40
  40068c:	244479a4 	addiu	a0,v0,31140
  400690:	0c100487 	jal	40121c <_user_panic>
  400694:	00000000 	nop
/home/git/21373271/21373271/tests/lab5_5/fs_strong_check.c:105
  400698:	8fc20010 	lw	v0,16(s8)
  40069c:	00000000 	nop
  4006a0:	afc20014 	sw	v0,20(s8)
/home/git/21373271/21373271/tests/lab5_5/fs_strong_check.c:107
  4006a4:	27c2001c 	addiu	v0,s8,28
  4006a8:	00402025 	move	a0,v0
  4006ac:	0c101db4 	jal	4076d0 <strlen>
  4006b0:	00000000 	nop
  4006b4:	24420001 	addiu	v0,v0,1
  4006b8:	27c3001c 	addiu	v1,s8,28
  4006bc:	00403025 	move	a2,v0
  4006c0:	00602825 	move	a1,v1
  4006c4:	8fc40014 	lw	a0,20(s8)
  4006c8:	0c100725 	jal	401c94 <write>
  4006cc:	00000000 	nop
  4006d0:	afc20010 	sw	v0,16(s8)
  4006d4:	8fc20010 	lw	v0,16(s8)
  4006d8:	00000000 	nop
  4006dc:	04400009 	bltz	v0,400704 <test_mode+0x1bc>
  4006e0:	00000000 	nop
/home/git/21373271/21373271/tests/lab5_5/fs_strong_check.c:108
  4006e4:	8fc70010 	lw	a3,16(s8)
  4006e8:	3c020040 	lui	v0,0x40
  4006ec:	24467b44 	addiu	a2,v0,31556
  4006f0:	2405006c 	li	a1,108
  4006f4:	3c020040 	lui	v0,0x40
  4006f8:	244479a4 	addiu	a0,v0,31140
  4006fc:	0c100487 	jal	40121c <_user_panic>
  400700:	00000000 	nop
/home/git/21373271/21373271/tests/lab5_5/fs_strong_check.c:111
  400704:	8fc40014 	lw	a0,20(s8)
  400708:	0c1005b1 	jal	4016c4 <close>
  40070c:	00000000 	nop
/home/git/21373271/21373271/tests/lab5_5/fs_strong_check.c:113
  400710:	8fc50228 	lw	a1,552(s8)
  400714:	3c020040 	lui	v0,0x40
  400718:	24447b70 	addiu	a0,v0,31600
  40071c:	0c100470 	jal	4011c0 <debugf>
  400720:	00000000 	nop
/home/git/21373271/21373271/tests/lab5_5/fs_strong_check.c:114
  400724:	00000000 	nop
  400728:	03c0e825 	move	sp,s8
  40072c:	8fbf0224 	lw	ra,548(sp)
  400730:	8fbe0220 	lw	s8,544(sp)
  400734:	27bd0228 	addiu	sp,sp,552
  400738:	03e00008 	jr	ra
  40073c:	00000000 	nop

00400740 <test_remove>:
test_remove():
/home/git/21373271/21373271/tests/lab5_5/fs_strong_check.c:116
  400740:	27bdffe0 	addiu	sp,sp,-32
  400744:	afbf001c 	sw	ra,28(sp)
  400748:	afbe0018 	sw	s8,24(sp)
  40074c:	03a0f025 	move	s8,sp
  400750:	afc40020 	sw	a0,32(s8)
/home/git/21373271/21373271/tests/lab5_5/fs_strong_check.c:119
  400754:	24050001 	li	a1,1
  400758:	8fc40020 	lw	a0,32(s8)
  40075c:	0c1007ec 	jal	401fb0 <open>
  400760:	00000000 	nop
  400764:	afc20010 	sw	v0,16(s8)
  400768:	8fc20010 	lw	v0,16(s8)
  40076c:	00000000 	nop
  400770:	04400005 	bltz	v0,400788 <test_remove+0x48>
  400774:	00000000 	nop
/home/git/21373271/21373271/tests/lab5_5/fs_strong_check.c:119 (discriminator 1)
  400778:	8fc20010 	lw	v0,16(s8)
  40077c:	00000000 	nop
  400780:	10400008 	beqz	v0,4007a4 <test_remove+0x64>
  400784:	00000000 	nop
/home/git/21373271/21373271/tests/lab5_5/fs_strong_check.c:120
  400788:	3c020040 	lui	v0,0x40
  40078c:	24467aa4 	addiu	a2,v0,31396
  400790:	24050078 	li	a1,120
  400794:	3c020040 	lui	v0,0x40
  400798:	244479a4 	addiu	a0,v0,31140
  40079c:	0c100487 	jal	40121c <_user_panic>
  4007a0:	00000000 	nop
/home/git/21373271/21373271/tests/lab5_5/fs_strong_check.c:122
  4007a4:	8fc20010 	lw	v0,16(s8)
  4007a8:	00000000 	nop
  4007ac:	afc20014 	sw	v0,20(s8)
/home/git/21373271/21373271/tests/lab5_5/fs_strong_check.c:124
  4007b0:	8fc40014 	lw	a0,20(s8)
  4007b4:	0c1005b1 	jal	4016c4 <close>
  4007b8:	00000000 	nop
  4007bc:	afc20010 	sw	v0,16(s8)
  4007c0:	8fc20010 	lw	v0,16(s8)
  4007c4:	00000000 	nop
  4007c8:	04410008 	bgez	v0,4007ec <test_remove+0xac>
  4007cc:	00000000 	nop
/home/git/21373271/21373271/tests/lab5_5/fs_strong_check.c:125
  4007d0:	3c020040 	lui	v0,0x40
  4007d4:	24467ad0 	addiu	a2,v0,31440
  4007d8:	2405007d 	li	a1,125
  4007dc:	3c020040 	lui	v0,0x40
  4007e0:	244479a4 	addiu	a0,v0,31140
  4007e4:	0c100487 	jal	40121c <_user_panic>
  4007e8:	00000000 	nop
/home/git/21373271/21373271/tests/lab5_5/fs_strong_check.c:128
  4007ec:	8fc40020 	lw	a0,32(s8)
  4007f0:	0c100a5d 	jal	402974 <remove>
  4007f4:	00000000 	nop
  4007f8:	afc20010 	sw	v0,16(s8)
  4007fc:	8fc20010 	lw	v0,16(s8)
  400800:	00000000 	nop
  400804:	04410009 	bgez	v0,40082c <test_remove+0xec>
  400808:	00000000 	nop
/home/git/21373271/21373271/tests/lab5_5/fs_strong_check.c:129
  40080c:	8fc70010 	lw	a3,16(s8)
  400810:	3c020040 	lui	v0,0x40
  400814:	24467b94 	addiu	a2,v0,31636
  400818:	24050081 	li	a1,129
  40081c:	3c020040 	lui	v0,0x40
  400820:	244479a4 	addiu	a0,v0,31140
  400824:	0c100487 	jal	40121c <_user_panic>
  400828:	00000000 	nop
/home/git/21373271/21373271/tests/lab5_5/fs_strong_check.c:131
  40082c:	00002825 	move	a1,zero
  400830:	8fc40020 	lw	a0,32(s8)
  400834:	0c1007ec 	jal	401fb0 <open>
  400838:	00000000 	nop
  40083c:	afc20010 	sw	v0,16(s8)
  400840:	8fc20010 	lw	v0,16(s8)
  400844:	00000000 	nop
  400848:	04400009 	bltz	v0,400870 <test_remove+0x130>
  40084c:	00000000 	nop
/home/git/21373271/21373271/tests/lab5_5/fs_strong_check.c:132
  400850:	8fc70010 	lw	a3,16(s8)
  400854:	3c020040 	lui	v0,0x40
  400858:	24467ba0 	addiu	a2,v0,31648
  40085c:	24050084 	li	a1,132
  400860:	3c020040 	lui	v0,0x40
  400864:	244479a4 	addiu	a0,v0,31140
  400868:	0c100487 	jal	40121c <_user_panic>
  40086c:	00000000 	nop
/home/git/21373271/21373271/tests/lab5_5/fs_strong_check.c:134
  400870:	8fc50020 	lw	a1,32(s8)
  400874:	3c020040 	lui	v0,0x40
  400878:	24447bb8 	addiu	a0,v0,31672
  40087c:	0c100470 	jal	4011c0 <debugf>
  400880:	00000000 	nop
/home/git/21373271/21373271/tests/lab5_5/fs_strong_check.c:135
  400884:	00000000 	nop
  400888:	03c0e825 	move	sp,s8
  40088c:	8fbf001c 	lw	ra,28(sp)
  400890:	8fbe0018 	lw	s8,24(sp)
  400894:	27bd0020 	addiu	sp,sp,32
  400898:	03e00008 	jr	ra
  40089c:	00000000 	nop

004008a0 <main>:
main():
/home/git/21373271/21373271/tests/lab5_5/fs_strong_check.c:137
  4008a0:	27bdfd40 	addiu	sp,sp,-704
  4008a4:	afbf02bc 	sw	ra,700(sp)
  4008a8:	afbe02b8 	sw	s8,696(sp)
  4008ac:	03a0f025 	move	s8,sp
/home/git/21373271/21373271/tests/lab5_5/fs_strong_check.c:141
  4008b0:	afc00010 	sw	zero,16(s8)
/home/git/21373271/21373271/tests/lab5_5/fs_strong_check.c:142
  4008b4:	afc00010 	sw	zero,16(s8)
  4008b8:	1000000a 	b	4008e4 <main+0x44>
  4008bc:	00000000 	nop
/home/git/21373271/21373271/tests/lab5_5/fs_strong_check.c:143 (discriminator 3)
  4008c0:	8fc20010 	lw	v0,16(s8)
  4008c4:	27c30010 	addiu	v1,s8,16
  4008c8:	00621021 	addu	v0,v1,v0
  4008cc:	24030061 	li	v1,97
  4008d0:	a0430004 	sb	v1,4(v0)
/home/git/21373271/21373271/tests/lab5_5/fs_strong_check.c:142 (discriminator 3)
  4008d4:	8fc20010 	lw	v0,16(s8)
  4008d8:	00000000 	nop
  4008dc:	24420001 	addiu	v0,v0,1
  4008e0:	afc20010 	sw	v0,16(s8)
/home/git/21373271/21373271/tests/lab5_5/fs_strong_check.c:142 (discriminator 1)
  4008e4:	8fc20010 	lw	v0,16(s8)
  4008e8:	00000000 	nop
  4008ec:	1840fff4 	blez	v0,4008c0 <main+0x20>
  4008f0:	00000000 	nop
/home/git/21373271/21373271/tests/lab5_5/fs_strong_check.c:145
  4008f4:	a3c00015 	sb	zero,21(s8)
/home/git/21373271/21373271/tests/lab5_5/fs_strong_check.c:147
  4008f8:	afc00010 	sw	zero,16(s8)
  4008fc:	1000000a 	b	400928 <main+0x88>
  400900:	00000000 	nop
/home/git/21373271/21373271/tests/lab5_5/fs_strong_check.c:148 (discriminator 3)
  400904:	8fc20010 	lw	v0,16(s8)
  400908:	27c30010 	addiu	v1,s8,16
  40090c:	00621021 	addu	v0,v1,v0
  400910:	24030062 	li	v1,98
  400914:	a0430008 	sb	v1,8(v0)
/home/git/21373271/21373271/tests/lab5_5/fs_strong_check.c:147 (discriminator 3)
  400918:	8fc20010 	lw	v0,16(s8)
  40091c:	00000000 	nop
  400920:	24420001 	addiu	v0,v0,1
  400924:	afc20010 	sw	v0,16(s8)
/home/git/21373271/21373271/tests/lab5_5/fs_strong_check.c:147 (discriminator 1)
  400928:	8fc20010 	lw	v0,16(s8)
  40092c:	00000000 	nop
  400930:	28420080 	slti	v0,v0,128
  400934:	1440fff3 	bnez	v0,400904 <main+0x64>
  400938:	00000000 	nop
/home/git/21373271/21373271/tests/lab5_5/fs_strong_check.c:151
  40093c:	a3c00098 	sb	zero,152(s8)
/home/git/21373271/21373271/tests/lab5_5/fs_strong_check.c:153
  400940:	afc00010 	sw	zero,16(s8)
  400944:	1000000a 	b	400970 <main+0xd0>
  400948:	00000000 	nop
/home/git/21373271/21373271/tests/lab5_5/fs_strong_check.c:154 (discriminator 3)
  40094c:	8fc20010 	lw	v0,16(s8)
  400950:	27c30010 	addiu	v1,s8,16
  400954:	00621021 	addu	v0,v1,v0
  400958:	24030063 	li	v1,99
  40095c:	a043008c 	sb	v1,140(v0)
/home/git/21373271/21373271/tests/lab5_5/fs_strong_check.c:153 (discriminator 3)
  400960:	8fc20010 	lw	v0,16(s8)
  400964:	00000000 	nop
  400968:	24420001 	addiu	v0,v0,1
  40096c:	afc20010 	sw	v0,16(s8)
/home/git/21373271/21373271/tests/lab5_5/fs_strong_check.c:153 (discriminator 1)
  400970:	8fc20010 	lw	v0,16(s8)
  400974:	00000000 	nop
  400978:	28420200 	slti	v0,v0,512
  40097c:	1440fff3 	bnez	v0,40094c <main+0xac>
  400980:	00000000 	nop
/home/git/21373271/21373271/tests/lab5_5/fs_strong_check.c:156
  400984:	a3c0029c 	sb	zero,668(s8)
/home/git/21373271/21373271/tests/lab5_5/fs_strong_check.c:158
  400988:	3c020041 	lui	v0,0x41
  40098c:	8c429000 	lw	v0,-28672(v0)
  400990:	00000000 	nop
  400994:	afc202a0 	sw	v0,672(s8)
  400998:	3c020041 	lui	v0,0x41
  40099c:	8c429004 	lw	v0,-28668(v0)
  4009a0:	00000000 	nop
  4009a4:	afc202a4 	sw	v0,676(s8)
  4009a8:	3c020041 	lui	v0,0x41
  4009ac:	8c429008 	lw	v0,-28664(v0)
  4009b0:	00000000 	nop
  4009b4:	afc202a8 	sw	v0,680(s8)
  4009b8:	3c020041 	lui	v0,0x41
  4009bc:	8c42900c 	lw	v0,-28660(v0)
  4009c0:	00000000 	nop
  4009c4:	afc202ac 	sw	v0,684(s8)
/home/git/21373271/21373271/tests/lab5_5/fs_strong_check.c:159
  4009c8:	afc00010 	sw	zero,16(s8)
  4009cc:	10000026 	b	400a68 <main+0x1c8>
  4009d0:	00000000 	nop
/home/git/21373271/21373271/tests/lab5_5/fs_strong_check.c:161 (discriminator 3)
  4009d4:	8fc20010 	lw	v0,16(s8)
  4009d8:	00000000 	nop
  4009dc:	00021080 	sll	v0,v0,0x2
  4009e0:	27c30010 	addiu	v1,s8,16
  4009e4:	00621021 	addu	v0,v1,v0
  4009e8:	8c420290 	lw	v0,656(v0)
  4009ec:	27c30014 	addiu	v1,s8,20
  4009f0:	00602825 	move	a1,v1
  4009f4:	00402025 	move	a0,v0
  4009f8:	0c100000 	jal	400000 <test_read>
  4009fc:	00000000 	nop
/home/git/21373271/21373271/tests/lab5_5/fs_strong_check.c:162 (discriminator 3)
  400a00:	8fc20010 	lw	v0,16(s8)
  400a04:	00000000 	nop
  400a08:	00021080 	sll	v0,v0,0x2
  400a0c:	27c30010 	addiu	v1,s8,16
  400a10:	00621021 	addu	v0,v1,v0
  400a14:	8c420290 	lw	v0,656(v0)
  400a18:	27c30018 	addiu	v1,s8,24
  400a1c:	00602825 	move	a1,v1
  400a20:	00402025 	move	a0,v0
  400a24:	0c100000 	jal	400000 <test_read>
  400a28:	00000000 	nop
/home/git/21373271/21373271/tests/lab5_5/fs_strong_check.c:163 (discriminator 3)
  400a2c:	8fc20010 	lw	v0,16(s8)
  400a30:	00000000 	nop
  400a34:	00021080 	sll	v0,v0,0x2
  400a38:	27c30010 	addiu	v1,s8,16
  400a3c:	00621021 	addu	v0,v1,v0
  400a40:	8c420290 	lw	v0,656(v0)
  400a44:	27c3009c 	addiu	v1,s8,156
  400a48:	00602825 	move	a1,v1
  400a4c:	00402025 	move	a0,v0
  400a50:	0c100000 	jal	400000 <test_read>
  400a54:	00000000 	nop
/home/git/21373271/21373271/tests/lab5_5/fs_strong_check.c:159 (discriminator 3)
  400a58:	8fc20010 	lw	v0,16(s8)
  400a5c:	00000000 	nop
  400a60:	24420001 	addiu	v0,v0,1
  400a64:	afc20010 	sw	v0,16(s8)
/home/git/21373271/21373271/tests/lab5_5/fs_strong_check.c:159 (discriminator 1)
  400a68:	8fc20010 	lw	v0,16(s8)
  400a6c:	00000000 	nop
  400a70:	28420004 	slti	v0,v0,4
  400a74:	1440ffd7 	bnez	v0,4009d4 <main+0x134>
  400a78:	00000000 	nop
/home/git/21373271/21373271/tests/lab5_5/fs_strong_check.c:166
  400a7c:	afc00010 	sw	zero,16(s8)
  400a80:	1000000f 	b	400ac0 <main+0x220>
  400a84:	00000000 	nop
/home/git/21373271/21373271/tests/lab5_5/fs_strong_check.c:167 (discriminator 3)
  400a88:	8fc20010 	lw	v0,16(s8)
  400a8c:	00000000 	nop
  400a90:	00021080 	sll	v0,v0,0x2
  400a94:	27c30010 	addiu	v1,s8,16
  400a98:	00621021 	addu	v0,v1,v0
  400a9c:	8c420290 	lw	v0,656(v0)
  400aa0:	00000000 	nop
  400aa4:	00402025 	move	a0,v0
  400aa8:	0c100078 	jal	4001e0 <test_fd_alloc>
  400aac:	00000000 	nop
/home/git/21373271/21373271/tests/lab5_5/fs_strong_check.c:166 (discriminator 3)
  400ab0:	8fc20010 	lw	v0,16(s8)
  400ab4:	00000000 	nop
  400ab8:	24420001 	addiu	v0,v0,1
  400abc:	afc20010 	sw	v0,16(s8)
/home/git/21373271/21373271/tests/lab5_5/fs_strong_check.c:166 (discriminator 1)
  400ac0:	8fc20010 	lw	v0,16(s8)
  400ac4:	00000000 	nop
  400ac8:	28420004 	slti	v0,v0,4
  400acc:	1440ffee 	bnez	v0,400a88 <main+0x1e8>
  400ad0:	00000000 	nop
/home/git/21373271/21373271/tests/lab5_5/fs_strong_check.c:170
  400ad4:	afc00010 	sw	zero,16(s8)
  400ad8:	1000000f 	b	400b18 <main+0x278>
  400adc:	00000000 	nop
/home/git/21373271/21373271/tests/lab5_5/fs_strong_check.c:171 (discriminator 3)
  400ae0:	8fc20010 	lw	v0,16(s8)
  400ae4:	00000000 	nop
  400ae8:	00021080 	sll	v0,v0,0x2
  400aec:	27c30010 	addiu	v1,s8,16
  400af0:	00621021 	addu	v0,v1,v0
  400af4:	8c420290 	lw	v0,656(v0)
  400af8:	00000000 	nop
  400afc:	00402025 	move	a0,v0
  400b00:	0c1000d2 	jal	400348 <test_close>
  400b04:	00000000 	nop
/home/git/21373271/21373271/tests/lab5_5/fs_strong_check.c:170 (discriminator 3)
  400b08:	8fc20010 	lw	v0,16(s8)
  400b0c:	00000000 	nop
  400b10:	24420001 	addiu	v0,v0,1
  400b14:	afc20010 	sw	v0,16(s8)
/home/git/21373271/21373271/tests/lab5_5/fs_strong_check.c:170 (discriminator 1)
  400b18:	8fc20010 	lw	v0,16(s8)
  400b1c:	00000000 	nop
  400b20:	28420004 	slti	v0,v0,4
  400b24:	1440ffee 	bnez	v0,400ae0 <main+0x240>
  400b28:	00000000 	nop
/home/git/21373271/21373271/tests/lab5_5/fs_strong_check.c:174
  400b2c:	afc00010 	sw	zero,16(s8)
  400b30:	1000000f 	b	400b70 <main+0x2d0>
  400b34:	00000000 	nop
/home/git/21373271/21373271/tests/lab5_5/fs_strong_check.c:175 (discriminator 3)
  400b38:	8fc20010 	lw	v0,16(s8)
  400b3c:	00000000 	nop
  400b40:	00021080 	sll	v0,v0,0x2
  400b44:	27c30010 	addiu	v1,s8,16
  400b48:	00621021 	addu	v0,v1,v0
  400b4c:	8c420290 	lw	v0,656(v0)
  400b50:	00000000 	nop
  400b54:	00402025 	move	a0,v0
  400b58:	0c100152 	jal	400548 <test_mode>
  400b5c:	00000000 	nop
/home/git/21373271/21373271/tests/lab5_5/fs_strong_check.c:174 (discriminator 3)
  400b60:	8fc20010 	lw	v0,16(s8)
  400b64:	00000000 	nop
  400b68:	24420001 	addiu	v0,v0,1
  400b6c:	afc20010 	sw	v0,16(s8)
/home/git/21373271/21373271/tests/lab5_5/fs_strong_check.c:174 (discriminator 1)
  400b70:	8fc20010 	lw	v0,16(s8)
  400b74:	00000000 	nop
  400b78:	28420004 	slti	v0,v0,4
  400b7c:	1440ffee 	bnez	v0,400b38 <main+0x298>
  400b80:	00000000 	nop
/home/git/21373271/21373271/tests/lab5_5/fs_strong_check.c:178
  400b84:	afc00010 	sw	zero,16(s8)
  400b88:	1000000f 	b	400bc8 <main+0x328>
  400b8c:	00000000 	nop
/home/git/21373271/21373271/tests/lab5_5/fs_strong_check.c:179 (discriminator 3)
  400b90:	8fc20010 	lw	v0,16(s8)
  400b94:	00000000 	nop
  400b98:	00021080 	sll	v0,v0,0x2
  400b9c:	27c30010 	addiu	v1,s8,16
  400ba0:	00621021 	addu	v0,v1,v0
  400ba4:	8c420290 	lw	v0,656(v0)
  400ba8:	00000000 	nop
  400bac:	00402025 	move	a0,v0
  400bb0:	0c1001d0 	jal	400740 <test_remove>
  400bb4:	00000000 	nop
/home/git/21373271/21373271/tests/lab5_5/fs_strong_check.c:178 (discriminator 3)
  400bb8:	8fc20010 	lw	v0,16(s8)
  400bbc:	00000000 	nop
  400bc0:	24420001 	addiu	v0,v0,1
  400bc4:	afc20010 	sw	v0,16(s8)
/home/git/21373271/21373271/tests/lab5_5/fs_strong_check.c:178 (discriminator 1)
  400bc8:	8fc20010 	lw	v0,16(s8)
  400bcc:	00000000 	nop
  400bd0:	28420004 	slti	v0,v0,4
  400bd4:	1440ffee 	bnez	v0,400b90 <main+0x2f0>
  400bd8:	00000000 	nop
/home/git/21373271/21373271/tests/lab5_5/fs_strong_check.c:182
  400bdc:	27c302b0 	addiu	v1,s8,688
  400be0:	24060004 	li	a2,4
  400be4:	3c021000 	lui	v0,0x1000
  400be8:	34450010 	ori	a1,v0,0x10
  400bec:	00602025 	move	a0,v1
  400bf0:	0c100ef0 	jal	403bc0 <syscall_read_dev>
  400bf4:	00000000 	nop
/home/git/21373271/21373271/tests/lab5_5/fs_strong_check.c:183
  400bf8:	00001025 	move	v0,zero
/home/git/21373271/21373271/tests/lab5_5/fs_strong_check.c:184
  400bfc:	03c0e825 	move	sp,s8
  400c00:	8fbf02bc 	lw	ra,700(sp)
  400c04:	8fbe02b8 	lw	s8,696(sp)
  400c08:	27bd02c0 	addiu	sp,sp,704
  400c0c:	03e00008 	jr	ra
  400c10:	00000000 	nop
	...

00400c20 <iscons>:
iscons():
/home/git/21373271/21373271/user/lib/console.c:18
  400c20:	27bdffe0 	addiu	sp,sp,-32
  400c24:	afbf001c 	sw	ra,28(sp)
  400c28:	afbe0018 	sw	s8,24(sp)
  400c2c:	03a0f025 	move	s8,sp
  400c30:	afc40020 	sw	a0,32(s8)
/home/git/21373271/21373271/user/lib/console.c:22
  400c34:	27c20014 	addiu	v0,s8,20
  400c38:	00402825 	move	a1,v0
  400c3c:	8fc40020 	lw	a0,32(s8)
  400c40:	0c10055b 	jal	40156c <fd_lookup>
  400c44:	00000000 	nop
  400c48:	afc20010 	sw	v0,16(s8)
  400c4c:	8fc20010 	lw	v0,16(s8)
  400c50:	00000000 	nop
  400c54:	04410004 	bgez	v0,400c68 <iscons+0x48>
  400c58:	00000000 	nop
/home/git/21373271/21373271/user/lib/console.c:23
  400c5c:	8fc20010 	lw	v0,16(s8)
  400c60:	1000000a 	b	400c8c <iscons+0x6c>
  400c64:	00000000 	nop
/home/git/21373271/21373271/user/lib/console.c:25
  400c68:	8fc20014 	lw	v0,20(s8)
  400c6c:	00000000 	nop
  400c70:	8c420000 	lw	v0,0(v0)
  400c74:	3c030041 	lui	v1,0x41
  400c78:	8c639010 	lw	v1,-28656(v1)
  400c7c:	00000000 	nop
  400c80:	00431026 	xor	v0,v0,v1
  400c84:	2c420001 	sltiu	v0,v0,1
  400c88:	304200ff 	andi	v0,v0,0xff
/home/git/21373271/21373271/user/lib/console.c:26 (discriminator 1)
  400c8c:	03c0e825 	move	sp,s8
  400c90:	8fbf001c 	lw	ra,28(sp)
  400c94:	8fbe0018 	lw	s8,24(sp)
  400c98:	27bd0020 	addiu	sp,sp,32
  400c9c:	03e00008 	jr	ra
  400ca0:	00000000 	nop

00400ca4 <opencons>:
opencons():
/home/git/21373271/21373271/user/lib/console.c:28
  400ca4:	27bdffe0 	addiu	sp,sp,-32
  400ca8:	afbf001c 	sw	ra,28(sp)
  400cac:	afbe0018 	sw	s8,24(sp)
  400cb0:	03a0f025 	move	s8,sp
/home/git/21373271/21373271/user/lib/console.c:32
  400cb4:	27c20014 	addiu	v0,s8,20
  400cb8:	00402025 	move	a0,v0
  400cbc:	0c10050a 	jal	401428 <fd_alloc>
  400cc0:	00000000 	nop
  400cc4:	afc20010 	sw	v0,16(s8)
  400cc8:	8fc20010 	lw	v0,16(s8)
  400ccc:	00000000 	nop
  400cd0:	04410004 	bgez	v0,400ce4 <opencons+0x40>
  400cd4:	00000000 	nop
/home/git/21373271/21373271/user/lib/console.c:33
  400cd8:	8fc20010 	lw	v0,16(s8)
  400cdc:	1000001c 	b	400d50 <opencons+0xac>
  400ce0:	00000000 	nop
/home/git/21373271/21373271/user/lib/console.c:35
  400ce4:	8fc20014 	lw	v0,20(s8)
  400ce8:	24060404 	li	a2,1028
  400cec:	00402825 	move	a1,v0
  400cf0:	00002025 	move	a0,zero
  400cf4:	0c100e38 	jal	4038e0 <syscall_mem_alloc>
  400cf8:	00000000 	nop
  400cfc:	afc20010 	sw	v0,16(s8)
  400d00:	8fc20010 	lw	v0,16(s8)
  400d04:	00000000 	nop
  400d08:	04410004 	bgez	v0,400d1c <opencons+0x78>
  400d0c:	00000000 	nop
/home/git/21373271/21373271/user/lib/console.c:36
  400d10:	8fc20010 	lw	v0,16(s8)
  400d14:	1000000e 	b	400d50 <opencons+0xac>
  400d18:	00000000 	nop
/home/git/21373271/21373271/user/lib/console.c:38
  400d1c:	3c020041 	lui	v0,0x41
  400d20:	8c439010 	lw	v1,-28656(v0)
  400d24:	8fc20014 	lw	v0,20(s8)
  400d28:	00000000 	nop
  400d2c:	ac430000 	sw	v1,0(v0)
/home/git/21373271/21373271/user/lib/console.c:39
  400d30:	8fc20014 	lw	v0,20(s8)
  400d34:	24030002 	li	v1,2
  400d38:	ac430008 	sw	v1,8(v0)
/home/git/21373271/21373271/user/lib/console.c:40
  400d3c:	8fc20014 	lw	v0,20(s8)
  400d40:	00000000 	nop
  400d44:	00402025 	move	a0,v0
  400d48:	0c100596 	jal	401658 <fd2num>
  400d4c:	00000000 	nop
/home/git/21373271/21373271/user/lib/console.c:41 (discriminator 1)
  400d50:	03c0e825 	move	sp,s8
  400d54:	8fbf001c 	lw	ra,28(sp)
  400d58:	8fbe0018 	lw	s8,24(sp)
  400d5c:	27bd0020 	addiu	sp,sp,32
  400d60:	03e00008 	jr	ra
  400d64:	00000000 	nop

00400d68 <cons_read>:
cons_read():
/home/git/21373271/21373271/user/lib/console.c:43
  400d68:	27bdffe0 	addiu	sp,sp,-32
  400d6c:	afbf001c 	sw	ra,28(sp)
  400d70:	afbe0018 	sw	s8,24(sp)
  400d74:	03a0f025 	move	s8,sp
  400d78:	afc40020 	sw	a0,32(s8)
  400d7c:	afc50024 	sw	a1,36(s8)
  400d80:	afc60028 	sw	a2,40(s8)
  400d84:	afc7002c 	sw	a3,44(s8)
/home/git/21373271/21373271/user/lib/console.c:46
  400d88:	8fc20028 	lw	v0,40(s8)
  400d8c:	00000000 	nop
  400d90:	14400006 	bnez	v0,400dac <cons_read+0x44>
  400d94:	00000000 	nop
/home/git/21373271/21373271/user/lib/console.c:47
  400d98:	00001025 	move	v0,zero
  400d9c:	1000002f 	b	400e5c <cons_read+0xf4>
  400da0:	00000000 	nop
/home/git/21373271/21373271/user/lib/console.c:51
  400da4:	0c100e0a 	jal	403828 <syscall_yield>
  400da8:	00000000 	nop
/home/git/21373271/21373271/user/lib/console.c:50
  400dac:	0c100ed0 	jal	403b40 <syscall_cgetc>
  400db0:	00000000 	nop
  400db4:	afc20010 	sw	v0,16(s8)
  400db8:	8fc20010 	lw	v0,16(s8)
  400dbc:	00000000 	nop
  400dc0:	1040fff8 	beqz	v0,400da4 <cons_read+0x3c>
  400dc4:	00000000 	nop
/home/git/21373271/21373271/user/lib/console.c:54
  400dc8:	8fc30010 	lw	v1,16(s8)
  400dcc:	2402000d 	li	v0,13
  400dd0:	10620008 	beq	v1,v0,400df4 <cons_read+0x8c>
  400dd4:	00000000 	nop
/home/git/21373271/21373271/user/lib/console.c:55
  400dd8:	8fc50010 	lw	a1,16(s8)
  400ddc:	3c020040 	lui	v0,0x40
  400de0:	24447be8 	addiu	a0,v0,31720
  400de4:	0c100470 	jal	4011c0 <debugf>
  400de8:	00000000 	nop
  400dec:	10000005 	b	400e04 <cons_read+0x9c>
  400df0:	00000000 	nop
/home/git/21373271/21373271/user/lib/console.c:57
  400df4:	3c020040 	lui	v0,0x40
  400df8:	24447bec 	addiu	a0,v0,31724
  400dfc:	0c100470 	jal	4011c0 <debugf>
  400e00:	00000000 	nop
/home/git/21373271/21373271/user/lib/console.c:59
  400e04:	8fc20010 	lw	v0,16(s8)
  400e08:	00000000 	nop
  400e0c:	04410004 	bgez	v0,400e20 <cons_read+0xb8>
  400e10:	00000000 	nop
/home/git/21373271/21373271/user/lib/console.c:60
  400e14:	8fc20010 	lw	v0,16(s8)
  400e18:	10000010 	b	400e5c <cons_read+0xf4>
  400e1c:	00000000 	nop
/home/git/21373271/21373271/user/lib/console.c:62
  400e20:	8fc30010 	lw	v1,16(s8)
  400e24:	24020004 	li	v0,4
  400e28:	14620004 	bne	v1,v0,400e3c <cons_read+0xd4>
  400e2c:	00000000 	nop
/home/git/21373271/21373271/user/lib/console.c:63
  400e30:	00001025 	move	v0,zero
  400e34:	10000009 	b	400e5c <cons_read+0xf4>
  400e38:	00000000 	nop
/home/git/21373271/21373271/user/lib/console.c:65
  400e3c:	8fc20010 	lw	v0,16(s8)
  400e40:	00000000 	nop
  400e44:	00021e00 	sll	v1,v0,0x18
  400e48:	00031e03 	sra	v1,v1,0x18
  400e4c:	8fc20024 	lw	v0,36(s8)
  400e50:	00000000 	nop
  400e54:	a0430000 	sb	v1,0(v0)
/home/git/21373271/21373271/user/lib/console.c:66
  400e58:	24020001 	li	v0,1
/home/git/21373271/21373271/user/lib/console.c:67
  400e5c:	03c0e825 	move	sp,s8
  400e60:	8fbf001c 	lw	ra,28(sp)
  400e64:	8fbe0018 	lw	s8,24(sp)
  400e68:	27bd0020 	addiu	sp,sp,32
  400e6c:	03e00008 	jr	ra
  400e70:	00000000 	nop

00400e74 <cons_write>:
cons_write():
/home/git/21373271/21373271/user/lib/console.c:69
  400e74:	27bdffe0 	addiu	sp,sp,-32
  400e78:	afbf001c 	sw	ra,28(sp)
  400e7c:	afbe0018 	sw	s8,24(sp)
  400e80:	03a0f025 	move	s8,sp
  400e84:	afc40020 	sw	a0,32(s8)
  400e88:	afc50024 	sw	a1,36(s8)
  400e8c:	afc60028 	sw	a2,40(s8)
  400e90:	afc7002c 	sw	a3,44(s8)
/home/git/21373271/21373271/user/lib/console.c:70
  400e94:	8fc50028 	lw	a1,40(s8)
  400e98:	8fc40024 	lw	a0,36(s8)
  400e9c:	0c100dec 	jal	4037b0 <syscall_print_cons>
  400ea0:	00000000 	nop
  400ea4:	afc20010 	sw	v0,16(s8)
/home/git/21373271/21373271/user/lib/console.c:71
  400ea8:	8fc20010 	lw	v0,16(s8)
  400eac:	00000000 	nop
  400eb0:	04410004 	bgez	v0,400ec4 <cons_write+0x50>
  400eb4:	00000000 	nop
/home/git/21373271/21373271/user/lib/console.c:72
  400eb8:	8fc20010 	lw	v0,16(s8)
  400ebc:	10000002 	b	400ec8 <cons_write+0x54>
  400ec0:	00000000 	nop
/home/git/21373271/21373271/user/lib/console.c:74
  400ec4:	8fc20028 	lw	v0,40(s8)
/home/git/21373271/21373271/user/lib/console.c:75
  400ec8:	03c0e825 	move	sp,s8
  400ecc:	8fbf001c 	lw	ra,28(sp)
  400ed0:	8fbe0018 	lw	s8,24(sp)
  400ed4:	27bd0020 	addiu	sp,sp,32
  400ed8:	03e00008 	jr	ra
  400edc:	00000000 	nop

00400ee0 <cons_close>:
cons_close():
/home/git/21373271/21373271/user/lib/console.c:77
  400ee0:	27bdfff8 	addiu	sp,sp,-8
  400ee4:	afbe0004 	sw	s8,4(sp)
  400ee8:	03a0f025 	move	s8,sp
  400eec:	afc40008 	sw	a0,8(s8)
/home/git/21373271/21373271/user/lib/console.c:78
  400ef0:	00001025 	move	v0,zero
/home/git/21373271/21373271/user/lib/console.c:79
  400ef4:	03c0e825 	move	sp,s8
  400ef8:	8fbe0004 	lw	s8,4(sp)
  400efc:	27bd0008 	addiu	sp,sp,8
  400f00:	03e00008 	jr	ra
  400f04:	00000000 	nop

00400f08 <cons_stat>:
cons_stat():
/home/git/21373271/21373271/user/lib/console.c:81
  400f08:	27bdffe8 	addiu	sp,sp,-24
  400f0c:	afbf0014 	sw	ra,20(sp)
  400f10:	afbe0010 	sw	s8,16(sp)
  400f14:	03a0f025 	move	s8,sp
  400f18:	afc40018 	sw	a0,24(s8)
  400f1c:	afc5001c 	sw	a1,28(s8)
/home/git/21373271/21373271/user/lib/console.c:82
  400f20:	8fc3001c 	lw	v1,28(s8)
  400f24:	3c020040 	lui	v0,0x40
  400f28:	24457bf0 	addiu	a1,v0,31728
  400f2c:	00602025 	move	a0,v1
  400f30:	0c101dcf 	jal	40773c <strcpy>
  400f34:	00000000 	nop
/home/git/21373271/21373271/user/lib/console.c:83
  400f38:	00001025 	move	v0,zero
/home/git/21373271/21373271/user/lib/console.c:84
  400f3c:	03c0e825 	move	sp,s8
  400f40:	8fbf0014 	lw	ra,20(sp)
  400f44:	8fbe0010 	lw	s8,16(sp)
  400f48:	27bd0018 	addiu	sp,sp,24
  400f4c:	03e00008 	jr	ra
  400f50:	00000000 	nop
	...

00400f60 <debug_flush>:
debug_flush():
/home/git/21373271/21373271/user/lib/debugf.c:11
struct debug_ctx {
	char buf[BUF_LEN];
	size_t pos;
};

static void debug_flush(struct debug_ctx *ctx) {
  400f60:	27bdffe0 	addiu	sp,sp,-32
  400f64:	afbf001c 	sw	ra,28(sp)
  400f68:	afbe0018 	sw	s8,24(sp)
  400f6c:	03a0f025 	move	s8,sp
  400f70:	afc40020 	sw	a0,32(s8)
/home/git/21373271/21373271/user/lib/debugf.c:12
	if (ctx->pos == 0) {
  400f74:	8fc20020 	lw	v0,32(s8)
  400f78:	00000000 	nop
  400f7c:	8c420400 	lw	v0,1024(v0)
  400f80:	00000000 	nop
  400f84:	1040001c 	beqz	v0,400ff8 <debug_flush+0x98>
  400f88:	00000000 	nop
/home/git/21373271/21373271/user/lib/debugf.c:16
		return;
	}
	int r;
	if ((r = syscall_print_cons(ctx->buf, ctx->pos)) != 0) {
  400f8c:	8fc30020 	lw	v1,32(s8)
  400f90:	8fc20020 	lw	v0,32(s8)
  400f94:	00000000 	nop
  400f98:	8c420400 	lw	v0,1024(v0)
  400f9c:	00000000 	nop
  400fa0:	00402825 	move	a1,v0
  400fa4:	00602025 	move	a0,v1
  400fa8:	0c100dec 	jal	4037b0 <syscall_print_cons>
  400fac:	00000000 	nop
  400fb0:	afc20010 	sw	v0,16(s8)
  400fb4:	8fc20010 	lw	v0,16(s8)
  400fb8:	00000000 	nop
  400fbc:	10400009 	beqz	v0,400fe4 <debug_flush+0x84>
  400fc0:	00000000 	nop
/home/git/21373271/21373271/user/lib/debugf.c:17
		user_panic("syscall_print_cons: %d", r);
  400fc4:	8fc70010 	lw	a3,16(s8)
  400fc8:	3c020040 	lui	v0,0x40
  400fcc:	24467c00 	addiu	a2,v0,31744
  400fd0:	24050011 	li	a1,17
  400fd4:	3c020040 	lui	v0,0x40
  400fd8:	24447c18 	addiu	a0,v0,31768
  400fdc:	0c100487 	jal	40121c <_user_panic>
  400fe0:	00000000 	nop
/home/git/21373271/21373271/user/lib/debugf.c:19
	}
	ctx->pos = 0;
  400fe4:	8fc20020 	lw	v0,32(s8)
  400fe8:	00000000 	nop
  400fec:	ac400400 	sw	zero,1024(v0)
  400ff0:	10000002 	b	400ffc <debug_flush+0x9c>
  400ff4:	00000000 	nop
/home/git/21373271/21373271/user/lib/debugf.c:13
		return;
  400ff8:	00000000 	nop
/home/git/21373271/21373271/user/lib/debugf.c:20
}
  400ffc:	03c0e825 	move	sp,s8
  401000:	8fbf001c 	lw	ra,28(sp)
  401004:	8fbe0018 	lw	s8,24(sp)
  401008:	27bd0020 	addiu	sp,sp,32
  40100c:	03e00008 	jr	ra
  401010:	00000000 	nop

00401014 <debug_output>:
debug_output():
/home/git/21373271/21373271/user/lib/debugf.c:22

static void debug_output(void *data, const char *s, size_t l) {
  401014:	27bdffe0 	addiu	sp,sp,-32
  401018:	afbf001c 	sw	ra,28(sp)
  40101c:	afbe0018 	sw	s8,24(sp)
  401020:	03a0f025 	move	s8,sp
  401024:	afc40020 	sw	a0,32(s8)
  401028:	afc50024 	sw	a1,36(s8)
  40102c:	afc60028 	sw	a2,40(s8)
/home/git/21373271/21373271/user/lib/debugf.c:23
	struct debug_ctx *ctx = (struct debug_ctx *)data;
  401030:	8fc20020 	lw	v0,32(s8)
  401034:	00000000 	nop
  401038:	afc20010 	sw	v0,16(s8)
/home/git/21373271/21373271/user/lib/debugf.c:25

	while (ctx->pos + l > BUF_LEN) {
  40103c:	10000022 	b	4010c8 <debug_output+0xb4>
  401040:	00000000 	nop
/home/git/21373271/21373271/user/lib/debugf.c:26
		size_t n = BUF_LEN - ctx->pos;
  401044:	8fc20010 	lw	v0,16(s8)
  401048:	00000000 	nop
  40104c:	8c420400 	lw	v0,1024(v0)
  401050:	24030400 	li	v1,1024
  401054:	00621023 	subu	v0,v1,v0
  401058:	afc20014 	sw	v0,20(s8)
/home/git/21373271/21373271/user/lib/debugf.c:27
		memcpy(ctx->buf + ctx->pos, s, n);
  40105c:	8fc30010 	lw	v1,16(s8)
  401060:	8fc20010 	lw	v0,16(s8)
  401064:	00000000 	nop
  401068:	8c420400 	lw	v0,1024(v0)
  40106c:	00000000 	nop
  401070:	00621021 	addu	v0,v1,v0
  401074:	8fc60014 	lw	a2,20(s8)
  401078:	8fc50024 	lw	a1,36(s8)
  40107c:	00402025 	move	a0,v0
  401080:	0c101ce8 	jal	4073a0 <memcpy>
  401084:	00000000 	nop
/home/git/21373271/21373271/user/lib/debugf.c:28
		s += n;
  401088:	8fc30024 	lw	v1,36(s8)
  40108c:	8fc20014 	lw	v0,20(s8)
  401090:	00000000 	nop
  401094:	00621021 	addu	v0,v1,v0
  401098:	afc20024 	sw	v0,36(s8)
/home/git/21373271/21373271/user/lib/debugf.c:29
		l -= n;
  40109c:	8fc30028 	lw	v1,40(s8)
  4010a0:	8fc20014 	lw	v0,20(s8)
  4010a4:	00000000 	nop
  4010a8:	00621023 	subu	v0,v1,v0
  4010ac:	afc20028 	sw	v0,40(s8)
/home/git/21373271/21373271/user/lib/debugf.c:30
		ctx->pos = BUF_LEN;
  4010b0:	8fc20010 	lw	v0,16(s8)
  4010b4:	24030400 	li	v1,1024
  4010b8:	ac430400 	sw	v1,1024(v0)
/home/git/21373271/21373271/user/lib/debugf.c:31
		debug_flush(ctx);
  4010bc:	8fc40010 	lw	a0,16(s8)
  4010c0:	0c1003d8 	jal	400f60 <debug_flush>
  4010c4:	00000000 	nop
/home/git/21373271/21373271/user/lib/debugf.c:25
	while (ctx->pos + l > BUF_LEN) {
  4010c8:	8fc20010 	lw	v0,16(s8)
  4010cc:	00000000 	nop
  4010d0:	8c430400 	lw	v1,1024(v0)
  4010d4:	8fc20028 	lw	v0,40(s8)
  4010d8:	00000000 	nop
  4010dc:	00621021 	addu	v0,v1,v0
  4010e0:	2c420401 	sltiu	v0,v0,1025
  4010e4:	1040ffd7 	beqz	v0,401044 <debug_output+0x30>
  4010e8:	00000000 	nop
/home/git/21373271/21373271/user/lib/debugf.c:33
	}
	memcpy(ctx->buf + ctx->pos, s, l);
  4010ec:	8fc30010 	lw	v1,16(s8)
  4010f0:	8fc20010 	lw	v0,16(s8)
  4010f4:	00000000 	nop
  4010f8:	8c420400 	lw	v0,1024(v0)
  4010fc:	00000000 	nop
  401100:	00621021 	addu	v0,v1,v0
  401104:	8fc60028 	lw	a2,40(s8)
  401108:	8fc50024 	lw	a1,36(s8)
  40110c:	00402025 	move	a0,v0
  401110:	0c101ce8 	jal	4073a0 <memcpy>
  401114:	00000000 	nop
/home/git/21373271/21373271/user/lib/debugf.c:34
	ctx->pos += l;
  401118:	8fc20010 	lw	v0,16(s8)
  40111c:	00000000 	nop
  401120:	8c430400 	lw	v1,1024(v0)
  401124:	8fc20028 	lw	v0,40(s8)
  401128:	00000000 	nop
  40112c:	00621821 	addu	v1,v1,v0
  401130:	8fc20010 	lw	v0,16(s8)
  401134:	00000000 	nop
  401138:	ac430400 	sw	v1,1024(v0)
/home/git/21373271/21373271/user/lib/debugf.c:35
}
  40113c:	00000000 	nop
  401140:	03c0e825 	move	sp,s8
  401144:	8fbf001c 	lw	ra,28(sp)
  401148:	8fbe0018 	lw	s8,24(sp)
  40114c:	27bd0020 	addiu	sp,sp,32
  401150:	03e00008 	jr	ra
  401154:	00000000 	nop

00401158 <vdebugf>:
vdebugf():
/home/git/21373271/21373271/user/lib/debugf.c:37

static void vdebugf(const char *fmt, va_list ap) {
  401158:	27bdfbe0 	addiu	sp,sp,-1056
  40115c:	afbf041c 	sw	ra,1052(sp)
  401160:	afbe0418 	sw	s8,1048(sp)
  401164:	03a0f025 	move	s8,sp
  401168:	afc40420 	sw	a0,1056(s8)
  40116c:	afc50424 	sw	a1,1060(s8)
/home/git/21373271/21373271/user/lib/debugf.c:39
	struct debug_ctx ctx;
	ctx.pos = 0;
  401170:	afc00410 	sw	zero,1040(s8)
/home/git/21373271/21373271/user/lib/debugf.c:40
	vprintfmt(debug_output, &ctx, fmt, ap);
  401174:	8fc70424 	lw	a3,1060(s8)
  401178:	8fc60420 	lw	a2,1056(s8)
  40117c:	27c20010 	addiu	v0,s8,16
  401180:	00402825 	move	a1,v0
  401184:	3c020040 	lui	v0,0x40
  401188:	24441014 	addiu	a0,v0,4116
  40118c:	0c101944 	jal	406510 <vprintfmt>
  401190:	00000000 	nop
/home/git/21373271/21373271/user/lib/debugf.c:41
	debug_flush(&ctx);
  401194:	27c20010 	addiu	v0,s8,16
  401198:	00402025 	move	a0,v0
  40119c:	0c1003d8 	jal	400f60 <debug_flush>
  4011a0:	00000000 	nop
/home/git/21373271/21373271/user/lib/debugf.c:42
}
  4011a4:	00000000 	nop
  4011a8:	03c0e825 	move	sp,s8
  4011ac:	8fbf041c 	lw	ra,1052(sp)
  4011b0:	8fbe0418 	lw	s8,1048(sp)
  4011b4:	27bd0420 	addiu	sp,sp,1056
  4011b8:	03e00008 	jr	ra
  4011bc:	00000000 	nop

004011c0 <debugf>:
debugf():
/home/git/21373271/21373271/user/lib/debugf.c:44

void debugf(const char *fmt, ...) {
  4011c0:	27bdffe0 	addiu	sp,sp,-32
  4011c4:	afbf001c 	sw	ra,28(sp)
  4011c8:	afbe0018 	sw	s8,24(sp)
  4011cc:	03a0f025 	move	s8,sp
  4011d0:	afc40020 	sw	a0,32(s8)
  4011d4:	afc50024 	sw	a1,36(s8)
  4011d8:	afc60028 	sw	a2,40(s8)
  4011dc:	afc7002c 	sw	a3,44(s8)
/home/git/21373271/21373271/user/lib/debugf.c:46
	va_list ap;
	va_start(ap, fmt);
  4011e0:	27c20024 	addiu	v0,s8,36
  4011e4:	afc20010 	sw	v0,16(s8)
/home/git/21373271/21373271/user/lib/debugf.c:47
	vdebugf(fmt, ap);
  4011e8:	8fc20010 	lw	v0,16(s8)
  4011ec:	00000000 	nop
  4011f0:	00402825 	move	a1,v0
  4011f4:	8fc40020 	lw	a0,32(s8)
  4011f8:	0c100456 	jal	401158 <vdebugf>
  4011fc:	00000000 	nop
/home/git/21373271/21373271/user/lib/debugf.c:49
	va_end(ap);
}
  401200:	00000000 	nop
  401204:	03c0e825 	move	sp,s8
  401208:	8fbf001c 	lw	ra,28(sp)
  40120c:	8fbe0018 	lw	s8,24(sp)
  401210:	27bd0020 	addiu	sp,sp,32
  401214:	03e00008 	jr	ra
  401218:	00000000 	nop

0040121c <_user_panic>:
_user_panic():
/home/git/21373271/21373271/user/lib/debugf.c:51

void _user_panic(const char *file, int line, const char *fmt, ...) {
  40121c:	27bdffe0 	addiu	sp,sp,-32
  401220:	afbf001c 	sw	ra,28(sp)
  401224:	afbe0018 	sw	s8,24(sp)
  401228:	03a0f025 	move	s8,sp
  40122c:	afc40020 	sw	a0,32(s8)
  401230:	afc50024 	sw	a1,36(s8)
  401234:	afc60028 	sw	a2,40(s8)
  401238:	afc7002c 	sw	a3,44(s8)
/home/git/21373271/21373271/user/lib/debugf.c:52
	debugf("panic at %s:%d: ", file, line);
  40123c:	8fc60024 	lw	a2,36(s8)
  401240:	8fc50020 	lw	a1,32(s8)
  401244:	3c020040 	lui	v0,0x40
  401248:	24447c28 	addiu	a0,v0,31784
  40124c:	0c100470 	jal	4011c0 <debugf>
  401250:	00000000 	nop
/home/git/21373271/21373271/user/lib/debugf.c:54
	va_list ap;
	va_start(ap, fmt);
  401254:	27c2002c 	addiu	v0,s8,44
  401258:	afc20010 	sw	v0,16(s8)
/home/git/21373271/21373271/user/lib/debugf.c:55
	vdebugf(fmt, ap);
  40125c:	8fc20010 	lw	v0,16(s8)
  401260:	00000000 	nop
  401264:	00402825 	move	a1,v0
  401268:	8fc40028 	lw	a0,40(s8)
  40126c:	0c100456 	jal	401158 <vdebugf>
  401270:	00000000 	nop
/home/git/21373271/21373271/user/lib/debugf.c:57
	va_end(ap);
	debugf("\n");
  401274:	3c020040 	lui	v0,0x40
  401278:	24447c3c 	addiu	a0,v0,31804
  40127c:	0c100470 	jal	4011c0 <debugf>
  401280:	00000000 	nop
/home/git/21373271/21373271/user/lib/debugf.c:58
	exit();
  401284:	0c100d78 	jal	4035e0 <exit>
  401288:	00000000 	nop

0040128c <_user_halt>:
_user_halt():
/home/git/21373271/21373271/user/lib/debugf.c:61
}

void _user_halt(const char *file, int line, const char *fmt, ...) {
  40128c:	27bdffe0 	addiu	sp,sp,-32
  401290:	afbf001c 	sw	ra,28(sp)
  401294:	afbe0018 	sw	s8,24(sp)
  401298:	03a0f025 	move	s8,sp
  40129c:	afc40020 	sw	a0,32(s8)
  4012a0:	afc50024 	sw	a1,36(s8)
  4012a4:	afc60028 	sw	a2,40(s8)
  4012a8:	afc7002c 	sw	a3,44(s8)
/home/git/21373271/21373271/user/lib/debugf.c:62
	debugf("halt at %s:%d: ", file, line);
  4012ac:	8fc60024 	lw	a2,36(s8)
  4012b0:	8fc50020 	lw	a1,32(s8)
  4012b4:	3c020040 	lui	v0,0x40
  4012b8:	24447c40 	addiu	a0,v0,31808
  4012bc:	0c100470 	jal	4011c0 <debugf>
  4012c0:	00000000 	nop
/home/git/21373271/21373271/user/lib/debugf.c:64
	va_list ap;
	va_start(ap, fmt);
  4012c4:	27c2002c 	addiu	v0,s8,44
  4012c8:	afc20010 	sw	v0,16(s8)
/home/git/21373271/21373271/user/lib/debugf.c:65
	vdebugf(fmt, ap);
  4012cc:	8fc20010 	lw	v0,16(s8)
  4012d0:	00000000 	nop
  4012d4:	00402825 	move	a1,v0
  4012d8:	8fc40028 	lw	a0,40(s8)
  4012dc:	0c100456 	jal	401158 <vdebugf>
  4012e0:	00000000 	nop
/home/git/21373271/21373271/user/lib/debugf.c:67
	va_end(ap);
	debugf("\n");
  4012e4:	3c020040 	lui	v0,0x40
  4012e8:	24447c3c 	addiu	a0,v0,31804
  4012ec:	0c100470 	jal	4011c0 <debugf>
  4012f0:	00000000 	nop
/home/git/21373271/21373271/user/lib/debugf.c:68
	syscall_panic("user halt");
  4012f4:	3c020040 	lui	v0,0x40
  4012f8:	24447c50 	addiu	a0,v0,31824
  4012fc:	0c100e98 	jal	403a60 <syscall_panic>
  401300:	00000000 	nop
	...

00401310 <_start>:
_start():
/home/git/21373271/21373271/user/lib/entry.S:5
#include <asm/asm.h>

.text
EXPORT(_start)
	lw      a0, 0(sp)
  401310:	8fa40000 	lw	a0,0(sp)
/home/git/21373271/21373271/user/lib/entry.S:6
	lw      a1, 4(sp)
  401314:	8fa50004 	lw	a1,4(sp)
/home/git/21373271/21373271/user/lib/entry.S:7
	jal     libmain
  401318:	0c100d88 	jal	403620 <libmain>
  40131c:	00000000 	nop

00401320 <dev_lookup>:
dev_lookup():
/home/git/21373271/21373271/user/lib/fd.c:12
  401320:	27bdffe0 	addiu	sp,sp,-32
  401324:	afbf001c 	sw	ra,28(sp)
  401328:	afbe0018 	sw	s8,24(sp)
  40132c:	03a0f025 	move	s8,sp
  401330:	afc40020 	sw	a0,32(s8)
  401334:	afc50024 	sw	a1,36(s8)
/home/git/21373271/21373271/user/lib/fd.c:13
  401338:	afc00010 	sw	zero,16(s8)
  40133c:	1000001f 	b	4013bc <dev_lookup+0x9c>
  401340:	00000000 	nop
/home/git/21373271/21373271/user/lib/fd.c:14
  401344:	3c020041 	lui	v0,0x41
  401348:	8fc30010 	lw	v1,16(s8)
  40134c:	00000000 	nop
  401350:	00031880 	sll	v1,v1,0x2
  401354:	24429030 	addiu	v0,v0,-28624
  401358:	00621021 	addu	v0,v1,v0
  40135c:	8c420000 	lw	v0,0(v0)
  401360:	00000000 	nop
  401364:	8c420000 	lw	v0,0(v0)
  401368:	8fc30020 	lw	v1,32(s8)
  40136c:	00000000 	nop
  401370:	1462000e 	bne	v1,v0,4013ac <dev_lookup+0x8c>
  401374:	00000000 	nop
/home/git/21373271/21373271/user/lib/fd.c:15
  401378:	3c020041 	lui	v0,0x41
  40137c:	8fc30010 	lw	v1,16(s8)
  401380:	00000000 	nop
  401384:	00031880 	sll	v1,v1,0x2
  401388:	24429030 	addiu	v0,v0,-28624
  40138c:	00621021 	addu	v0,v1,v0
  401390:	8c430000 	lw	v1,0(v0)
  401394:	8fc20024 	lw	v0,36(s8)
  401398:	00000000 	nop
  40139c:	ac430000 	sw	v1,0(v0)
/home/git/21373271/21373271/user/lib/fd.c:16
  4013a0:	00001025 	move	v0,zero
  4013a4:	1000001a 	b	401410 <dev_lookup+0xf0>
  4013a8:	00000000 	nop
/home/git/21373271/21373271/user/lib/fd.c:13 (discriminator 2)
  4013ac:	8fc20010 	lw	v0,16(s8)
  4013b0:	00000000 	nop
  4013b4:	24420001 	addiu	v0,v0,1
  4013b8:	afc20010 	sw	v0,16(s8)
/home/git/21373271/21373271/user/lib/fd.c:13 (discriminator 1)
  4013bc:	3c020041 	lui	v0,0x41
  4013c0:	8fc30010 	lw	v1,16(s8)
  4013c4:	00000000 	nop
  4013c8:	00031880 	sll	v1,v1,0x2
  4013cc:	24429030 	addiu	v0,v0,-28624
  4013d0:	00621021 	addu	v0,v1,v0
  4013d4:	8c420000 	lw	v0,0(v0)
  4013d8:	00000000 	nop
  4013dc:	1440ffd9 	bnez	v0,401344 <dev_lookup+0x24>
  4013e0:	00000000 	nop
/home/git/21373271/21373271/user/lib/fd.c:20
  4013e4:	3c020041 	lui	v0,0x41
  4013e8:	8c42b000 	lw	v0,-20480(v0)
  4013ec:	00000000 	nop
  4013f0:	8c4200a0 	lw	v0,160(v0)
  4013f4:	8fc60020 	lw	a2,32(s8)
  4013f8:	00402825 	move	a1,v0
  4013fc:	3c020040 	lui	v0,0x40
  401400:	24447c60 	addiu	a0,v0,31840
  401404:	0c100470 	jal	4011c0 <debugf>
  401408:	00000000 	nop
/home/git/21373271/21373271/user/lib/fd.c:21
  40140c:	2402fffd 	li	v0,-3
/home/git/21373271/21373271/user/lib/fd.c:22
  401410:	03c0e825 	move	sp,s8
  401414:	8fbf001c 	lw	ra,28(sp)
  401418:	8fbe0018 	lw	s8,24(sp)
  40141c:	27bd0020 	addiu	sp,sp,32
  401420:	03e00008 	jr	ra
  401424:	00000000 	nop

00401428 <fd_alloc>:
fd_alloc():
/home/git/21373271/21373271/user/lib/fd.c:34
  401428:	27bdfff0 	addiu	sp,sp,-16
  40142c:	afbe000c 	sw	s8,12(sp)
  401430:	03a0f025 	move	s8,sp
  401434:	afc40010 	sw	a0,16(s8)
/home/git/21373271/21373271/user/lib/fd.c:38
  401438:	afc00000 	sw	zero,0(s8)
  40143c:	10000030 	b	401500 <fd_alloc+0xd8>
  401440:	00000000 	nop
/home/git/21373271/21373271/user/lib/fd.c:39
  401444:	8fc30000 	lw	v1,0(s8)
  401448:	3c020005 	lui	v0,0x5
  40144c:	3442fc00 	ori	v0,v0,0xfc00
  401450:	00621021 	addu	v0,v1,v0
  401454:	00021300 	sll	v0,v0,0xc
  401458:	afc20004 	sw	v0,4(s8)
/home/git/21373271/21373271/user/lib/fd.c:41
  40145c:	8fc20004 	lw	v0,4(s8)
  401460:	00000000 	nop
  401464:	00021582 	srl	v0,v0,0x16
  401468:	00021880 	sll	v1,v0,0x2
  40146c:	3c027fdf 	lui	v0,0x7fdf
  401470:	3442f000 	ori	v0,v0,0xf000
  401474:	00621021 	addu	v0,v1,v0
  401478:	8c420000 	lw	v0,0(v0)
  40147c:	00000000 	nop
  401480:	30420200 	andi	v0,v0,0x200
  401484:	14400008 	bnez	v0,4014a8 <fd_alloc+0x80>
  401488:	00000000 	nop
/home/git/21373271/21373271/user/lib/fd.c:42
  40148c:	8fc30004 	lw	v1,4(s8)
  401490:	8fc20010 	lw	v0,16(s8)
  401494:	00000000 	nop
  401498:	ac430000 	sw	v1,0(v0)
/home/git/21373271/21373271/user/lib/fd.c:43
  40149c:	00001025 	move	v0,zero
  4014a0:	1000001d 	b	401518 <fd_alloc+0xf0>
  4014a4:	00000000 	nop
/home/git/21373271/21373271/user/lib/fd.c:46
  4014a8:	8fc20004 	lw	v0,4(s8)
  4014ac:	00000000 	nop
  4014b0:	00021302 	srl	v0,v0,0xc
  4014b4:	00021880 	sll	v1,v0,0x2
  4014b8:	3c027fc0 	lui	v0,0x7fc0
  4014bc:	00621021 	addu	v0,v1,v0
  4014c0:	8c420000 	lw	v0,0(v0)
  4014c4:	00000000 	nop
  4014c8:	30420200 	andi	v0,v0,0x200
  4014cc:	14400008 	bnez	v0,4014f0 <fd_alloc+0xc8>
  4014d0:	00000000 	nop
/home/git/21373271/21373271/user/lib/fd.c:47
  4014d4:	8fc30004 	lw	v1,4(s8)
  4014d8:	8fc20010 	lw	v0,16(s8)
  4014dc:	00000000 	nop
  4014e0:	ac430000 	sw	v1,0(v0)
/home/git/21373271/21373271/user/lib/fd.c:48
  4014e4:	00001025 	move	v0,zero
  4014e8:	1000000b 	b	401518 <fd_alloc+0xf0>
  4014ec:	00000000 	nop
/home/git/21373271/21373271/user/lib/fd.c:38 (discriminator 2)
  4014f0:	8fc20000 	lw	v0,0(s8)
  4014f4:	00000000 	nop
  4014f8:	24420001 	addiu	v0,v0,1
  4014fc:	afc20000 	sw	v0,0(s8)
/home/git/21373271/21373271/user/lib/fd.c:38 (discriminator 1)
  401500:	8fc20000 	lw	v0,0(s8)
  401504:	00000000 	nop
  401508:	2c42001f 	sltiu	v0,v0,31
  40150c:	1440ffcd 	bnez	v0,401444 <fd_alloc+0x1c>
  401510:	00000000 	nop
/home/git/21373271/21373271/user/lib/fd.c:52
  401514:	2402fff7 	li	v0,-9
/home/git/21373271/21373271/user/lib/fd.c:53
  401518:	03c0e825 	move	sp,s8
  40151c:	8fbe000c 	lw	s8,12(sp)
  401520:	27bd0010 	addiu	sp,sp,16
  401524:	03e00008 	jr	ra
  401528:	00000000 	nop

0040152c <fd_close>:
fd_close():
/home/git/21373271/21373271/user/lib/fd.c:55
  40152c:	27bdffe8 	addiu	sp,sp,-24
  401530:	afbf0014 	sw	ra,20(sp)
  401534:	afbe0010 	sw	s8,16(sp)
  401538:	03a0f025 	move	s8,sp
  40153c:	afc40018 	sw	a0,24(s8)
/home/git/21373271/21373271/user/lib/fd.c:56
  401540:	8fc50018 	lw	a1,24(s8)
  401544:	00002025 	move	a0,zero
  401548:	0c100e65 	jal	403994 <syscall_mem_unmap>
  40154c:	00000000 	nop
/home/git/21373271/21373271/user/lib/fd.c:57
  401550:	00000000 	nop
  401554:	03c0e825 	move	sp,s8
  401558:	8fbf0014 	lw	ra,20(sp)
  40155c:	8fbe0010 	lw	s8,16(sp)
  401560:	27bd0018 	addiu	sp,sp,24
  401564:	03e00008 	jr	ra
  401568:	00000000 	nop

0040156c <fd_lookup>:
fd_lookup():
/home/git/21373271/21373271/user/lib/fd.c:65
  40156c:	27bdfff0 	addiu	sp,sp,-16
  401570:	afbe000c 	sw	s8,12(sp)
  401574:	03a0f025 	move	s8,sp
  401578:	afc40010 	sw	a0,16(s8)
  40157c:	afc50014 	sw	a1,20(s8)
/home/git/21373271/21373271/user/lib/fd.c:68
  401580:	8fc20010 	lw	v0,16(s8)
  401584:	00000000 	nop
  401588:	28420020 	slti	v0,v0,32
  40158c:	14400004 	bnez	v0,4015a0 <fd_lookup+0x34>
  401590:	00000000 	nop
/home/git/21373271/21373271/user/lib/fd.c:69
  401594:	2402fffd 	li	v0,-3
  401598:	1000001a 	b	401604 <fd_lookup+0x98>
  40159c:	00000000 	nop
/home/git/21373271/21373271/user/lib/fd.c:72
  4015a0:	8fc30010 	lw	v1,16(s8)
  4015a4:	3c020005 	lui	v0,0x5
  4015a8:	3442fc00 	ori	v0,v0,0xfc00
  4015ac:	00621021 	addu	v0,v1,v0
  4015b0:	00021300 	sll	v0,v0,0xc
  4015b4:	afc20000 	sw	v0,0(s8)
/home/git/21373271/21373271/user/lib/fd.c:74
  4015b8:	8fc20000 	lw	v0,0(s8)
  4015bc:	00000000 	nop
  4015c0:	00021302 	srl	v0,v0,0xc
  4015c4:	00021880 	sll	v1,v0,0x2
  4015c8:	3c027fc0 	lui	v0,0x7fc0
  4015cc:	00621021 	addu	v0,v1,v0
  4015d0:	8c420000 	lw	v0,0(v0)
  4015d4:	00000000 	nop
  4015d8:	30420200 	andi	v0,v0,0x200
  4015dc:	10400008 	beqz	v0,401600 <fd_lookup+0x94>
  4015e0:	00000000 	nop
/home/git/21373271/21373271/user/lib/fd.c:75
  4015e4:	8fc30000 	lw	v1,0(s8)
  4015e8:	8fc20014 	lw	v0,20(s8)
  4015ec:	00000000 	nop
  4015f0:	ac430000 	sw	v1,0(v0)
/home/git/21373271/21373271/user/lib/fd.c:76
  4015f4:	00001025 	move	v0,zero
  4015f8:	10000002 	b	401604 <fd_lookup+0x98>
  4015fc:	00000000 	nop
/home/git/21373271/21373271/user/lib/fd.c:79
  401600:	2402fffd 	li	v0,-3
/home/git/21373271/21373271/user/lib/fd.c:80
  401604:	03c0e825 	move	sp,s8
  401608:	8fbe000c 	lw	s8,12(sp)
  40160c:	27bd0010 	addiu	sp,sp,16
  401610:	03e00008 	jr	ra
  401614:	00000000 	nop

00401618 <fd2data>:
fd2data():
/home/git/21373271/21373271/user/lib/fd.c:82
  401618:	27bdffe8 	addiu	sp,sp,-24
  40161c:	afbf0014 	sw	ra,20(sp)
  401620:	afbe0010 	sw	s8,16(sp)
  401624:	03a0f025 	move	s8,sp
  401628:	afc40018 	sw	a0,24(s8)
/home/git/21373271/21373271/user/lib/fd.c:83
  40162c:	8fc40018 	lw	a0,24(s8)
  401630:	0c100596 	jal	401658 <fd2num>
  401634:	00000000 	nop
  401638:	24420180 	addiu	v0,v0,384
  40163c:	00021580 	sll	v0,v0,0x16
/home/git/21373271/21373271/user/lib/fd.c:84
  401640:	03c0e825 	move	sp,s8
  401644:	8fbf0014 	lw	ra,20(sp)
  401648:	8fbe0010 	lw	s8,16(sp)
  40164c:	27bd0018 	addiu	sp,sp,24
  401650:	03e00008 	jr	ra
  401654:	00000000 	nop

00401658 <fd2num>:
fd2num():
/home/git/21373271/21373271/user/lib/fd.c:86
  401658:	27bdfff8 	addiu	sp,sp,-8
  40165c:	afbe0004 	sw	s8,4(sp)
  401660:	03a0f025 	move	s8,sp
  401664:	afc40008 	sw	a0,8(s8)
/home/git/21373271/21373271/user/lib/fd.c:87
  401668:	8fc30008 	lw	v1,8(s8)
  40166c:	3c02a040 	lui	v0,0xa040
  401670:	00621021 	addu	v0,v1,v0
  401674:	00021302 	srl	v0,v0,0xc
/home/git/21373271/21373271/user/lib/fd.c:88
  401678:	03c0e825 	move	sp,s8
  40167c:	8fbe0004 	lw	s8,4(sp)
  401680:	27bd0008 	addiu	sp,sp,8
  401684:	03e00008 	jr	ra
  401688:	00000000 	nop

0040168c <num2fd>:
num2fd():
/home/git/21373271/21373271/user/lib/fd.c:90
  40168c:	27bdfff8 	addiu	sp,sp,-8
  401690:	afbe0004 	sw	s8,4(sp)
  401694:	03a0f025 	move	s8,sp
  401698:	afc40008 	sw	a0,8(s8)
/home/git/21373271/21373271/user/lib/fd.c:91
  40169c:	8fc30008 	lw	v1,8(s8)
  4016a0:	3c020005 	lui	v0,0x5
  4016a4:	3442fc00 	ori	v0,v0,0xfc00
  4016a8:	00621021 	addu	v0,v1,v0
  4016ac:	00021300 	sll	v0,v0,0xc
/home/git/21373271/21373271/user/lib/fd.c:92
  4016b0:	03c0e825 	move	sp,s8
  4016b4:	8fbe0004 	lw	s8,4(sp)
  4016b8:	27bd0008 	addiu	sp,sp,8
  4016bc:	03e00008 	jr	ra
  4016c0:	00000000 	nop

004016c4 <close>:
close():
/home/git/21373271/21373271/user/lib/fd.c:94
  4016c4:	27bdffd8 	addiu	sp,sp,-40
  4016c8:	afbf0024 	sw	ra,36(sp)
  4016cc:	afbe0020 	sw	s8,32(sp)
  4016d0:	03a0f025 	move	s8,sp
  4016d4:	afc40028 	sw	a0,40(s8)
/home/git/21373271/21373271/user/lib/fd.c:96
  4016d8:	afc00014 	sw	zero,20(s8)
/home/git/21373271/21373271/user/lib/fd.c:99
  4016dc:	27c20018 	addiu	v0,s8,24
  4016e0:	00402825 	move	a1,v0
  4016e4:	8fc40028 	lw	a0,40(s8)
  4016e8:	0c10055b 	jal	40156c <fd_lookup>
  4016ec:	00000000 	nop
  4016f0:	afc20010 	sw	v0,16(s8)
  4016f4:	8fc20010 	lw	v0,16(s8)
  4016f8:	00000000 	nop
  4016fc:	0440000e 	bltz	v0,401738 <close+0x74>
  401700:	00000000 	nop
/home/git/21373271/21373271/user/lib/fd.c:99 (discriminator 1)
  401704:	8fc20018 	lw	v0,24(s8)
  401708:	00000000 	nop
  40170c:	8c420000 	lw	v0,0(v0)
  401710:	27c30014 	addiu	v1,s8,20
  401714:	00602825 	move	a1,v1
  401718:	00402025 	move	a0,v0
  40171c:	0c1004c8 	jal	401320 <dev_lookup>
  401720:	00000000 	nop
  401724:	afc20010 	sw	v0,16(s8)
  401728:	8fc20010 	lw	v0,16(s8)
  40172c:	00000000 	nop
  401730:	04410004 	bgez	v0,401744 <close+0x80>
  401734:	00000000 	nop
/home/git/21373271/21373271/user/lib/fd.c:100
  401738:	8fc20010 	lw	v0,16(s8)
  40173c:	10000010 	b	401780 <close+0xbc>
  401740:	00000000 	nop
/home/git/21373271/21373271/user/lib/fd.c:103
  401744:	8fc20014 	lw	v0,20(s8)
  401748:	00000000 	nop
  40174c:	8c420010 	lw	v0,16(v0)
  401750:	8fc30018 	lw	v1,24(s8)
  401754:	00000000 	nop
  401758:	00602025 	move	a0,v1
  40175c:	0040f809 	jalr	v0
  401760:	00000000 	nop
  401764:	afc20010 	sw	v0,16(s8)
/home/git/21373271/21373271/user/lib/fd.c:104
  401768:	8fc20018 	lw	v0,24(s8)
  40176c:	00000000 	nop
  401770:	00402025 	move	a0,v0
  401774:	0c10054b 	jal	40152c <fd_close>
  401778:	00000000 	nop
/home/git/21373271/21373271/user/lib/fd.c:105
  40177c:	8fc20010 	lw	v0,16(s8)
/home/git/21373271/21373271/user/lib/fd.c:106 (discriminator 1)
  401780:	03c0e825 	move	sp,s8
  401784:	8fbf0024 	lw	ra,36(sp)
  401788:	8fbe0020 	lw	s8,32(sp)
  40178c:	27bd0028 	addiu	sp,sp,40
  401790:	03e00008 	jr	ra
  401794:	00000000 	nop

00401798 <close_all>:
close_all():
/home/git/21373271/21373271/user/lib/fd.c:108
  401798:	27bdffe0 	addiu	sp,sp,-32
  40179c:	afbf001c 	sw	ra,28(sp)
  4017a0:	afbe0018 	sw	s8,24(sp)
  4017a4:	03a0f025 	move	s8,sp
/home/git/21373271/21373271/user/lib/fd.c:111
  4017a8:	afc00010 	sw	zero,16(s8)
  4017ac:	10000008 	b	4017d0 <close_all+0x38>
  4017b0:	00000000 	nop
/home/git/21373271/21373271/user/lib/fd.c:112 (discriminator 3)
  4017b4:	8fc40010 	lw	a0,16(s8)
  4017b8:	0c1005b1 	jal	4016c4 <close>
  4017bc:	00000000 	nop
/home/git/21373271/21373271/user/lib/fd.c:111 (discriminator 3)
  4017c0:	8fc20010 	lw	v0,16(s8)
  4017c4:	00000000 	nop
  4017c8:	24420001 	addiu	v0,v0,1
  4017cc:	afc20010 	sw	v0,16(s8)
/home/git/21373271/21373271/user/lib/fd.c:111 (discriminator 1)
  4017d0:	8fc20010 	lw	v0,16(s8)
  4017d4:	00000000 	nop
  4017d8:	28420020 	slti	v0,v0,32
  4017dc:	1440fff5 	bnez	v0,4017b4 <close_all+0x1c>
  4017e0:	00000000 	nop
	...
/home/git/21373271/21373271/user/lib/fd.c:114
  4017ec:	03c0e825 	move	sp,s8
  4017f0:	8fbf001c 	lw	ra,28(sp)
  4017f4:	8fbe0018 	lw	s8,24(sp)
  4017f8:	27bd0020 	addiu	sp,sp,32
  4017fc:	03e00008 	jr	ra
  401800:	00000000 	nop

00401804 <dup>:
dup():
/home/git/21373271/21373271/user/lib/fd.c:116
  401804:	27bdffc0 	addiu	sp,sp,-64
  401808:	afbf003c 	sw	ra,60(sp)
  40180c:	afbe0038 	sw	s8,56(sp)
  401810:	03a0f025 	move	s8,sp
  401814:	afc40040 	sw	a0,64(s8)
  401818:	afc50044 	sw	a1,68(s8)
/home/git/21373271/21373271/user/lib/fd.c:122
  40181c:	27c20030 	addiu	v0,s8,48
  401820:	00402825 	move	a1,v0
  401824:	8fc40040 	lw	a0,64(s8)
  401828:	0c10055b 	jal	40156c <fd_lookup>
  40182c:	00000000 	nop
  401830:	afc2001c 	sw	v0,28(s8)
  401834:	8fc2001c 	lw	v0,28(s8)
  401838:	00000000 	nop
  40183c:	04410004 	bgez	v0,401850 <dup+0x4c>
  401840:	00000000 	nop
/home/git/21373271/21373271/user/lib/fd.c:123
  401844:	8fc2001c 	lw	v0,28(s8)
  401848:	10000088 	b	401a6c <dup+0x268>
  40184c:	00000000 	nop
/home/git/21373271/21373271/user/lib/fd.c:126
  401850:	8fc40044 	lw	a0,68(s8)
  401854:	0c1005b1 	jal	4016c4 <close>
  401858:	00000000 	nop
/home/git/21373271/21373271/user/lib/fd.c:127
  40185c:	8fc30044 	lw	v1,68(s8)
  401860:	3c020005 	lui	v0,0x5
  401864:	3442fc00 	ori	v0,v0,0xfc00
  401868:	00621021 	addu	v0,v1,v0
  40186c:	00021300 	sll	v0,v0,0xc
  401870:	afc20020 	sw	v0,32(s8)
/home/git/21373271/21373271/user/lib/fd.c:128
  401874:	8fc20030 	lw	v0,48(s8)
  401878:	00000000 	nop
  40187c:	00402025 	move	a0,v0
  401880:	0c100586 	jal	401618 <fd2data>
  401884:	00000000 	nop
  401888:	afc20024 	sw	v0,36(s8)
/home/git/21373271/21373271/user/lib/fd.c:129
  40188c:	8fc40020 	lw	a0,32(s8)
  401890:	0c100586 	jal	401618 <fd2data>
  401894:	00000000 	nop
  401898:	afc20028 	sw	v0,40(s8)
/home/git/21373271/21373271/user/lib/fd.c:130
  40189c:	8fc40030 	lw	a0,48(s8)
  4018a0:	8fc20030 	lw	v0,48(s8)
  4018a4:	00000000 	nop
  4018a8:	00021302 	srl	v0,v0,0xc
  4018ac:	00021880 	sll	v1,v0,0x2
  4018b0:	3c027fc0 	lui	v0,0x7fc0
  4018b4:	00621021 	addu	v0,v1,v0
  4018b8:	8c420000 	lw	v0,0(v0)
  4018bc:	00000000 	nop
  4018c0:	30420404 	andi	v0,v0,0x404
  4018c4:	afa20010 	sw	v0,16(sp)
  4018c8:	8fc70020 	lw	a3,32(s8)
  4018cc:	00003025 	move	a2,zero
  4018d0:	00802825 	move	a1,a0
  4018d4:	00002025 	move	a0,zero
  4018d8:	0c100e4b 	jal	40392c <syscall_mem_map>
  4018dc:	00000000 	nop
  4018e0:	afc2001c 	sw	v0,28(s8)
  4018e4:	8fc2001c 	lw	v0,28(s8)
  4018e8:	00000000 	nop
  4018ec:	04400042 	bltz	v0,4019f8 <dup+0x1f4>
  4018f0:	00000000 	nop
/home/git/21373271/21373271/user/lib/fd.c:135
  4018f4:	8fc20024 	lw	v0,36(s8)
  4018f8:	00000000 	nop
  4018fc:	00021582 	srl	v0,v0,0x16
  401900:	00021880 	sll	v1,v0,0x2
  401904:	3c027fdf 	lui	v0,0x7fdf
  401908:	3442f000 	ori	v0,v0,0xf000
  40190c:	00621021 	addu	v0,v1,v0
  401910:	8c420000 	lw	v0,0(v0)
  401914:	00000000 	nop
  401918:	10400034 	beqz	v0,4019ec <dup+0x1e8>
  40191c:	00000000 	nop
/home/git/21373271/21373271/user/lib/fd.c:136
  401920:	afc00018 	sw	zero,24(s8)
  401924:	1000002c 	b	4019d8 <dup+0x1d4>
  401928:	00000000 	nop
/home/git/21373271/21373271/user/lib/fd.c:137
  40192c:	8fc20018 	lw	v0,24(s8)
  401930:	8fc30024 	lw	v1,36(s8)
  401934:	00000000 	nop
  401938:	00621021 	addu	v0,v1,v0
  40193c:	00021302 	srl	v0,v0,0xc
  401940:	00021880 	sll	v1,v0,0x2
  401944:	3c027fc0 	lui	v0,0x7fc0
  401948:	00621021 	addu	v0,v1,v0
  40194c:	8c420000 	lw	v0,0(v0)
  401950:	00000000 	nop
  401954:	afc2002c 	sw	v0,44(s8)
/home/git/21373271/21373271/user/lib/fd.c:139
  401958:	8fc2002c 	lw	v0,44(s8)
  40195c:	00000000 	nop
  401960:	30420200 	andi	v0,v0,0x200
  401964:	10400018 	beqz	v0,4019c8 <dup+0x1c4>
  401968:	00000000 	nop
/home/git/21373271/21373271/user/lib/fd.c:141
  40196c:	8fc20018 	lw	v0,24(s8)
  401970:	8fc30024 	lw	v1,36(s8)
  401974:	00000000 	nop
  401978:	00622021 	addu	a0,v1,v0
  40197c:	8fc20018 	lw	v0,24(s8)
  401980:	8fc30028 	lw	v1,40(s8)
  401984:	00000000 	nop
  401988:	00621821 	addu	v1,v1,v0
  40198c:	8fc2002c 	lw	v0,44(s8)
  401990:	00000000 	nop
  401994:	30420404 	andi	v0,v0,0x404
  401998:	afa20010 	sw	v0,16(sp)
  40199c:	00603825 	move	a3,v1
  4019a0:	00003025 	move	a2,zero
  4019a4:	00802825 	move	a1,a0
  4019a8:	00002025 	move	a0,zero
  4019ac:	0c100e4b 	jal	40392c <syscall_mem_map>
  4019b0:	00000000 	nop
  4019b4:	afc2001c 	sw	v0,28(s8)
  4019b8:	8fc2001c 	lw	v0,28(s8)
  4019bc:	00000000 	nop
  4019c0:	04400010 	bltz	v0,401a04 <dup+0x200>
  4019c4:	00000000 	nop
/home/git/21373271/21373271/user/lib/fd.c:136 (discriminator 2)
  4019c8:	8fc20018 	lw	v0,24(s8)
  4019cc:	00000000 	nop
  4019d0:	24421000 	addiu	v0,v0,4096
  4019d4:	afc20018 	sw	v0,24(s8)
/home/git/21373271/21373271/user/lib/fd.c:136 (discriminator 1)
  4019d8:	8fc30018 	lw	v1,24(s8)
  4019dc:	3c020040 	lui	v0,0x40
  4019e0:	0062102a 	slt	v0,v1,v0
  4019e4:	1440ffd1 	bnez	v0,40192c <dup+0x128>
  4019e8:	00000000 	nop
/home/git/21373271/21373271/user/lib/fd.c:149
  4019ec:	8fc20044 	lw	v0,68(s8)
  4019f0:	1000001e 	b	401a6c <dup+0x268>
  4019f4:	00000000 	nop
/home/git/21373271/21373271/user/lib/fd.c:132
  4019f8:	00000000 	nop
  4019fc:	10000002 	b	401a08 <dup+0x204>
  401a00:	00000000 	nop
/home/git/21373271/21373271/user/lib/fd.c:143
  401a04:	00000000 	nop
/home/git/21373271/21373271/user/lib/fd.c:152
  401a08:	8fc50020 	lw	a1,32(s8)
  401a0c:	00002025 	move	a0,zero
  401a10:	0c100e65 	jal	403994 <syscall_mem_unmap>
  401a14:	00000000 	nop
/home/git/21373271/21373271/user/lib/fd.c:154
  401a18:	afc00018 	sw	zero,24(s8)
  401a1c:	1000000d 	b	401a54 <dup+0x250>
  401a20:	00000000 	nop
/home/git/21373271/21373271/user/lib/fd.c:155 (discriminator 3)
  401a24:	8fc20018 	lw	v0,24(s8)
  401a28:	8fc30028 	lw	v1,40(s8)
  401a2c:	00000000 	nop
  401a30:	00621021 	addu	v0,v1,v0
  401a34:	00402825 	move	a1,v0
  401a38:	00002025 	move	a0,zero
  401a3c:	0c100e65 	jal	403994 <syscall_mem_unmap>
  401a40:	00000000 	nop
/home/git/21373271/21373271/user/lib/fd.c:154 (discriminator 3)
  401a44:	8fc20018 	lw	v0,24(s8)
  401a48:	00000000 	nop
  401a4c:	24421000 	addiu	v0,v0,4096
  401a50:	afc20018 	sw	v0,24(s8)
/home/git/21373271/21373271/user/lib/fd.c:154 (discriminator 1)
  401a54:	8fc30018 	lw	v1,24(s8)
  401a58:	3c020040 	lui	v0,0x40
  401a5c:	0062102a 	slt	v0,v1,v0
  401a60:	1440fff0 	bnez	v0,401a24 <dup+0x220>
  401a64:	00000000 	nop
/home/git/21373271/21373271/user/lib/fd.c:158
  401a68:	8fc2001c 	lw	v0,28(s8)
/home/git/21373271/21373271/user/lib/fd.c:159 (discriminator 1)
  401a6c:	03c0e825 	move	sp,s8
  401a70:	8fbf003c 	lw	ra,60(sp)
  401a74:	8fbe0038 	lw	s8,56(sp)
  401a78:	27bd0040 	addiu	sp,sp,64
  401a7c:	03e00008 	jr	ra
  401a80:	00000000 	nop

00401a84 <read>:
read():
/home/git/21373271/21373271/user/lib/fd.c:168
  401a84:	27bdffd8 	addiu	sp,sp,-40
  401a88:	afbf0024 	sw	ra,36(sp)
  401a8c:	afbe0020 	sw	s8,32(sp)
  401a90:	03a0f025 	move	s8,sp
  401a94:	afc40028 	sw	a0,40(s8)
  401a98:	afc5002c 	sw	a1,44(s8)
  401a9c:	afc60030 	sw	a2,48(s8)
/home/git/21373271/21373271/user/lib/fd.c:176
  401aa0:	27c20018 	addiu	v0,s8,24
  401aa4:	00402825 	move	a1,v0
  401aa8:	8fc40028 	lw	a0,40(s8)
  401aac:	0c10055b 	jal	40156c <fd_lookup>
  401ab0:	00000000 	nop
  401ab4:	afc20010 	sw	v0,16(s8)
  401ab8:	8fc20010 	lw	v0,16(s8)
  401abc:	00000000 	nop
  401ac0:	0440000e 	bltz	v0,401afc <read+0x78>
  401ac4:	00000000 	nop
/home/git/21373271/21373271/user/lib/fd.c:176 (discriminator 1)
  401ac8:	8fc20018 	lw	v0,24(s8)
  401acc:	00000000 	nop
  401ad0:	8c420000 	lw	v0,0(v0)
  401ad4:	27c30014 	addiu	v1,s8,20
  401ad8:	00602825 	move	a1,v1
  401adc:	00402025 	move	a0,v0
  401ae0:	0c1004c8 	jal	401320 <dev_lookup>
  401ae4:	00000000 	nop
  401ae8:	afc20010 	sw	v0,16(s8)
  401aec:	8fc20010 	lw	v0,16(s8)
  401af0:	00000000 	nop
  401af4:	04410004 	bgez	v0,401b08 <read+0x84>
  401af8:	00000000 	nop
/home/git/21373271/21373271/user/lib/fd.c:177
  401afc:	8fc20010 	lw	v0,16(s8)
  401b00:	10000026 	b	401b9c <read+0x118>
  401b04:	00000000 	nop
/home/git/21373271/21373271/user/lib/fd.c:182
  401b08:	8fc20018 	lw	v0,24(s8)
  401b0c:	00000000 	nop
  401b10:	8c420008 	lw	v0,8(v0)
  401b14:	00000000 	nop
  401b18:	30430003 	andi	v1,v0,0x3
  401b1c:	24020001 	li	v0,1
  401b20:	14620004 	bne	v1,v0,401b34 <read+0xb0>
  401b24:	00000000 	nop
/home/git/21373271/21373271/user/lib/fd.c:183
  401b28:	2402fffd 	li	v0,-3
  401b2c:	1000001b 	b	401b9c <read+0x118>
  401b30:	00000000 	nop
/home/git/21373271/21373271/user/lib/fd.c:187
  401b34:	8fc20014 	lw	v0,20(s8)
  401b38:	00000000 	nop
  401b3c:	8c420008 	lw	v0,8(v0)
  401b40:	8fc40018 	lw	a0,24(s8)
  401b44:	8fc30018 	lw	v1,24(s8)
  401b48:	00000000 	nop
  401b4c:	8c630004 	lw	v1,4(v1)
  401b50:	00000000 	nop
  401b54:	00603825 	move	a3,v1
  401b58:	8fc60030 	lw	a2,48(s8)
  401b5c:	8fc5002c 	lw	a1,44(s8)
  401b60:	0040f809 	jalr	v0
  401b64:	00000000 	nop
  401b68:	afc20010 	sw	v0,16(s8)
/home/git/21373271/21373271/user/lib/fd.c:193
  401b6c:	8fc20010 	lw	v0,16(s8)
  401b70:	00000000 	nop
  401b74:	18400008 	blez	v0,401b98 <read+0x114>
  401b78:	00000000 	nop
/home/git/21373271/21373271/user/lib/fd.c:194
  401b7c:	8fc20018 	lw	v0,24(s8)
  401b80:	00000000 	nop
  401b84:	8c440004 	lw	a0,4(v0)
  401b88:	8fc30010 	lw	v1,16(s8)
  401b8c:	8fc20018 	lw	v0,24(s8)
  401b90:	00831821 	addu	v1,a0,v1
  401b94:	ac430004 	sw	v1,4(v0)
/home/git/21373271/21373271/user/lib/fd.c:196
  401b98:	8fc20010 	lw	v0,16(s8)
/home/git/21373271/21373271/user/lib/fd.c:197 (discriminator 1)
  401b9c:	03c0e825 	move	sp,s8
  401ba0:	8fbf0024 	lw	ra,36(sp)
  401ba4:	8fbe0020 	lw	s8,32(sp)
  401ba8:	27bd0028 	addiu	sp,sp,40
  401bac:	03e00008 	jr	ra
  401bb0:	00000000 	nop

00401bb4 <readn>:
readn():
/home/git/21373271/21373271/user/lib/fd.c:199
  401bb4:	27bdffe0 	addiu	sp,sp,-32
  401bb8:	afbf001c 	sw	ra,28(sp)
  401bbc:	afbe0018 	sw	s8,24(sp)
  401bc0:	03a0f025 	move	s8,sp
  401bc4:	afc40020 	sw	a0,32(s8)
  401bc8:	afc50024 	sw	a1,36(s8)
  401bcc:	afc60028 	sw	a2,40(s8)
/home/git/21373271/21373271/user/lib/fd.c:202
  401bd0:	afc00010 	sw	zero,16(s8)
  401bd4:	1000001f 	b	401c54 <readn+0xa0>
  401bd8:	00000000 	nop
/home/git/21373271/21373271/user/lib/fd.c:203
  401bdc:	8fc20010 	lw	v0,16(s8)
  401be0:	8fc30024 	lw	v1,36(s8)
  401be4:	00000000 	nop
  401be8:	00622021 	addu	a0,v1,v0
  401bec:	8fc20010 	lw	v0,16(s8)
  401bf0:	8fc30028 	lw	v1,40(s8)
  401bf4:	00000000 	nop
  401bf8:	00621023 	subu	v0,v1,v0
  401bfc:	00403025 	move	a2,v0
  401c00:	00802825 	move	a1,a0
  401c04:	8fc40020 	lw	a0,32(s8)
  401c08:	0c1006a1 	jal	401a84 <read>
  401c0c:	00000000 	nop
  401c10:	afc20014 	sw	v0,20(s8)
/home/git/21373271/21373271/user/lib/fd.c:205
  401c14:	8fc20014 	lw	v0,20(s8)
  401c18:	00000000 	nop
  401c1c:	04410004 	bgez	v0,401c30 <readn+0x7c>
  401c20:	00000000 	nop
/home/git/21373271/21373271/user/lib/fd.c:206
  401c24:	8fc20014 	lw	v0,20(s8)
  401c28:	10000014 	b	401c7c <readn+0xc8>
  401c2c:	00000000 	nop
/home/git/21373271/21373271/user/lib/fd.c:209
  401c30:	8fc20014 	lw	v0,20(s8)
  401c34:	00000000 	nop
  401c38:	1040000e 	beqz	v0,401c74 <readn+0xc0>
  401c3c:	00000000 	nop
/home/git/21373271/21373271/user/lib/fd.c:202 (discriminator 2)
  401c40:	8fc30010 	lw	v1,16(s8)
  401c44:	8fc20014 	lw	v0,20(s8)
  401c48:	00000000 	nop
  401c4c:	00621021 	addu	v0,v1,v0
  401c50:	afc20010 	sw	v0,16(s8)
/home/git/21373271/21373271/user/lib/fd.c:202 (discriminator 1)
  401c54:	8fc20010 	lw	v0,16(s8)
  401c58:	8fc30028 	lw	v1,40(s8)
  401c5c:	00000000 	nop
  401c60:	0043102b 	sltu	v0,v0,v1
  401c64:	1440ffdd 	bnez	v0,401bdc <readn+0x28>
  401c68:	00000000 	nop
  401c6c:	10000002 	b	401c78 <readn+0xc4>
  401c70:	00000000 	nop
/home/git/21373271/21373271/user/lib/fd.c:210
  401c74:	00000000 	nop
/home/git/21373271/21373271/user/lib/fd.c:214
  401c78:	8fc20010 	lw	v0,16(s8)
/home/git/21373271/21373271/user/lib/fd.c:215
  401c7c:	03c0e825 	move	sp,s8
  401c80:	8fbf001c 	lw	ra,28(sp)
  401c84:	8fbe0018 	lw	s8,24(sp)
  401c88:	27bd0020 	addiu	sp,sp,32
  401c8c:	03e00008 	jr	ra
  401c90:	00000000 	nop

00401c94 <write>:
write():
/home/git/21373271/21373271/user/lib/fd.c:217
  401c94:	27bdffd8 	addiu	sp,sp,-40
  401c98:	afbf0024 	sw	ra,36(sp)
  401c9c:	afbe0020 	sw	s8,32(sp)
  401ca0:	03a0f025 	move	s8,sp
  401ca4:	afc40028 	sw	a0,40(s8)
  401ca8:	afc5002c 	sw	a1,44(s8)
  401cac:	afc60030 	sw	a2,48(s8)
/home/git/21373271/21373271/user/lib/fd.c:222
  401cb0:	27c20018 	addiu	v0,s8,24
  401cb4:	00402825 	move	a1,v0
  401cb8:	8fc40028 	lw	a0,40(s8)
  401cbc:	0c10055b 	jal	40156c <fd_lookup>
  401cc0:	00000000 	nop
  401cc4:	afc20010 	sw	v0,16(s8)
  401cc8:	8fc20010 	lw	v0,16(s8)
  401ccc:	00000000 	nop
  401cd0:	0440000e 	bltz	v0,401d0c <write+0x78>
  401cd4:	00000000 	nop
/home/git/21373271/21373271/user/lib/fd.c:222 (discriminator 1)
  401cd8:	8fc20018 	lw	v0,24(s8)
  401cdc:	00000000 	nop
  401ce0:	8c420000 	lw	v0,0(v0)
  401ce4:	27c30014 	addiu	v1,s8,20
  401ce8:	00602825 	move	a1,v1
  401cec:	00402025 	move	a0,v0
  401cf0:	0c1004c8 	jal	401320 <dev_lookup>
  401cf4:	00000000 	nop
  401cf8:	afc20010 	sw	v0,16(s8)
  401cfc:	8fc20010 	lw	v0,16(s8)
  401d00:	00000000 	nop
  401d04:	04410004 	bgez	v0,401d18 <write+0x84>
  401d08:	00000000 	nop
/home/git/21373271/21373271/user/lib/fd.c:223
  401d0c:	8fc20010 	lw	v0,16(s8)
  401d10:	10000025 	b	401da8 <write+0x114>
  401d14:	00000000 	nop
/home/git/21373271/21373271/user/lib/fd.c:226
  401d18:	8fc20018 	lw	v0,24(s8)
  401d1c:	00000000 	nop
  401d20:	8c420008 	lw	v0,8(v0)
  401d24:	00000000 	nop
  401d28:	30420003 	andi	v0,v0,0x3
  401d2c:	14400004 	bnez	v0,401d40 <write+0xac>
  401d30:	00000000 	nop
/home/git/21373271/21373271/user/lib/fd.c:227
  401d34:	2402fffd 	li	v0,-3
  401d38:	1000001b 	b	401da8 <write+0x114>
  401d3c:	00000000 	nop
/home/git/21373271/21373271/user/lib/fd.c:230
  401d40:	8fc20014 	lw	v0,20(s8)
  401d44:	00000000 	nop
  401d48:	8c42000c 	lw	v0,12(v0)
  401d4c:	8fc40018 	lw	a0,24(s8)
  401d50:	8fc30018 	lw	v1,24(s8)
  401d54:	00000000 	nop
  401d58:	8c630004 	lw	v1,4(v1)
  401d5c:	00000000 	nop
  401d60:	00603825 	move	a3,v1
  401d64:	8fc60030 	lw	a2,48(s8)
  401d68:	8fc5002c 	lw	a1,44(s8)
  401d6c:	0040f809 	jalr	v0
  401d70:	00000000 	nop
  401d74:	afc20010 	sw	v0,16(s8)
/home/git/21373271/21373271/user/lib/fd.c:231
  401d78:	8fc20010 	lw	v0,16(s8)
  401d7c:	00000000 	nop
  401d80:	18400008 	blez	v0,401da4 <write+0x110>
  401d84:	00000000 	nop
/home/git/21373271/21373271/user/lib/fd.c:232
  401d88:	8fc20018 	lw	v0,24(s8)
  401d8c:	00000000 	nop
  401d90:	8c440004 	lw	a0,4(v0)
  401d94:	8fc30010 	lw	v1,16(s8)
  401d98:	8fc20018 	lw	v0,24(s8)
  401d9c:	00831821 	addu	v1,a0,v1
  401da0:	ac430004 	sw	v1,4(v0)
/home/git/21373271/21373271/user/lib/fd.c:235
  401da4:	8fc20010 	lw	v0,16(s8)
/home/git/21373271/21373271/user/lib/fd.c:236 (discriminator 1)
  401da8:	03c0e825 	move	sp,s8
  401dac:	8fbf0024 	lw	ra,36(sp)
  401db0:	8fbe0020 	lw	s8,32(sp)
  401db4:	27bd0028 	addiu	sp,sp,40
  401db8:	03e00008 	jr	ra
  401dbc:	00000000 	nop

00401dc0 <seek>:
seek():
/home/git/21373271/21373271/user/lib/fd.c:238
  401dc0:	27bdffe0 	addiu	sp,sp,-32
  401dc4:	afbf001c 	sw	ra,28(sp)
  401dc8:	afbe0018 	sw	s8,24(sp)
  401dcc:	03a0f025 	move	s8,sp
  401dd0:	afc40020 	sw	a0,32(s8)
  401dd4:	afc50024 	sw	a1,36(s8)
/home/git/21373271/21373271/user/lib/fd.c:242
  401dd8:	27c20014 	addiu	v0,s8,20
  401ddc:	00402825 	move	a1,v0
  401de0:	8fc40020 	lw	a0,32(s8)
  401de4:	0c10055b 	jal	40156c <fd_lookup>
  401de8:	00000000 	nop
  401dec:	afc20010 	sw	v0,16(s8)
  401df0:	8fc20010 	lw	v0,16(s8)
  401df4:	00000000 	nop
  401df8:	04410004 	bgez	v0,401e0c <seek+0x4c>
  401dfc:	00000000 	nop
/home/git/21373271/21373271/user/lib/fd.c:243
  401e00:	8fc20010 	lw	v0,16(s8)
  401e04:	10000006 	b	401e20 <seek+0x60>
  401e08:	00000000 	nop
/home/git/21373271/21373271/user/lib/fd.c:246
  401e0c:	8fc20014 	lw	v0,20(s8)
  401e10:	8fc30024 	lw	v1,36(s8)
  401e14:	00000000 	nop
  401e18:	ac430004 	sw	v1,4(v0)
/home/git/21373271/21373271/user/lib/fd.c:247
  401e1c:	00001025 	move	v0,zero
/home/git/21373271/21373271/user/lib/fd.c:248 (discriminator 1)
  401e20:	03c0e825 	move	sp,s8
  401e24:	8fbf001c 	lw	ra,28(sp)
  401e28:	8fbe0018 	lw	s8,24(sp)
  401e2c:	27bd0020 	addiu	sp,sp,32
  401e30:	03e00008 	jr	ra
  401e34:	00000000 	nop

00401e38 <fstat>:
fstat():
/home/git/21373271/21373271/user/lib/fd.c:250
  401e38:	27bdffd8 	addiu	sp,sp,-40
  401e3c:	afbf0024 	sw	ra,36(sp)
  401e40:	afbe0020 	sw	s8,32(sp)
  401e44:	03a0f025 	move	s8,sp
  401e48:	afc40028 	sw	a0,40(s8)
  401e4c:	afc5002c 	sw	a1,44(s8)
/home/git/21373271/21373271/user/lib/fd.c:252
  401e50:	afc00014 	sw	zero,20(s8)
/home/git/21373271/21373271/user/lib/fd.c:255
  401e54:	27c20018 	addiu	v0,s8,24
  401e58:	00402825 	move	a1,v0
  401e5c:	8fc40028 	lw	a0,40(s8)
  401e60:	0c10055b 	jal	40156c <fd_lookup>
  401e64:	00000000 	nop
  401e68:	afc20010 	sw	v0,16(s8)
  401e6c:	8fc20010 	lw	v0,16(s8)
  401e70:	00000000 	nop
  401e74:	0440000e 	bltz	v0,401eb0 <fstat+0x78>
  401e78:	00000000 	nop
/home/git/21373271/21373271/user/lib/fd.c:255 (discriminator 1)
  401e7c:	8fc20018 	lw	v0,24(s8)
  401e80:	00000000 	nop
  401e84:	8c420000 	lw	v0,0(v0)
  401e88:	27c30014 	addiu	v1,s8,20
  401e8c:	00602825 	move	a1,v1
  401e90:	00402025 	move	a0,v0
  401e94:	0c1004c8 	jal	401320 <dev_lookup>
  401e98:	00000000 	nop
  401e9c:	afc20010 	sw	v0,16(s8)
  401ea0:	8fc20010 	lw	v0,16(s8)
  401ea4:	00000000 	nop
  401ea8:	04410004 	bgez	v0,401ebc <fstat+0x84>
  401eac:	00000000 	nop
/home/git/21373271/21373271/user/lib/fd.c:256
  401eb0:	8fc20010 	lw	v0,16(s8)
  401eb4:	10000016 	b	401f10 <fstat+0xd8>
  401eb8:	00000000 	nop
/home/git/21373271/21373271/user/lib/fd.c:259
  401ebc:	8fc2002c 	lw	v0,44(s8)
  401ec0:	00000000 	nop
  401ec4:	a0400000 	sb	zero,0(v0)
/home/git/21373271/21373271/user/lib/fd.c:260
  401ec8:	8fc2002c 	lw	v0,44(s8)
  401ecc:	00000000 	nop
  401ed0:	ac400080 	sw	zero,128(v0)
/home/git/21373271/21373271/user/lib/fd.c:261
  401ed4:	8fc2002c 	lw	v0,44(s8)
  401ed8:	00000000 	nop
  401edc:	ac400084 	sw	zero,132(v0)
/home/git/21373271/21373271/user/lib/fd.c:262
  401ee0:	8fc30014 	lw	v1,20(s8)
  401ee4:	8fc2002c 	lw	v0,44(s8)
  401ee8:	00000000 	nop
  401eec:	ac430088 	sw	v1,136(v0)
/home/git/21373271/21373271/user/lib/fd.c:263
  401ef0:	8fc20014 	lw	v0,20(s8)
  401ef4:	00000000 	nop
  401ef8:	8c420014 	lw	v0,20(v0)
  401efc:	8fc30018 	lw	v1,24(s8)
  401f00:	8fc5002c 	lw	a1,44(s8)
  401f04:	00602025 	move	a0,v1
  401f08:	0040f809 	jalr	v0
  401f0c:	00000000 	nop
/home/git/21373271/21373271/user/lib/fd.c:264 (discriminator 1)
  401f10:	03c0e825 	move	sp,s8
  401f14:	8fbf0024 	lw	ra,36(sp)
  401f18:	8fbe0020 	lw	s8,32(sp)
  401f1c:	27bd0028 	addiu	sp,sp,40
  401f20:	03e00008 	jr	ra
  401f24:	00000000 	nop

00401f28 <stat>:
stat():
/home/git/21373271/21373271/user/lib/fd.c:266
  401f28:	27bdffe0 	addiu	sp,sp,-32
  401f2c:	afbf001c 	sw	ra,28(sp)
  401f30:	afbe0018 	sw	s8,24(sp)
  401f34:	03a0f025 	move	s8,sp
  401f38:	afc40020 	sw	a0,32(s8)
  401f3c:	afc50024 	sw	a1,36(s8)
/home/git/21373271/21373271/user/lib/fd.c:269
  401f40:	00002825 	move	a1,zero
  401f44:	8fc40020 	lw	a0,32(s8)
  401f48:	0c1007ec 	jal	401fb0 <open>
  401f4c:	00000000 	nop
  401f50:	afc20010 	sw	v0,16(s8)
  401f54:	8fc20010 	lw	v0,16(s8)
  401f58:	00000000 	nop
  401f5c:	04410004 	bgez	v0,401f70 <stat+0x48>
  401f60:	00000000 	nop
/home/git/21373271/21373271/user/lib/fd.c:270
  401f64:	8fc20010 	lw	v0,16(s8)
  401f68:	1000000a 	b	401f94 <stat+0x6c>
  401f6c:	00000000 	nop
/home/git/21373271/21373271/user/lib/fd.c:273
  401f70:	8fc50024 	lw	a1,36(s8)
  401f74:	8fc40010 	lw	a0,16(s8)
  401f78:	0c10078e 	jal	401e38 <fstat>
  401f7c:	00000000 	nop
  401f80:	afc20014 	sw	v0,20(s8)
/home/git/21373271/21373271/user/lib/fd.c:274
  401f84:	8fc40010 	lw	a0,16(s8)
  401f88:	0c1005b1 	jal	4016c4 <close>
  401f8c:	00000000 	nop
/home/git/21373271/21373271/user/lib/fd.c:275
  401f90:	8fc20014 	lw	v0,20(s8)
/home/git/21373271/21373271/user/lib/fd.c:276
  401f94:	03c0e825 	move	sp,s8
  401f98:	8fbf001c 	lw	ra,28(sp)
  401f9c:	8fbe0018 	lw	s8,24(sp)
  401fa0:	27bd0020 	addiu	sp,sp,32
  401fa4:	03e00008 	jr	ra
  401fa8:	00000000 	nop
  401fac:	00000000 	nop

00401fb0 <open>:
open():
/home/git/21373271/21373271/user/lib/file.c:28
  401fb0:	27bdffc8 	addiu	sp,sp,-56
  401fb4:	afbf0034 	sw	ra,52(sp)
  401fb8:	afbe0030 	sw	s8,48(sp)
  401fbc:	03a0f025 	move	s8,sp
  401fc0:	afc40038 	sw	a0,56(s8)
  401fc4:	afc5003c 	sw	a1,60(s8)
/home/git/21373271/21373271/user/lib/file.c:35
  401fc8:	27c20028 	addiu	v0,s8,40
  401fcc:	00402025 	move	a0,v0
  401fd0:	0c10050a 	jal	401428 <fd_alloc>
  401fd4:	00000000 	nop
  401fd8:	afc20014 	sw	v0,20(s8)
  401fdc:	8fc20014 	lw	v0,20(s8)
  401fe0:	00000000 	nop
  401fe4:	04410004 	bgez	v0,401ff8 <open+0x48>
  401fe8:	00000000 	nop
/home/git/21373271/21373271/user/lib/file.c:36
  401fec:	8fc20014 	lw	v0,20(s8)
  401ff0:	10000048 	b	402114 <open+0x164>
  401ff4:	00000000 	nop
/home/git/21373271/21373271/user/lib/file.c:40
  401ff8:	8fc2003c 	lw	v0,60(s8)
  401ffc:	8fc30028 	lw	v1,40(s8)
  402000:	00000000 	nop
  402004:	00603025 	move	a2,v1
  402008:	00402825 	move	a1,v0
  40200c:	8fc40038 	lw	a0,56(s8)
  402010:	0c100c25 	jal	403094 <fsipc_open>
  402014:	00000000 	nop
  402018:	afc20014 	sw	v0,20(s8)
  40201c:	8fc20014 	lw	v0,20(s8)
  402020:	00000000 	nop
  402024:	04410004 	bgez	v0,402038 <open+0x88>
  402028:	00000000 	nop
/home/git/21373271/21373271/user/lib/file.c:41
  40202c:	8fc20014 	lw	v0,20(s8)
  402030:	10000038 	b	402114 <open+0x164>
  402034:	00000000 	nop
/home/git/21373271/21373271/user/lib/file.c:49
  402038:	8fc20028 	lw	v0,40(s8)
  40203c:	00000000 	nop
  402040:	00402025 	move	a0,v0
  402044:	0c100586 	jal	401618 <fd2data>
  402048:	00000000 	nop
  40204c:	afc20018 	sw	v0,24(s8)
/home/git/21373271/21373271/user/lib/file.c:50
  402050:	8fc20028 	lw	v0,40(s8)
  402054:	00000000 	nop
  402058:	afc2001c 	sw	v0,28(s8)
/home/git/21373271/21373271/user/lib/file.c:51
  40205c:	8fc2001c 	lw	v0,28(s8)
  402060:	00000000 	nop
  402064:	8c42000c 	lw	v0,12(v0)
  402068:	00000000 	nop
  40206c:	afc20020 	sw	v0,32(s8)
/home/git/21373271/21373271/user/lib/file.c:52
  402070:	8fc2001c 	lw	v0,28(s8)
  402074:	00000000 	nop
  402078:	8c420090 	lw	v0,144(v0)
  40207c:	00000000 	nop
  402080:	afc20024 	sw	v0,36(s8)
/home/git/21373271/21373271/user/lib/file.c:54
  402084:	afc00010 	sw	zero,16(s8)
  402088:	10000017 	b	4020e8 <open+0x138>
  40208c:	00000000 	nop
/home/git/21373271/21373271/user/lib/file.c:56
  402090:	8fc40010 	lw	a0,16(s8)
  402094:	8fc20010 	lw	v0,16(s8)
  402098:	8fc30018 	lw	v1,24(s8)
  40209c:	00000000 	nop
  4020a0:	00621021 	addu	v0,v1,v0
  4020a4:	00403025 	move	a2,v0
  4020a8:	00802825 	move	a1,a0
  4020ac:	8fc40020 	lw	a0,32(s8)
  4020b0:	0c100c4e 	jal	403138 <fsipc_map>
  4020b4:	00000000 	nop
  4020b8:	afc20014 	sw	v0,20(s8)
  4020bc:	8fc20014 	lw	v0,20(s8)
  4020c0:	00000000 	nop
  4020c4:	04410004 	bgez	v0,4020d8 <open+0x128>
  4020c8:	00000000 	nop
/home/git/21373271/21373271/user/lib/file.c:57
  4020cc:	8fc20014 	lw	v0,20(s8)
  4020d0:	10000010 	b	402114 <open+0x164>
  4020d4:	00000000 	nop
/home/git/21373271/21373271/user/lib/file.c:54 (discriminator 2)
  4020d8:	8fc20010 	lw	v0,16(s8)
  4020dc:	00000000 	nop
  4020e0:	24421000 	addiu	v0,v0,4096
  4020e4:	afc20010 	sw	v0,16(s8)
/home/git/21373271/21373271/user/lib/file.c:54 (discriminator 1)
  4020e8:	8fc20010 	lw	v0,16(s8)
  4020ec:	8fc30024 	lw	v1,36(s8)
  4020f0:	00000000 	nop
  4020f4:	0043102b 	sltu	v0,v0,v1
  4020f8:	1440ffe5 	bnez	v0,402090 <open+0xe0>
  4020fc:	00000000 	nop
/home/git/21373271/21373271/user/lib/file.c:63
  402100:	8fc20028 	lw	v0,40(s8)
  402104:	00000000 	nop
  402108:	00402025 	move	a0,v0
  40210c:	0c100596 	jal	401658 <fd2num>
  402110:	00000000 	nop
/home/git/21373271/21373271/user/lib/file.c:64 (discriminator 1)
  402114:	03c0e825 	move	sp,s8
  402118:	8fbf0034 	lw	ra,52(sp)
  40211c:	8fbe0030 	lw	s8,48(sp)
  402120:	27bd0038 	addiu	sp,sp,56
  402124:	03e00008 	jr	ra
  402128:	00000000 	nop

0040212c <file_close>:
file_close():
/home/git/21373271/21373271/user/lib/file.c:68
  40212c:	27bdffd0 	addiu	sp,sp,-48
  402130:	afbf002c 	sw	ra,44(sp)
  402134:	afbe0028 	sw	s8,40(sp)
  402138:	03a0f025 	move	s8,sp
  40213c:	afc40030 	sw	a0,48(s8)
/home/git/21373271/21373271/user/lib/file.c:75
  402140:	8fc20030 	lw	v0,48(s8)
  402144:	00000000 	nop
  402148:	afc20014 	sw	v0,20(s8)
/home/git/21373271/21373271/user/lib/file.c:76
  40214c:	8fc20014 	lw	v0,20(s8)
  402150:	00000000 	nop
  402154:	8c42000c 	lw	v0,12(v0)
  402158:	00000000 	nop
  40215c:	afc20018 	sw	v0,24(s8)
/home/git/21373271/21373271/user/lib/file.c:77
  402160:	8fc20014 	lw	v0,20(s8)
  402164:	00000000 	nop
  402168:	8c420090 	lw	v0,144(v0)
  40216c:	00000000 	nop
  402170:	afc2001c 	sw	v0,28(s8)
/home/git/21373271/21373271/user/lib/file.c:80
  402174:	8fc40030 	lw	a0,48(s8)
  402178:	0c100586 	jal	401618 <fd2data>
  40217c:	00000000 	nop
  402180:	afc20020 	sw	v0,32(s8)
/home/git/21373271/21373271/user/lib/file.c:83
  402184:	afc00010 	sw	zero,16(s8)
  402188:	10000009 	b	4021b0 <file_close+0x84>
  40218c:	00000000 	nop
/home/git/21373271/21373271/user/lib/file.c:84 (discriminator 3)
  402190:	8fc50010 	lw	a1,16(s8)
  402194:	8fc40018 	lw	a0,24(s8)
  402198:	0c100cbd 	jal	4032f4 <fsipc_dirty>
  40219c:	00000000 	nop
/home/git/21373271/21373271/user/lib/file.c:83 (discriminator 3)
  4021a0:	8fc20010 	lw	v0,16(s8)
  4021a4:	00000000 	nop
  4021a8:	24421000 	addiu	v0,v0,4096
  4021ac:	afc20010 	sw	v0,16(s8)
/home/git/21373271/21373271/user/lib/file.c:83 (discriminator 1)
  4021b0:	8fc30010 	lw	v1,16(s8)
  4021b4:	8fc2001c 	lw	v0,28(s8)
  4021b8:	00000000 	nop
  4021bc:	0062102b 	sltu	v0,v1,v0
  4021c0:	1440fff3 	bnez	v0,402190 <file_close+0x64>
  4021c4:	00000000 	nop
/home/git/21373271/21373271/user/lib/file.c:88
  4021c8:	8fc40018 	lw	a0,24(s8)
  4021cc:	0c100ca5 	jal	403294 <fsipc_close>
  4021d0:	00000000 	nop
  4021d4:	afc20024 	sw	v0,36(s8)
  4021d8:	8fc20024 	lw	v0,36(s8)
  4021dc:	00000000 	nop
  4021e0:	04410008 	bgez	v0,402204 <file_close+0xd8>
  4021e4:	00000000 	nop
/home/git/21373271/21373271/user/lib/file.c:89
  4021e8:	3c020040 	lui	v0,0x40
  4021ec:	24447c88 	addiu	a0,v0,31880
  4021f0:	0c100470 	jal	4011c0 <debugf>
  4021f4:	00000000 	nop
/home/git/21373271/21373271/user/lib/file.c:90
  4021f8:	8fc20024 	lw	v0,36(s8)
  4021fc:	1000002a 	b	4022a8 <file_close+0x17c>
  402200:	00000000 	nop
/home/git/21373271/21373271/user/lib/file.c:94
  402204:	8fc2001c 	lw	v0,28(s8)
  402208:	00000000 	nop
  40220c:	14400004 	bnez	v0,402220 <file_close+0xf4>
  402210:	00000000 	nop
/home/git/21373271/21373271/user/lib/file.c:95
  402214:	00001025 	move	v0,zero
  402218:	10000023 	b	4022a8 <file_close+0x17c>
  40221c:	00000000 	nop
/home/git/21373271/21373271/user/lib/file.c:97
  402220:	afc00010 	sw	zero,16(s8)
  402224:	10000019 	b	40228c <file_close+0x160>
  402228:	00000000 	nop
/home/git/21373271/21373271/user/lib/file.c:98
  40222c:	8fc30020 	lw	v1,32(s8)
  402230:	8fc20010 	lw	v0,16(s8)
  402234:	00000000 	nop
  402238:	00621021 	addu	v0,v1,v0
  40223c:	00402825 	move	a1,v0
  402240:	00002025 	move	a0,zero
  402244:	0c100e65 	jal	403994 <syscall_mem_unmap>
  402248:	00000000 	nop
  40224c:	afc20024 	sw	v0,36(s8)
  402250:	8fc20024 	lw	v0,36(s8)
  402254:	00000000 	nop
  402258:	04410008 	bgez	v0,40227c <file_close+0x150>
  40225c:	00000000 	nop
/home/git/21373271/21373271/user/lib/file.c:99
  402260:	3c020040 	lui	v0,0x40
  402264:	24447ca0 	addiu	a0,v0,31904
  402268:	0c100470 	jal	4011c0 <debugf>
  40226c:	00000000 	nop
/home/git/21373271/21373271/user/lib/file.c:100
  402270:	8fc20024 	lw	v0,36(s8)
  402274:	1000000c 	b	4022a8 <file_close+0x17c>
  402278:	00000000 	nop
/home/git/21373271/21373271/user/lib/file.c:97 (discriminator 2)
  40227c:	8fc20010 	lw	v0,16(s8)
  402280:	00000000 	nop
  402284:	24421000 	addiu	v0,v0,4096
  402288:	afc20010 	sw	v0,16(s8)
/home/git/21373271/21373271/user/lib/file.c:97 (discriminator 1)
  40228c:	8fc30010 	lw	v1,16(s8)
  402290:	8fc2001c 	lw	v0,28(s8)
  402294:	00000000 	nop
  402298:	0062102b 	sltu	v0,v1,v0
  40229c:	1440ffe3 	bnez	v0,40222c <file_close+0x100>
  4022a0:	00000000 	nop
/home/git/21373271/21373271/user/lib/file.c:103
  4022a4:	00001025 	move	v0,zero
/home/git/21373271/21373271/user/lib/file.c:104
  4022a8:	03c0e825 	move	sp,s8
  4022ac:	8fbf002c 	lw	ra,44(sp)
  4022b0:	8fbe0028 	lw	s8,40(sp)
  4022b4:	27bd0030 	addiu	sp,sp,48
  4022b8:	03e00008 	jr	ra
  4022bc:	00000000 	nop

004022c0 <file_read>:
file_read():
/home/git/21373271/21373271/user/lib/file.c:110
  4022c0:	27bdffe0 	addiu	sp,sp,-32
  4022c4:	afbf001c 	sw	ra,28(sp)
  4022c8:	afbe0018 	sw	s8,24(sp)
  4022cc:	03a0f025 	move	s8,sp
  4022d0:	afc40020 	sw	a0,32(s8)
  4022d4:	afc50024 	sw	a1,36(s8)
  4022d8:	afc60028 	sw	a2,40(s8)
  4022dc:	afc7002c 	sw	a3,44(s8)
/home/git/21373271/21373271/user/lib/file.c:113
  4022e0:	8fc20020 	lw	v0,32(s8)
  4022e4:	00000000 	nop
  4022e8:	afc20010 	sw	v0,16(s8)
/home/git/21373271/21373271/user/lib/file.c:116
  4022ec:	8fc20010 	lw	v0,16(s8)
  4022f0:	00000000 	nop
  4022f4:	8c420090 	lw	v0,144(v0)
  4022f8:	00000000 	nop
  4022fc:	afc20014 	sw	v0,20(s8)
/home/git/21373271/21373271/user/lib/file.c:118
  402300:	8fc3002c 	lw	v1,44(s8)
  402304:	8fc20014 	lw	v0,20(s8)
  402308:	00000000 	nop
  40230c:	0043102b 	sltu	v0,v0,v1
  402310:	10400004 	beqz	v0,402324 <file_read+0x64>
  402314:	00000000 	nop
/home/git/21373271/21373271/user/lib/file.c:119
  402318:	00001025 	move	v0,zero
  40231c:	1000001c 	b	402390 <file_read+0xd0>
  402320:	00000000 	nop
/home/git/21373271/21373271/user/lib/file.c:122
  402324:	8fc3002c 	lw	v1,44(s8)
  402328:	8fc20028 	lw	v0,40(s8)
  40232c:	00000000 	nop
  402330:	00621021 	addu	v0,v1,v0
  402334:	8fc30014 	lw	v1,20(s8)
  402338:	00000000 	nop
  40233c:	0062102b 	sltu	v0,v1,v0
  402340:	10400006 	beqz	v0,40235c <file_read+0x9c>
  402344:	00000000 	nop
/home/git/21373271/21373271/user/lib/file.c:123
  402348:	8fc30014 	lw	v1,20(s8)
  40234c:	8fc2002c 	lw	v0,44(s8)
  402350:	00000000 	nop
  402354:	00621023 	subu	v0,v1,v0
  402358:	afc20028 	sw	v0,40(s8)
/home/git/21373271/21373271/user/lib/file.c:126
  40235c:	8fc40020 	lw	a0,32(s8)
  402360:	0c100586 	jal	401618 <fd2data>
  402364:	00000000 	nop
  402368:	00401825 	move	v1,v0
  40236c:	8fc2002c 	lw	v0,44(s8)
  402370:	00000000 	nop
  402374:	00621021 	addu	v0,v1,v0
  402378:	8fc60028 	lw	a2,40(s8)
  40237c:	00402825 	move	a1,v0
  402380:	8fc40024 	lw	a0,36(s8)
  402384:	0c101ce8 	jal	4073a0 <memcpy>
  402388:	00000000 	nop
/home/git/21373271/21373271/user/lib/file.c:127
  40238c:	8fc20028 	lw	v0,40(s8)
/home/git/21373271/21373271/user/lib/file.c:128
  402390:	03c0e825 	move	sp,s8
  402394:	8fbf001c 	lw	ra,28(sp)
  402398:	8fbe0018 	lw	s8,24(sp)
  40239c:	27bd0020 	addiu	sp,sp,32
  4023a0:	03e00008 	jr	ra
  4023a4:	00000000 	nop

004023a8 <read_map>:
read_map():
/home/git/21373271/21373271/user/lib/file.c:133
  4023a8:	27bdffd8 	addiu	sp,sp,-40
  4023ac:	afbf0024 	sw	ra,36(sp)
  4023b0:	afbe0020 	sw	s8,32(sp)
  4023b4:	03a0f025 	move	s8,sp
  4023b8:	afc40028 	sw	a0,40(s8)
  4023bc:	afc5002c 	sw	a1,44(s8)
  4023c0:	afc60030 	sw	a2,48(s8)
/home/git/21373271/21373271/user/lib/file.c:138
  4023c4:	27c20018 	addiu	v0,s8,24
  4023c8:	00402825 	move	a1,v0
  4023cc:	8fc40028 	lw	a0,40(s8)
  4023d0:	0c10055b 	jal	40156c <fd_lookup>
  4023d4:	00000000 	nop
  4023d8:	afc20010 	sw	v0,16(s8)
  4023dc:	8fc20010 	lw	v0,16(s8)
  4023e0:	00000000 	nop
  4023e4:	04410004 	bgez	v0,4023f8 <read_map+0x50>
  4023e8:	00000000 	nop
/home/git/21373271/21373271/user/lib/file.c:139
  4023ec:	8fc20010 	lw	v0,16(s8)
  4023f0:	1000003d 	b	4024e8 <read_map+0x140>
  4023f4:	00000000 	nop
/home/git/21373271/21373271/user/lib/file.c:142
  4023f8:	8fc20018 	lw	v0,24(s8)
  4023fc:	00000000 	nop
  402400:	8c420000 	lw	v0,0(v0)
  402404:	3c030041 	lui	v1,0x41
  402408:	8c639040 	lw	v1,-28608(v1)
  40240c:	00000000 	nop
  402410:	10430004 	beq	v0,v1,402424 <read_map+0x7c>
  402414:	00000000 	nop
/home/git/21373271/21373271/user/lib/file.c:143
  402418:	2402fffd 	li	v0,-3
  40241c:	10000032 	b	4024e8 <read_map+0x140>
  402420:	00000000 	nop
/home/git/21373271/21373271/user/lib/file.c:146
  402424:	8fc20018 	lw	v0,24(s8)
  402428:	00000000 	nop
  40242c:	00402025 	move	a0,v0
  402430:	0c100586 	jal	401618 <fd2data>
  402434:	00000000 	nop
  402438:	00401825 	move	v1,v0
  40243c:	8fc2002c 	lw	v0,44(s8)
  402440:	00000000 	nop
  402444:	00621021 	addu	v0,v1,v0
  402448:	afc20014 	sw	v0,20(s8)
/home/git/21373271/21373271/user/lib/file.c:148
  40244c:	8fc3002c 	lw	v1,44(s8)
  402450:	3c020040 	lui	v0,0x40
  402454:	0062102b 	sltu	v0,v1,v0
  402458:	14400004 	bnez	v0,40246c <read_map+0xc4>
  40245c:	00000000 	nop
/home/git/21373271/21373271/user/lib/file.c:149
  402460:	2402fff8 	li	v0,-8
  402464:	10000020 	b	4024e8 <read_map+0x140>
  402468:	00000000 	nop
/home/git/21373271/21373271/user/lib/file.c:152
  40246c:	8fc20014 	lw	v0,20(s8)
  402470:	00000000 	nop
  402474:	00021582 	srl	v0,v0,0x16
  402478:	00021880 	sll	v1,v0,0x2
  40247c:	3c027fdf 	lui	v0,0x7fdf
  402480:	3442f000 	ori	v0,v0,0xf000
  402484:	00621021 	addu	v0,v1,v0
  402488:	8c420000 	lw	v0,0(v0)
  40248c:	00000000 	nop
  402490:	30420200 	andi	v0,v0,0x200
  402494:	1040000c 	beqz	v0,4024c8 <read_map+0x120>
  402498:	00000000 	nop
/home/git/21373271/21373271/user/lib/file.c:152 (discriminator 1)
  40249c:	8fc20014 	lw	v0,20(s8)
  4024a0:	00000000 	nop
  4024a4:	00021302 	srl	v0,v0,0xc
  4024a8:	00021880 	sll	v1,v0,0x2
  4024ac:	3c027fc0 	lui	v0,0x7fc0
  4024b0:	00621021 	addu	v0,v1,v0
  4024b4:	8c420000 	lw	v0,0(v0)
  4024b8:	00000000 	nop
  4024bc:	30420200 	andi	v0,v0,0x200
  4024c0:	14400004 	bnez	v0,4024d4 <read_map+0x12c>
  4024c4:	00000000 	nop
/home/git/21373271/21373271/user/lib/file.c:153
  4024c8:	2402fff8 	li	v0,-8
  4024cc:	10000006 	b	4024e8 <read_map+0x140>
  4024d0:	00000000 	nop
/home/git/21373271/21373271/user/lib/file.c:156
  4024d4:	8fc20030 	lw	v0,48(s8)
  4024d8:	8fc30014 	lw	v1,20(s8)
  4024dc:	00000000 	nop
  4024e0:	ac430000 	sw	v1,0(v0)
/home/git/21373271/21373271/user/lib/file.c:157
  4024e4:	00001025 	move	v0,zero
/home/git/21373271/21373271/user/lib/file.c:158 (discriminator 1)
  4024e8:	03c0e825 	move	sp,s8
  4024ec:	8fbf0024 	lw	ra,36(sp)
  4024f0:	8fbe0020 	lw	s8,32(sp)
  4024f4:	27bd0028 	addiu	sp,sp,40
  4024f8:	03e00008 	jr	ra
  4024fc:	00000000 	nop

00402500 <file_write>:
file_write():
/home/git/21373271/21373271/user/lib/file.c:162
  402500:	27bdffd8 	addiu	sp,sp,-40
  402504:	afbf0024 	sw	ra,36(sp)
  402508:	afbe0020 	sw	s8,32(sp)
  40250c:	03a0f025 	move	s8,sp
  402510:	afc40028 	sw	a0,40(s8)
  402514:	afc5002c 	sw	a1,44(s8)
  402518:	afc60030 	sw	a2,48(s8)
  40251c:	afc70034 	sw	a3,52(s8)
/home/git/21373271/21373271/user/lib/file.c:167
  402520:	8fc20028 	lw	v0,40(s8)
  402524:	00000000 	nop
  402528:	afc20010 	sw	v0,16(s8)
/home/git/21373271/21373271/user/lib/file.c:170
  40252c:	8fc30034 	lw	v1,52(s8)
  402530:	8fc20030 	lw	v0,48(s8)
  402534:	00000000 	nop
  402538:	00621021 	addu	v0,v1,v0
  40253c:	afc20014 	sw	v0,20(s8)
/home/git/21373271/21373271/user/lib/file.c:172
  402540:	8fc30014 	lw	v1,20(s8)
  402544:	3c020040 	lui	v0,0x40
  402548:	34420001 	ori	v0,v0,0x1
  40254c:	0062102b 	sltu	v0,v1,v0
  402550:	14400004 	bnez	v0,402564 <file_write+0x64>
  402554:	00000000 	nop
/home/git/21373271/21373271/user/lib/file.c:173
  402558:	2402fff8 	li	v0,-8
  40255c:	10000025 	b	4025f4 <file_write+0xf4>
  402560:	00000000 	nop
/home/git/21373271/21373271/user/lib/file.c:177
  402564:	8fc20010 	lw	v0,16(s8)
  402568:	00000000 	nop
  40256c:	8c420090 	lw	v0,144(v0)
  402570:	8fc30014 	lw	v1,20(s8)
  402574:	00000000 	nop
  402578:	0043102b 	sltu	v0,v0,v1
  40257c:	10400010 	beqz	v0,4025c0 <file_write+0xc0>
  402580:	00000000 	nop
/home/git/21373271/21373271/user/lib/file.c:178
  402584:	8fc40028 	lw	a0,40(s8)
  402588:	0c100596 	jal	401658 <fd2num>
  40258c:	00000000 	nop
  402590:	8fc50014 	lw	a1,20(s8)
  402594:	00402025 	move	a0,v0
  402598:	0c1009ac 	jal	4026b0 <ftruncate>
  40259c:	00000000 	nop
  4025a0:	afc20018 	sw	v0,24(s8)
  4025a4:	8fc20018 	lw	v0,24(s8)
  4025a8:	00000000 	nop
  4025ac:	04410004 	bgez	v0,4025c0 <file_write+0xc0>
  4025b0:	00000000 	nop
/home/git/21373271/21373271/user/lib/file.c:179
  4025b4:	8fc20018 	lw	v0,24(s8)
  4025b8:	1000000e 	b	4025f4 <file_write+0xf4>
  4025bc:	00000000 	nop
/home/git/21373271/21373271/user/lib/file.c:184
  4025c0:	8fc40028 	lw	a0,40(s8)
  4025c4:	0c100586 	jal	401618 <fd2data>
  4025c8:	00000000 	nop
  4025cc:	00401825 	move	v1,v0
  4025d0:	8fc20034 	lw	v0,52(s8)
  4025d4:	00000000 	nop
  4025d8:	00621021 	addu	v0,v1,v0
  4025dc:	8fc60030 	lw	a2,48(s8)
  4025e0:	8fc5002c 	lw	a1,44(s8)
  4025e4:	00402025 	move	a0,v0
  4025e8:	0c101ce8 	jal	4073a0 <memcpy>
  4025ec:	00000000 	nop
/home/git/21373271/21373271/user/lib/file.c:185
  4025f0:	8fc20030 	lw	v0,48(s8)
/home/git/21373271/21373271/user/lib/file.c:186
  4025f4:	03c0e825 	move	sp,s8
  4025f8:	8fbf0024 	lw	ra,36(sp)
  4025fc:	8fbe0020 	lw	s8,32(sp)
  402600:	27bd0028 	addiu	sp,sp,40
  402604:	03e00008 	jr	ra
  402608:	00000000 	nop

0040260c <file_stat>:
file_stat():
/home/git/21373271/21373271/user/lib/file.c:188
  40260c:	27bdffe0 	addiu	sp,sp,-32
  402610:	afbf001c 	sw	ra,28(sp)
  402614:	afbe0018 	sw	s8,24(sp)
  402618:	03a0f025 	move	s8,sp
  40261c:	afc40020 	sw	a0,32(s8)
  402620:	afc50024 	sw	a1,36(s8)
/home/git/21373271/21373271/user/lib/file.c:191
  402624:	8fc20020 	lw	v0,32(s8)
  402628:	00000000 	nop
  40262c:	afc20010 	sw	v0,16(s8)
/home/git/21373271/21373271/user/lib/file.c:193
  402630:	8fc30024 	lw	v1,36(s8)
  402634:	8fc20010 	lw	v0,16(s8)
  402638:	00000000 	nop
  40263c:	24420010 	addiu	v0,v0,16
  402640:	00402825 	move	a1,v0
  402644:	00602025 	move	a0,v1
  402648:	0c101dcf 	jal	40773c <strcpy>
  40264c:	00000000 	nop
/home/git/21373271/21373271/user/lib/file.c:194
  402650:	8fc20010 	lw	v0,16(s8)
  402654:	00000000 	nop
  402658:	8c430090 	lw	v1,144(v0)
  40265c:	8fc20024 	lw	v0,36(s8)
  402660:	00000000 	nop
  402664:	ac430080 	sw	v1,128(v0)
/home/git/21373271/21373271/user/lib/file.c:195
  402668:	8fc20010 	lw	v0,16(s8)
  40266c:	00000000 	nop
  402670:	8c420094 	lw	v0,148(v0)
  402674:	00000000 	nop
  402678:	38420001 	xori	v0,v0,0x1
  40267c:	2c420001 	sltiu	v0,v0,1
  402680:	304200ff 	andi	v0,v0,0xff
  402684:	00401825 	move	v1,v0
  402688:	8fc20024 	lw	v0,36(s8)
  40268c:	00000000 	nop
  402690:	ac430084 	sw	v1,132(v0)
/home/git/21373271/21373271/user/lib/file.c:196
  402694:	00001025 	move	v0,zero
/home/git/21373271/21373271/user/lib/file.c:197
  402698:	03c0e825 	move	sp,s8
  40269c:	8fbf001c 	lw	ra,28(sp)
  4026a0:	8fbe0018 	lw	s8,24(sp)
  4026a4:	27bd0020 	addiu	sp,sp,32
  4026a8:	03e00008 	jr	ra
  4026ac:	00000000 	nop

004026b0 <ftruncate>:
ftruncate():
/home/git/21373271/21373271/user/lib/file.c:201
  4026b0:	27bdffc0 	addiu	sp,sp,-64
  4026b4:	afbf003c 	sw	ra,60(sp)
  4026b8:	afbe0038 	sw	s8,56(sp)
  4026bc:	03a0f025 	move	s8,sp
  4026c0:	afc40040 	sw	a0,64(s8)
  4026c4:	afc50044 	sw	a1,68(s8)
/home/git/21373271/21373271/user/lib/file.c:207
  4026c8:	8fc30044 	lw	v1,68(s8)
  4026cc:	3c020040 	lui	v0,0x40
  4026d0:	34420001 	ori	v0,v0,0x1
  4026d4:	0062102b 	sltu	v0,v1,v0
  4026d8:	14400004 	bnez	v0,4026ec <ftruncate+0x3c>
  4026dc:	00000000 	nop
/home/git/21373271/21373271/user/lib/file.c:208
  4026e0:	2402fff8 	li	v0,-8
  4026e4:	1000009d 	b	40295c <ftruncate+0x2ac>
  4026e8:	00000000 	nop
/home/git/21373271/21373271/user/lib/file.c:211
  4026ec:	27c20030 	addiu	v0,s8,48
  4026f0:	00402825 	move	a1,v0
  4026f4:	8fc40040 	lw	a0,64(s8)
  4026f8:	0c10055b 	jal	40156c <fd_lookup>
  4026fc:	00000000 	nop
  402700:	afc2001c 	sw	v0,28(s8)
  402704:	8fc2001c 	lw	v0,28(s8)
  402708:	00000000 	nop
  40270c:	04410004 	bgez	v0,402720 <ftruncate+0x70>
  402710:	00000000 	nop
/home/git/21373271/21373271/user/lib/file.c:212
  402714:	8fc2001c 	lw	v0,28(s8)
  402718:	10000090 	b	40295c <ftruncate+0x2ac>
  40271c:	00000000 	nop
/home/git/21373271/21373271/user/lib/file.c:215
  402720:	8fc20030 	lw	v0,48(s8)
  402724:	00000000 	nop
  402728:	8c420000 	lw	v0,0(v0)
  40272c:	3c030041 	lui	v1,0x41
  402730:	8c639040 	lw	v1,-28608(v1)
  402734:	00000000 	nop
  402738:	10430004 	beq	v0,v1,40274c <ftruncate+0x9c>
  40273c:	00000000 	nop
/home/git/21373271/21373271/user/lib/file.c:216
  402740:	2402fffd 	li	v0,-3
  402744:	10000085 	b	40295c <ftruncate+0x2ac>
  402748:	00000000 	nop
/home/git/21373271/21373271/user/lib/file.c:219
  40274c:	8fc20030 	lw	v0,48(s8)
  402750:	00000000 	nop
  402754:	afc20020 	sw	v0,32(s8)
/home/git/21373271/21373271/user/lib/file.c:220
  402758:	8fc20020 	lw	v0,32(s8)
  40275c:	00000000 	nop
  402760:	8c42000c 	lw	v0,12(v0)
  402764:	00000000 	nop
  402768:	afc20024 	sw	v0,36(s8)
/home/git/21373271/21373271/user/lib/file.c:221
  40276c:	8fc20020 	lw	v0,32(s8)
  402770:	00000000 	nop
  402774:	8c420090 	lw	v0,144(v0)
  402778:	00000000 	nop
  40277c:	afc20028 	sw	v0,40(s8)
/home/git/21373271/21373271/user/lib/file.c:222
  402780:	8fc20020 	lw	v0,32(s8)
  402784:	8fc30044 	lw	v1,68(s8)
  402788:	00000000 	nop
  40278c:	ac430090 	sw	v1,144(v0)
/home/git/21373271/21373271/user/lib/file.c:224
  402790:	8fc50044 	lw	a1,68(s8)
  402794:	8fc40024 	lw	a0,36(s8)
  402798:	0c100c88 	jal	403220 <fsipc_set_size>
  40279c:	00000000 	nop
  4027a0:	afc2001c 	sw	v0,28(s8)
  4027a4:	8fc2001c 	lw	v0,28(s8)
  4027a8:	00000000 	nop
  4027ac:	04410004 	bgez	v0,4027c0 <ftruncate+0x110>
  4027b0:	00000000 	nop
/home/git/21373271/21373271/user/lib/file.c:225
  4027b4:	8fc2001c 	lw	v0,28(s8)
  4027b8:	10000068 	b	40295c <ftruncate+0x2ac>
  4027bc:	00000000 	nop
/home/git/21373271/21373271/user/lib/file.c:228
  4027c0:	8fc20030 	lw	v0,48(s8)
  4027c4:	00000000 	nop
  4027c8:	00402025 	move	a0,v0
  4027cc:	0c100586 	jal	401618 <fd2data>
  4027d0:	00000000 	nop
  4027d4:	afc2002c 	sw	v0,44(s8)
/home/git/21373271/21373271/user/lib/file.c:231
  4027d8:	8fc20028 	lw	v0,40(s8)
  4027dc:	00000000 	nop
  4027e0:	24420fff 	addiu	v0,v0,4095
  4027e4:	00401825 	move	v1,v0
  4027e8:	2402f000 	li	v0,-4096
  4027ec:	00621024 	and	v0,v1,v0
  4027f0:	afc20018 	sw	v0,24(s8)
  4027f4:	1000001b 	b	402864 <ftruncate+0x1b4>
  4027f8:	00000000 	nop
/home/git/21373271/21373271/user/lib/file.c:232
  4027fc:	8fc40018 	lw	a0,24(s8)
  402800:	8fc20018 	lw	v0,24(s8)
  402804:	8fc3002c 	lw	v1,44(s8)
  402808:	00000000 	nop
  40280c:	00621021 	addu	v0,v1,v0
  402810:	00403025 	move	a2,v0
  402814:	00802825 	move	a1,a0
  402818:	8fc40024 	lw	a0,36(s8)
  40281c:	0c100c4e 	jal	403138 <fsipc_map>
  402820:	00000000 	nop
  402824:	afc2001c 	sw	v0,28(s8)
  402828:	8fc2001c 	lw	v0,28(s8)
  40282c:	00000000 	nop
  402830:	04410008 	bgez	v0,402854 <ftruncate+0x1a4>
  402834:	00000000 	nop
/home/git/21373271/21373271/user/lib/file.c:233
  402838:	8fc50028 	lw	a1,40(s8)
  40283c:	8fc40024 	lw	a0,36(s8)
  402840:	0c100c88 	jal	403220 <fsipc_set_size>
  402844:	00000000 	nop
/home/git/21373271/21373271/user/lib/file.c:234
  402848:	8fc2001c 	lw	v0,28(s8)
  40284c:	10000043 	b	40295c <ftruncate+0x2ac>
  402850:	00000000 	nop
/home/git/21373271/21373271/user/lib/file.c:231 (discriminator 2)
  402854:	8fc20018 	lw	v0,24(s8)
  402858:	00000000 	nop
  40285c:	24421000 	addiu	v0,v0,4096
  402860:	afc20018 	sw	v0,24(s8)
/home/git/21373271/21373271/user/lib/file.c:231 (discriminator 1)
  402864:	8fc20044 	lw	v0,68(s8)
  402868:	00000000 	nop
  40286c:	24430fff 	addiu	v1,v0,4095
  402870:	2402f000 	li	v0,-4096
  402874:	00621824 	and	v1,v1,v0
  402878:	8fc20018 	lw	v0,24(s8)
  40287c:	00000000 	nop
  402880:	0043102b 	sltu	v0,v0,v1
  402884:	1440ffdd 	bnez	v0,4027fc <ftruncate+0x14c>
  402888:	00000000 	nop
/home/git/21373271/21373271/user/lib/file.c:239
  40288c:	8fc20044 	lw	v0,68(s8)
  402890:	00000000 	nop
  402894:	24420fff 	addiu	v0,v0,4095
  402898:	00401825 	move	v1,v0
  40289c:	2402f000 	li	v0,-4096
  4028a0:	00621024 	and	v0,v1,v0
  4028a4:	afc20018 	sw	v0,24(s8)
  4028a8:	10000021 	b	402930 <ftruncate+0x280>
  4028ac:	00000000 	nop
/home/git/21373271/21373271/user/lib/file.c:240
  4028b0:	8fc20018 	lw	v0,24(s8)
  4028b4:	8fc3002c 	lw	v1,44(s8)
  4028b8:	00000000 	nop
  4028bc:	00621021 	addu	v0,v1,v0
  4028c0:	00402825 	move	a1,v0
  4028c4:	00002025 	move	a0,zero
  4028c8:	0c100e65 	jal	403994 <syscall_mem_unmap>
  4028cc:	00000000 	nop
  4028d0:	afc2001c 	sw	v0,28(s8)
  4028d4:	8fc2001c 	lw	v0,28(s8)
  4028d8:	00000000 	nop
  4028dc:	04410010 	bgez	v0,402920 <ftruncate+0x270>
  4028e0:	00000000 	nop
/home/git/21373271/21373271/user/lib/file.c:241
  4028e4:	8fc20018 	lw	v0,24(s8)
  4028e8:	8fc3002c 	lw	v1,44(s8)
  4028ec:	00000000 	nop
  4028f0:	00621821 	addu	v1,v1,v0
  4028f4:	8fc2001c 	lw	v0,28(s8)
  4028f8:	00000000 	nop
  4028fc:	afa20010 	sw	v0,16(sp)
  402900:	00603825 	move	a3,v1
  402904:	3c020040 	lui	v0,0x40
  402908:	24467cbc 	addiu	a2,v0,31932
  40290c:	240500f1 	li	a1,241
  402910:	3c020040 	lui	v0,0x40
  402914:	24447ce4 	addiu	a0,v0,31972
  402918:	0c100487 	jal	40121c <_user_panic>
  40291c:	00000000 	nop
/home/git/21373271/21373271/user/lib/file.c:239 (discriminator 2)
  402920:	8fc20018 	lw	v0,24(s8)
  402924:	00000000 	nop
  402928:	24421000 	addiu	v0,v0,4096
  40292c:	afc20018 	sw	v0,24(s8)
/home/git/21373271/21373271/user/lib/file.c:239 (discriminator 1)
  402930:	8fc20028 	lw	v0,40(s8)
  402934:	00000000 	nop
  402938:	24430fff 	addiu	v1,v0,4095
  40293c:	2402f000 	li	v0,-4096
  402940:	00621824 	and	v1,v1,v0
  402944:	8fc20018 	lw	v0,24(s8)
  402948:	00000000 	nop
  40294c:	0043102b 	sltu	v0,v0,v1
  402950:	1440ffd7 	bnez	v0,4028b0 <ftruncate+0x200>
  402954:	00000000 	nop
/home/git/21373271/21373271/user/lib/file.c:245
  402958:	00001025 	move	v0,zero
/home/git/21373271/21373271/user/lib/file.c:246 (discriminator 1)
  40295c:	03c0e825 	move	sp,s8
  402960:	8fbf003c 	lw	ra,60(sp)
  402964:	8fbe0038 	lw	s8,56(sp)
  402968:	27bd0040 	addiu	sp,sp,64
  40296c:	03e00008 	jr	ra
  402970:	00000000 	nop

00402974 <remove>:
remove():
/home/git/21373271/21373271/user/lib/file.c:250
  402974:	27bdffe8 	addiu	sp,sp,-24
  402978:	afbf0014 	sw	ra,20(sp)
  40297c:	afbe0010 	sw	s8,16(sp)
  402980:	03a0f025 	move	s8,sp
  402984:	afc40018 	sw	a0,24(s8)
/home/git/21373271/21373271/user/lib/file.c:255
  402988:	8fc40018 	lw	a0,24(s8)
  40298c:	0c100cda 	jal	403368 <fsipc_remove>
  402990:	00000000 	nop
/home/git/21373271/21373271/user/lib/file.c:256
  402994:	03c0e825 	move	sp,s8
  402998:	8fbf0014 	lw	ra,20(sp)
  40299c:	8fbe0010 	lw	s8,16(sp)
  4029a0:	27bd0018 	addiu	sp,sp,24
  4029a4:	03e00008 	jr	ra
  4029a8:	00000000 	nop

004029ac <sync>:
sync():
/home/git/21373271/21373271/user/lib/file.c:260
  4029ac:	27bdffe8 	addiu	sp,sp,-24
  4029b0:	afbf0014 	sw	ra,20(sp)
  4029b4:	afbe0010 	sw	s8,16(sp)
  4029b8:	03a0f025 	move	s8,sp
/home/git/21373271/21373271/user/lib/file.c:261
  4029bc:	0c100d01 	jal	403404 <fsipc_sync>
  4029c0:	00000000 	nop
/home/git/21373271/21373271/user/lib/file.c:262
  4029c4:	03c0e825 	move	sp,s8
  4029c8:	8fbf0014 	lw	ra,20(sp)
  4029cc:	8fbe0010 	lw	s8,16(sp)
  4029d0:	27bd0018 	addiu	sp,sp,24
  4029d4:	03e00008 	jr	ra
  4029d8:	00000000 	nop
  4029dc:	00000000 	nop

004029e0 <cow_entry>:
cow_entry():
/home/git/21373271/21373271/user/lib/fork.c:16
 * Post-Condition:
 *  - Launch a 'user_panic' if 'va' is not a copy-on-write page.
 *  - Otherwise, this handler should map a private writable copy of
 *    the faulting page at the same address.
 */
static void __attribute__((noreturn)) cow_entry(struct Trapframe *tf) {
  4029e0:	27bdffd0 	addiu	sp,sp,-48
  4029e4:	afbf002c 	sw	ra,44(sp)
  4029e8:	afbe0028 	sw	s8,40(sp)
  4029ec:	03a0f025 	move	s8,sp
  4029f0:	afc40030 	sw	a0,48(s8)
/home/git/21373271/21373271/user/lib/fork.c:17
	u_int va = tf->cp0_badvaddr;
  4029f4:	8fc20030 	lw	v0,48(s8)
  4029f8:	00000000 	nop
  4029fc:	8c42008c 	lw	v0,140(v0)
  402a00:	00000000 	nop
  402a04:	afc20018 	sw	v0,24(s8)
/home/git/21373271/21373271/user/lib/fork.c:24

	/* Step 1: Find the 'perm' in which the faulting address 'va' is mapped. */
	/* Hint: Use 'vpt' and 'VPN' to find the page table entry. If the 'perm' doesn't have
	 * 'PTE_COW', launch a 'user_panic'. */
	/* Exercise 4.13: Your code here. (1/6) */
	perm = *(vpt+VPN(va)) & 0xfff;
  402a08:	8fc20018 	lw	v0,24(s8)
  402a0c:	00000000 	nop
  402a10:	00021302 	srl	v0,v0,0xc
  402a14:	00021880 	sll	v1,v0,0x2
  402a18:	3c027fc0 	lui	v0,0x7fc0
  402a1c:	00621021 	addu	v0,v1,v0
  402a20:	8c420000 	lw	v0,0(v0)
  402a24:	00000000 	nop
  402a28:	30420fff 	andi	v0,v0,0xfff
  402a2c:	afc2001c 	sw	v0,28(s8)
/home/git/21373271/21373271/user/lib/fork.c:26
	//debugf("perm:%d",perm);
	if ( (perm & PTE_COW) == 0) 
  402a30:	8fc2001c 	lw	v0,28(s8)
  402a34:	00000000 	nop
  402a38:	30420001 	andi	v0,v0,0x1
  402a3c:	14400008 	bnez	v0,402a60 <cow_entry+0x80>
  402a40:	00000000 	nop
/home/git/21373271/21373271/user/lib/fork.c:28
	{
		user_panic("pgfault err: COW not found");
  402a44:	3c020040 	lui	v0,0x40
  402a48:	24467cf0 	addiu	a2,v0,31984
  402a4c:	2405001c 	li	a1,28
  402a50:	3c020040 	lui	v0,0x40
  402a54:	24447d0c 	addiu	a0,v0,32012
  402a58:	0c100487 	jal	40121c <_user_panic>
  402a5c:	00000000 	nop
/home/git/21373271/21373271/user/lib/fork.c:33
	}
	/* Step 2: Remove 'PTE_COW' from the 'perm', and add 'PTE_D' to it. */
	/* Exercise 4.13: Your code here. (2/6) */
	//debugf("perm赋值\n");
	perm = (perm & ~PTE_COW) | PTE_D;
  402a60:	8fc3001c 	lw	v1,28(s8)
  402a64:	2402fbfe 	li	v0,-1026
  402a68:	00621024 	and	v0,v1,v0
  402a6c:	34420400 	ori	v0,v0,0x400
  402a70:	afc2001c 	sw	v0,28(s8)
/home/git/21373271/21373271/user/lib/fork.c:37
	/* Step 3: Allocate a new page at 'UCOW'. */
	/* Exercise 4.13: Your code here. (3/6) */
	//debugf("syscall_mem_alloc\n");
	syscall_mem_alloc(0,(void*)UCOW,perm);
  402a74:	8fc6001c 	lw	a2,28(s8)
  402a78:	3c02003f 	lui	v0,0x3f
  402a7c:	3445f000 	ori	a1,v0,0xf000
  402a80:	00002025 	move	a0,zero
  402a84:	0c100e38 	jal	4038e0 <syscall_mem_alloc>
  402a88:	00000000 	nop
/home/git/21373271/21373271/user/lib/fork.c:42
	/* Step 4: Copy the content of the faulting page at 'va' to 'UCOW'. */
	/* Hint: 'va' may not be aligned to a page! */
	/* Exercise 4.13: Your code here. (4/6) */
	//debugf("memcpy\n");
	memcpy((void*)UCOW,(void*)ROUNDDOWN(va,BY2PG),BY2PG);
  402a8c:	8fc30018 	lw	v1,24(s8)
  402a90:	2402f000 	li	v0,-4096
  402a94:	00621024 	and	v0,v1,v0
  402a98:	24061000 	li	a2,4096
  402a9c:	00402825 	move	a1,v0
  402aa0:	3c02003f 	lui	v0,0x3f
  402aa4:	3444f000 	ori	a0,v0,0xf000
  402aa8:	0c101ce8 	jal	4073a0 <memcpy>
  402aac:	00000000 	nop
/home/git/21373271/21373271/user/lib/fork.c:46
	// Step 5: Map the page at 'UCOW' to 'va' with the new 'perm'.
	/* Exercise 4.13: Your code here. (5/6) */
	//debugf("syscall_mem_map\n");
	syscall_mem_map(0,(void*)UCOW,0,(void*)va,perm);
  402ab0:	8fc30018 	lw	v1,24(s8)
  402ab4:	8fc2001c 	lw	v0,28(s8)
  402ab8:	00000000 	nop
  402abc:	afa20010 	sw	v0,16(sp)
  402ac0:	00603825 	move	a3,v1
  402ac4:	00003025 	move	a2,zero
  402ac8:	3c02003f 	lui	v0,0x3f
  402acc:	3445f000 	ori	a1,v0,0xf000
  402ad0:	00002025 	move	a0,zero
  402ad4:	0c100e4b 	jal	40392c <syscall_mem_map>
  402ad8:	00000000 	nop
/home/git/21373271/21373271/user/lib/fork.c:50
	// Step 6: Unmap the page at 'UCOW'.
	/* Exercise 4.13: Your code here. (6/6) */
	//debugf("syscall_mem_unmap\n");
	syscall_mem_unmap(0,(void*)UCOW);
  402adc:	3c02003f 	lui	v0,0x3f
  402ae0:	3445f000 	ori	a1,v0,0xf000
  402ae4:	00002025 	move	a0,zero
  402ae8:	0c100e65 	jal	403994 <syscall_mem_unmap>
  402aec:	00000000 	nop
/home/git/21373271/21373271/user/lib/fork.c:52
	// Step 7: Return to the faulting routine.
	int r = syscall_set_trapframe(0, tf);
  402af0:	8fc50030 	lw	a1,48(s8)
  402af4:	00002025 	move	a0,zero
  402af8:	0c100e87 	jal	403a1c <syscall_set_trapframe>
  402afc:	00000000 	nop
  402b00:	afc20020 	sw	v0,32(s8)
/home/git/21373271/21373271/user/lib/fork.c:53
	user_panic("syscall_set_trapframe returned %d", r);
  402b04:	8fc70020 	lw	a3,32(s8)
  402b08:	3c020040 	lui	v0,0x40
  402b0c:	24467d18 	addiu	a2,v0,32024
  402b10:	24050035 	li	a1,53
  402b14:	3c020040 	lui	v0,0x40
  402b18:	24447d0c 	addiu	a0,v0,32012
  402b1c:	0c100487 	jal	40121c <_user_panic>
  402b20:	00000000 	nop

00402b24 <duppage>:
duppage():
/home/git/21373271/21373271/user/lib/fork.c:78
 *   - You can pass '0' as an 'envid' in arguments of 'syscall_*' to indicate current env because
 *     kernel 'envid2env' converts '0' to 'curenv').
 *   - You should use 'syscall_mem_map', the user space wrapper around 'msyscall' to invoke
 *     'sys_mem_map' in kernel.
 */
static void duppage(u_int envid, u_int vpn) {
  402b24:	27bdffd0 	addiu	sp,sp,-48
  402b28:	afbf002c 	sw	ra,44(sp)
  402b2c:	afbe0028 	sw	s8,40(sp)
  402b30:	03a0f025 	move	s8,sp
  402b34:	afc40030 	sw	a0,48(s8)
  402b38:	afc50034 	sw	a1,52(s8)
/home/git/21373271/21373271/user/lib/fork.c:85
	u_int perm;

	/* Step 1: Get the permission of the page. */
	/* Hint: Use 'vpt' to find the page table entry. */
	/* Exercise 4.10: Your code here. (1/2) */
	addr = vpn << PGSHIFT;
  402b3c:	8fc20034 	lw	v0,52(s8)
  402b40:	00000000 	nop
  402b44:	00021300 	sll	v0,v0,0xc
  402b48:	afc20020 	sw	v0,32(s8)
/home/git/21373271/21373271/user/lib/fork.c:86
	perm = *(vpt + vpn) & 0xfff;
  402b4c:	8fc20034 	lw	v0,52(s8)
  402b50:	00000000 	nop
  402b54:	00021880 	sll	v1,v0,0x2
  402b58:	3c027fc0 	lui	v0,0x7fc0
  402b5c:	00621021 	addu	v0,v1,v0
  402b60:	8c420000 	lw	v0,0(v0)
  402b64:	00000000 	nop
  402b68:	30420fff 	andi	v0,v0,0xfff
  402b6c:	afc20018 	sw	v0,24(s8)
/home/git/21373271/21373271/user/lib/fork.c:92
	/* Step 2: If the page is writable, and not shared with children, and not marked as COW yet,
	 * then map it as copy-on-write, both in the parent (0) and the child (envid). */
	/* Hint: The page should be first mapped to the child before remapped in the parent. (Why?)
	 */
	/* Exercise 4.10: Your code here. (2/2) */
	int flag = 0;
  402b70:	afc0001c 	sw	zero,28(s8)
/home/git/21373271/21373271/user/lib/fork.c:93
	if ( (perm & PTE_D) && !(perm & PTE_LIBRARY) && !(perm & PTE_COW) )
  402b74:	8fc20018 	lw	v0,24(s8)
  402b78:	00000000 	nop
  402b7c:	30420400 	andi	v0,v0,0x400
  402b80:	10400012 	beqz	v0,402bcc <duppage+0xa8>
  402b84:	00000000 	nop
/home/git/21373271/21373271/user/lib/fork.c:93 (discriminator 1)
  402b88:	8fc20018 	lw	v0,24(s8)
  402b8c:	00000000 	nop
  402b90:	30420004 	andi	v0,v0,0x4
  402b94:	1440000d 	bnez	v0,402bcc <duppage+0xa8>
  402b98:	00000000 	nop
/home/git/21373271/21373271/user/lib/fork.c:93 (discriminator 2)
  402b9c:	8fc20018 	lw	v0,24(s8)
  402ba0:	00000000 	nop
  402ba4:	30420001 	andi	v0,v0,0x1
  402ba8:	14400008 	bnez	v0,402bcc <duppage+0xa8>
  402bac:	00000000 	nop
/home/git/21373271/21373271/user/lib/fork.c:95
	{
		perm = (perm | PTE_COW) & ~PTE_D;
  402bb0:	8fc30018 	lw	v1,24(s8)
  402bb4:	2402fbfe 	li	v0,-1026
  402bb8:	00621024 	and	v0,v1,v0
  402bbc:	34420001 	ori	v0,v0,0x1
  402bc0:	afc20018 	sw	v0,24(s8)
/home/git/21373271/21373271/user/lib/fork.c:96
		flag = 1;
  402bc4:	24020001 	li	v0,1
  402bc8:	afc2001c 	sw	v0,28(s8)
/home/git/21373271/21373271/user/lib/fork.c:98
	}
	syscall_mem_map(0,(void*)addr,envid,(void*)addr,perm);
  402bcc:	8fc30020 	lw	v1,32(s8)
  402bd0:	8fc40020 	lw	a0,32(s8)
  402bd4:	8fc20018 	lw	v0,24(s8)
  402bd8:	00000000 	nop
  402bdc:	afa20010 	sw	v0,16(sp)
  402be0:	00803825 	move	a3,a0
  402be4:	8fc60030 	lw	a2,48(s8)
  402be8:	00602825 	move	a1,v1
  402bec:	00002025 	move	a0,zero
  402bf0:	0c100e4b 	jal	40392c <syscall_mem_map>
  402bf4:	00000000 	nop
/home/git/21373271/21373271/user/lib/fork.c:99
	if (flag)
  402bf8:	8fc2001c 	lw	v0,28(s8)
  402bfc:	00000000 	nop
  402c00:	1040000c 	beqz	v0,402c34 <duppage+0x110>
  402c04:	00000000 	nop
/home/git/21373271/21373271/user/lib/fork.c:101
	{
		syscall_mem_map(0,(void*)addr,0,(void*)addr,perm);
  402c08:	8fc30020 	lw	v1,32(s8)
  402c0c:	8fc40020 	lw	a0,32(s8)
  402c10:	8fc20018 	lw	v0,24(s8)
  402c14:	00000000 	nop
  402c18:	afa20010 	sw	v0,16(sp)
  402c1c:	00803825 	move	a3,a0
  402c20:	00003025 	move	a2,zero
  402c24:	00602825 	move	a1,v1
  402c28:	00002025 	move	a0,zero
  402c2c:	0c100e4b 	jal	40392c <syscall_mem_map>
  402c30:	00000000 	nop
/home/git/21373271/21373271/user/lib/fork.c:103
	}
}
  402c34:	00000000 	nop
  402c38:	03c0e825 	move	sp,s8
  402c3c:	8fbf002c 	lw	ra,44(sp)
  402c40:	8fbe0028 	lw	s8,40(sp)
  402c44:	27bd0030 	addiu	sp,sp,48
  402c48:	03e00008 	jr	ra
  402c4c:	00000000 	nop

00402c50 <fork>:
fork():
/home/git/21373271/21373271/user/lib/fork.c:116
 *
 * Hint:
 *   Use global symbols 'env', 'vpt' and 'vpd'.
 *   Use 'syscall_set_tlb_mod_entry', 'syscall_getenvid', 'syscall_exofork',  and 'duppage'.
 */
int fork(void) {
  402c50:	27bdffd0 	addiu	sp,sp,-48
  402c54:	afbf002c 	sw	ra,44(sp)
  402c58:	afbe0028 	sw	s8,40(sp)
  402c5c:	03a0f025 	move	s8,sp
/home/git/21373271/21373271/user/lib/fork.c:122
	u_int child;
	u_int i;
	extern volatile struct Env *env;
	//debugf("我进来了！\n");
	/* step 1: Set our TLB Mod user exception entry to 'cow_entry' if not done yet. */
	if (env->env_user_tlb_mod_entry != (u_int)cow_entry) 
  402c60:	3c020041 	lui	v0,0x41
  402c64:	8c42b000 	lw	v0,-20480(v0)
  402c68:	00000000 	nop
  402c6c:	8c4300d4 	lw	v1,212(v0)
  402c70:	3c020040 	lui	v0,0x40
  402c74:	244229e0 	addiu	v0,v0,10720
  402c78:	1062000e 	beq	v1,v0,402cb4 <fork+0x64>
  402c7c:	00000000 	nop
/home/git/21373271/21373271/user/lib/fork.c:125
	{	
		//debugf("我尝试了\n");
		try(syscall_set_tlb_mod_entry(0, cow_entry));
  402c80:	3c020040 	lui	v0,0x40
  402c84:	244529e0 	addiu	a1,v0,10720
  402c88:	00002025 	move	a0,zero
  402c8c:	0c100e27 	jal	40389c <syscall_set_tlb_mod_entry>
  402c90:	00000000 	nop
  402c94:	afc2001c 	sw	v0,28(s8)
  402c98:	8fc2001c 	lw	v0,28(s8)
  402c9c:	00000000 	nop
  402ca0:	10400004 	beqz	v0,402cb4 <fork+0x64>
  402ca4:	00000000 	nop
/home/git/21373271/21373271/user/lib/fork.c:125 (discriminator 1)
  402ca8:	8fc2001c 	lw	v0,28(s8)
  402cac:	10000050 	b	402df0 <fork+0x1a0>
  402cb0:	00000000 	nop
syscall_exofork():
/home/git/21373271/21373271/user/include/lib.h:60
int syscall_env_destroy(u_int envid);
int syscall_set_tlb_mod_entry(u_int envid, void (*func)(struct Trapframe *));
int syscall_mem_alloc(u_int envid, void *va, u_int perm);
int syscall_mem_map(u_int srcid, void *srcva, u_int dstid, void *dstva, u_int perm);
int syscall_mem_unmap(u_int envid, void *va);

  402cb4:	afa00014 	sw	zero,20(sp)
  402cb8:	afa00010 	sw	zero,16(sp)
  402cbc:	00003825 	move	a3,zero
  402cc0:	00003025 	move	a2,zero
  402cc4:	00002825 	move	a1,zero
  402cc8:	24040009 	li	a0,9
  402ccc:	0c100f04 	jal	403c10 <msyscall>
  402cd0:	00000000 	nop
fork():
/home/git/21373271/21373271/user/lib/fork.c:132

	/* Step 2: Create a child env that's not ready to be scheduled. */
	// Hint: 'env' should always point to the current env itself, so we should fix it to the
	// correct value.
	//debugf("%d\n",child);
	child = syscall_exofork();
  402cd4:	afc20020 	sw	v0,32(s8)
/home/git/21373271/21373271/user/lib/fork.c:134
	//debugf("%d\n",child);
	if (child == 0) {
  402cd8:	8fc20020 	lw	v0,32(s8)
  402cdc:	00000000 	nop
  402ce0:	14400012 	bnez	v0,402d2c <fork+0xdc>
  402ce4:	00000000 	nop
/home/git/21373271/21373271/user/lib/fork.c:135
		env = envs + ENVX(syscall_getenvid());
  402ce8:	0c100dfd 	jal	4037f4 <syscall_getenvid>
  402cec:	00000000 	nop
  402cf0:	304303ff 	andi	v1,v0,0x3ff
  402cf4:	00601025 	move	v0,v1
  402cf8:	000210c0 	sll	v0,v0,0x3
  402cfc:	00431023 	subu	v0,v0,v1
  402d00:	000210c0 	sll	v0,v0,0x3
  402d04:	00431023 	subu	v0,v0,v1
  402d08:	00021080 	sll	v0,v0,0x2
  402d0c:	00401825 	move	v1,v0
  402d10:	3c027f40 	lui	v0,0x7f40
  402d14:	00621821 	addu	v1,v1,v0
  402d18:	3c020041 	lui	v0,0x41
  402d1c:	ac43b000 	sw	v1,-20480(v0)
/home/git/21373271/21373271/user/lib/fork.c:136
		return 0;
  402d20:	00001025 	move	v0,zero
  402d24:	10000032 	b	402df0 <fork+0x1a0>
  402d28:	00000000 	nop
/home/git/21373271/21373271/user/lib/fork.c:142
	}

	/* Step 3: Map all mapped pages below 'USTACKTOP' into the child's address space. */
	// Hint: You should use 'duppage'.
	/* Exercise 4.15: Your code here. (1/2) */
	for (i = 0 ; i < VPN(USTACKTOP) ; i++ )
  402d2c:	afc00018 	sw	zero,24(s8)
  402d30:	1000001f 	b	402db0 <fork+0x160>
  402d34:	00000000 	nop
/home/git/21373271/21373271/user/lib/fork.c:144
	{
		if ( (*(vpd+(i>>10)) & PTE_V) && (*(vpt+i) & PTE_V) )
  402d38:	8fc20018 	lw	v0,24(s8)
  402d3c:	00000000 	nop
  402d40:	00021282 	srl	v0,v0,0xa
  402d44:	00021880 	sll	v1,v0,0x2
  402d48:	3c027fdf 	lui	v0,0x7fdf
  402d4c:	3442f000 	ori	v0,v0,0xf000
  402d50:	00621021 	addu	v0,v1,v0
  402d54:	8c420000 	lw	v0,0(v0)
  402d58:	00000000 	nop
  402d5c:	30420200 	andi	v0,v0,0x200
  402d60:	1040000f 	beqz	v0,402da0 <fork+0x150>
  402d64:	00000000 	nop
/home/git/21373271/21373271/user/lib/fork.c:144 (discriminator 1)
  402d68:	8fc20018 	lw	v0,24(s8)
  402d6c:	00000000 	nop
  402d70:	00021880 	sll	v1,v0,0x2
  402d74:	3c027fc0 	lui	v0,0x7fc0
  402d78:	00621021 	addu	v0,v1,v0
  402d7c:	8c420000 	lw	v0,0(v0)
  402d80:	00000000 	nop
  402d84:	30420200 	andi	v0,v0,0x200
  402d88:	10400005 	beqz	v0,402da0 <fork+0x150>
  402d8c:	00000000 	nop
/home/git/21373271/21373271/user/lib/fork.c:146
		{
			duppage(child,i);
  402d90:	8fc50018 	lw	a1,24(s8)
  402d94:	8fc40020 	lw	a0,32(s8)
  402d98:	0c100ac9 	jal	402b24 <duppage>
  402d9c:	00000000 	nop
/home/git/21373271/21373271/user/lib/fork.c:142 (discriminator 2)
	for (i = 0 ; i < VPN(USTACKTOP) ; i++ )
  402da0:	8fc20018 	lw	v0,24(s8)
  402da4:	00000000 	nop
  402da8:	24420001 	addiu	v0,v0,1
  402dac:	afc20018 	sw	v0,24(s8)
/home/git/21373271/21373271/user/lib/fork.c:142 (discriminator 1)
  402db0:	8fc30018 	lw	v1,24(s8)
  402db4:	3c020007 	lui	v0,0x7
  402db8:	3442f3fe 	ori	v0,v0,0xf3fe
  402dbc:	0062102b 	sltu	v0,v1,v0
  402dc0:	1440ffdd 	bnez	v0,402d38 <fork+0xe8>
  402dc4:	00000000 	nop
/home/git/21373271/21373271/user/lib/fork.c:156
	/* Hint:
	 *   You may use 'syscall_set_tlb_mod_entry' and 'syscall_set_env_status'
	 *   Child's TLB Mod user exception entry should handle COW, so set it to 'cow_entry'
	 */
	/* Exercise 4.15: Your code here. (2/2) */
	syscall_set_tlb_mod_entry(child,cow_entry);
  402dc8:	3c020040 	lui	v0,0x40
  402dcc:	244529e0 	addiu	a1,v0,10720
  402dd0:	8fc40020 	lw	a0,32(s8)
  402dd4:	0c100e27 	jal	40389c <syscall_set_tlb_mod_entry>
  402dd8:	00000000 	nop
/home/git/21373271/21373271/user/lib/fork.c:157
	syscall_set_env_status(child,ENV_RUNNABLE);
  402ddc:	24050001 	li	a1,1
  402de0:	8fc40020 	lw	a0,32(s8)
  402de4:	0c100e76 	jal	4039d8 <syscall_set_env_status>
  402de8:	00000000 	nop
/home/git/21373271/21373271/user/lib/fork.c:158
	return child;
  402dec:	8fc20020 	lw	v0,32(s8)
/home/git/21373271/21373271/user/lib/fork.c:159
}
  402df0:	03c0e825 	move	sp,s8
  402df4:	8fbf002c 	lw	ra,44(sp)
  402df8:	8fbe0028 	lw	s8,40(sp)
  402dfc:	27bd0030 	addiu	sp,sp,48
  402e00:	03e00008 	jr	ra
  402e04:	00000000 	nop
	...

00402e10 <print_output>:
print_output():
/home/git/21373271/21373271/user/lib/fprintf.c:9
  402e10:	27bdffe0 	addiu	sp,sp,-32
  402e14:	afbf001c 	sw	ra,28(sp)
  402e18:	afbe0018 	sw	s8,24(sp)
  402e1c:	03a0f025 	move	s8,sp
  402e20:	afc40020 	sw	a0,32(s8)
  402e24:	afc50024 	sw	a1,36(s8)
  402e28:	afc60028 	sw	a2,40(s8)
/home/git/21373271/21373271/user/lib/fprintf.c:10
  402e2c:	8fc20020 	lw	v0,32(s8)
  402e30:	00000000 	nop
  402e34:	afc20010 	sw	v0,16(s8)
/home/git/21373271/21373271/user/lib/fprintf.c:11
  402e38:	8fc20010 	lw	v0,16(s8)
  402e3c:	00000000 	nop
  402e40:	8c420004 	lw	v0,4(v0)
  402e44:	00000000 	nop
  402e48:	0440001f 	bltz	v0,402ec8 <print_output+0xb8>
  402e4c:	00000000 	nop
/home/git/21373271/21373271/user/lib/fprintf.c:14
  402e50:	8fc20010 	lw	v0,16(s8)
  402e54:	00000000 	nop
  402e58:	8c420000 	lw	v0,0(v0)
  402e5c:	8fc60028 	lw	a2,40(s8)
  402e60:	8fc50024 	lw	a1,36(s8)
  402e64:	00402025 	move	a0,v0
  402e68:	0c100725 	jal	401c94 <write>
  402e6c:	00000000 	nop
  402e70:	afc20014 	sw	v0,20(s8)
/home/git/21373271/21373271/user/lib/fprintf.c:15
  402e74:	8fc20014 	lw	v0,20(s8)
  402e78:	00000000 	nop
  402e7c:	04410007 	bgez	v0,402e9c <print_output+0x8c>
  402e80:	00000000 	nop
/home/git/21373271/21373271/user/lib/fprintf.c:16
  402e84:	8fc20010 	lw	v0,16(s8)
  402e88:	8fc30014 	lw	v1,20(s8)
  402e8c:	00000000 	nop
  402e90:	ac430004 	sw	v1,4(v0)
  402e94:	1000000d 	b	402ecc <print_output+0xbc>
  402e98:	00000000 	nop
/home/git/21373271/21373271/user/lib/fprintf.c:18
  402e9c:	8fc20010 	lw	v0,16(s8)
  402ea0:	00000000 	nop
  402ea4:	8c430004 	lw	v1,4(v0)
  402ea8:	8fc20014 	lw	v0,20(s8)
  402eac:	00000000 	nop
  402eb0:	00621821 	addu	v1,v1,v0
  402eb4:	8fc20010 	lw	v0,16(s8)
  402eb8:	00000000 	nop
  402ebc:	ac430004 	sw	v1,4(v0)
  402ec0:	10000002 	b	402ecc <print_output+0xbc>
  402ec4:	00000000 	nop
/home/git/21373271/21373271/user/lib/fprintf.c:12
  402ec8:	00000000 	nop
/home/git/21373271/21373271/user/lib/fprintf.c:20
  402ecc:	03c0e825 	move	sp,s8
  402ed0:	8fbf001c 	lw	ra,28(sp)
  402ed4:	8fbe0018 	lw	s8,24(sp)
  402ed8:	27bd0020 	addiu	sp,sp,32
  402edc:	03e00008 	jr	ra
  402ee0:	00000000 	nop

00402ee4 <vfprintf>:
vfprintf():
/home/git/21373271/21373271/user/lib/fprintf.c:22
  402ee4:	27bdffe0 	addiu	sp,sp,-32
  402ee8:	afbf001c 	sw	ra,28(sp)
  402eec:	afbe0018 	sw	s8,24(sp)
  402ef0:	03a0f025 	move	s8,sp
  402ef4:	afc40020 	sw	a0,32(s8)
  402ef8:	afc50024 	sw	a1,36(s8)
  402efc:	afc60028 	sw	a2,40(s8)
/home/git/21373271/21373271/user/lib/fprintf.c:24
  402f00:	8fc20020 	lw	v0,32(s8)
  402f04:	00000000 	nop
  402f08:	afc20010 	sw	v0,16(s8)
/home/git/21373271/21373271/user/lib/fprintf.c:25
  402f0c:	afc00014 	sw	zero,20(s8)
/home/git/21373271/21373271/user/lib/fprintf.c:26
  402f10:	8fc70028 	lw	a3,40(s8)
  402f14:	8fc60024 	lw	a2,36(s8)
  402f18:	27c20010 	addiu	v0,s8,16
  402f1c:	00402825 	move	a1,v0
  402f20:	3c020040 	lui	v0,0x40
  402f24:	24442e10 	addiu	a0,v0,11792
  402f28:	0c101944 	jal	406510 <vprintfmt>
  402f2c:	00000000 	nop
/home/git/21373271/21373271/user/lib/fprintf.c:27
  402f30:	8fc20014 	lw	v0,20(s8)
/home/git/21373271/21373271/user/lib/fprintf.c:28
  402f34:	03c0e825 	move	sp,s8
  402f38:	8fbf001c 	lw	ra,28(sp)
  402f3c:	8fbe0018 	lw	s8,24(sp)
  402f40:	27bd0020 	addiu	sp,sp,32
  402f44:	03e00008 	jr	ra
  402f48:	00000000 	nop

00402f4c <fprintf>:
fprintf():
/home/git/21373271/21373271/user/lib/fprintf.c:30
  402f4c:	27bdffe0 	addiu	sp,sp,-32
  402f50:	afbf001c 	sw	ra,28(sp)
  402f54:	afbe0018 	sw	s8,24(sp)
  402f58:	03a0f025 	move	s8,sp
  402f5c:	afc40020 	sw	a0,32(s8)
  402f60:	afc50024 	sw	a1,36(s8)
  402f64:	afc60028 	sw	a2,40(s8)
  402f68:	afc7002c 	sw	a3,44(s8)
/home/git/21373271/21373271/user/lib/fprintf.c:32
  402f6c:	27c20028 	addiu	v0,s8,40
  402f70:	afc20014 	sw	v0,20(s8)
/home/git/21373271/21373271/user/lib/fprintf.c:33
  402f74:	8fc20014 	lw	v0,20(s8)
  402f78:	00000000 	nop
  402f7c:	00403025 	move	a2,v0
  402f80:	8fc50024 	lw	a1,36(s8)
  402f84:	8fc40020 	lw	a0,32(s8)
  402f88:	0c100bb9 	jal	402ee4 <vfprintf>
  402f8c:	00000000 	nop
  402f90:	afc20010 	sw	v0,16(s8)
/home/git/21373271/21373271/user/lib/fprintf.c:35
  402f94:	8fc20010 	lw	v0,16(s8)
/home/git/21373271/21373271/user/lib/fprintf.c:36
  402f98:	03c0e825 	move	sp,s8
  402f9c:	8fbf001c 	lw	ra,28(sp)
  402fa0:	8fbe0018 	lw	s8,24(sp)
  402fa4:	27bd0020 	addiu	sp,sp,32
  402fa8:	03e00008 	jr	ra
  402fac:	00000000 	nop

00402fb0 <printf>:
printf():
/home/git/21373271/21373271/user/lib/fprintf.c:38
  402fb0:	27bdffe0 	addiu	sp,sp,-32
  402fb4:	afbf001c 	sw	ra,28(sp)
  402fb8:	afbe0018 	sw	s8,24(sp)
  402fbc:	03a0f025 	move	s8,sp
  402fc0:	afc40020 	sw	a0,32(s8)
  402fc4:	afc50024 	sw	a1,36(s8)
  402fc8:	afc60028 	sw	a2,40(s8)
  402fcc:	afc7002c 	sw	a3,44(s8)
/home/git/21373271/21373271/user/lib/fprintf.c:40
  402fd0:	27c20024 	addiu	v0,s8,36
  402fd4:	afc20014 	sw	v0,20(s8)
/home/git/21373271/21373271/user/lib/fprintf.c:41
  402fd8:	8fc20014 	lw	v0,20(s8)
  402fdc:	00000000 	nop
  402fe0:	00403025 	move	a2,v0
  402fe4:	8fc50020 	lw	a1,32(s8)
  402fe8:	24040001 	li	a0,1
  402fec:	0c100bb9 	jal	402ee4 <vfprintf>
  402ff0:	00000000 	nop
  402ff4:	afc20010 	sw	v0,16(s8)
/home/git/21373271/21373271/user/lib/fprintf.c:43
  402ff8:	8fc20010 	lw	v0,16(s8)
/home/git/21373271/21373271/user/lib/fprintf.c:44
  402ffc:	03c0e825 	move	sp,s8
  403000:	8fbf001c 	lw	ra,28(sp)
  403004:	8fbe0018 	lw	s8,24(sp)
  403008:	27bd0020 	addiu	sp,sp,32
  40300c:	03e00008 	jr	ra
  403010:	00000000 	nop
	...

00403020 <fsipc>:
fsipc():
/home/git/21373271/21373271/user/lib/fsipc.c:22
  403020:	27bdffe0 	addiu	sp,sp,-32
  403024:	afbf001c 	sw	ra,28(sp)
  403028:	afbe0018 	sw	s8,24(sp)
  40302c:	03a0f025 	move	s8,sp
  403030:	afc40020 	sw	a0,32(s8)
  403034:	afc50024 	sw	a1,36(s8)
  403038:	afc60028 	sw	a2,40(s8)
  40303c:	afc7002c 	sw	a3,44(s8)
/home/git/21373271/21373271/user/lib/fsipc.c:25
  403040:	3c027f40 	lui	v0,0x7f40
  403044:	344200dc 	ori	v0,v0,0xdc
  403048:	8c4200a0 	lw	v0,160(v0)
  40304c:	24070400 	li	a3,1024
  403050:	8fc60024 	lw	a2,36(s8)
  403054:	8fc50020 	lw	a1,32(s8)
  403058:	00402025 	move	a0,v0
  40305c:	0c100d14 	jal	403450 <ipc_send>
  403060:	00000000 	nop
/home/git/21373271/21373271/user/lib/fsipc.c:26
  403064:	8fc6002c 	lw	a2,44(s8)
  403068:	8fc50028 	lw	a1,40(s8)
  40306c:	27c20010 	addiu	v0,s8,16
  403070:	00402025 	move	a0,v0
  403074:	0c100d3f 	jal	4034fc <ipc_recv>
  403078:	00000000 	nop
/home/git/21373271/21373271/user/lib/fsipc.c:27
  40307c:	03c0e825 	move	sp,s8
  403080:	8fbf001c 	lw	ra,28(sp)
  403084:	8fbe0018 	lw	s8,24(sp)
  403088:	27bd0020 	addiu	sp,sp,32
  40308c:	03e00008 	jr	ra
  403090:	00000000 	nop

00403094 <fsipc_open>:
fsipc_open():
/home/git/21373271/21373271/user/lib/fsipc.c:36
  403094:	27bdffe0 	addiu	sp,sp,-32
  403098:	afbf001c 	sw	ra,28(sp)
  40309c:	afbe0018 	sw	s8,24(sp)
  4030a0:	03a0f025 	move	s8,sp
  4030a4:	afc40020 	sw	a0,32(s8)
  4030a8:	afc50024 	sw	a1,36(s8)
  4030ac:	afc60028 	sw	a2,40(s8)
/home/git/21373271/21373271/user/lib/fsipc.c:40
  4030b0:	3c020041 	lui	v0,0x41
  4030b4:	2442a000 	addiu	v0,v0,-24576
  4030b8:	afc20010 	sw	v0,16(s8)
/home/git/21373271/21373271/user/lib/fsipc.c:43
  4030bc:	8fc40020 	lw	a0,32(s8)
  4030c0:	0c101db4 	jal	4076d0 <strlen>
  4030c4:	00000000 	nop
  4030c8:	2c420400 	sltiu	v0,v0,1024
  4030cc:	14400004 	bnez	v0,4030e0 <fsipc_open+0x4c>
  4030d0:	00000000 	nop
/home/git/21373271/21373271/user/lib/fsipc.c:44
  4030d4:	2402fff5 	li	v0,-11
  4030d8:	10000011 	b	403120 <fsipc_open+0x8c>
  4030dc:	00000000 	nop
/home/git/21373271/21373271/user/lib/fsipc.c:47
  4030e0:	8fc20010 	lw	v0,16(s8)
  4030e4:	8fc50020 	lw	a1,32(s8)
  4030e8:	00402025 	move	a0,v0
  4030ec:	0c101dcf 	jal	40773c <strcpy>
  4030f0:	00000000 	nop
/home/git/21373271/21373271/user/lib/fsipc.c:48
  4030f4:	8fc20010 	lw	v0,16(s8)
  4030f8:	8fc30024 	lw	v1,36(s8)
  4030fc:	00000000 	nop
  403100:	ac430400 	sw	v1,1024(v0)
/home/git/21373271/21373271/user/lib/fsipc.c:49
  403104:	27c20014 	addiu	v0,s8,20
  403108:	00403825 	move	a3,v0
  40310c:	8fc60028 	lw	a2,40(s8)
  403110:	8fc50010 	lw	a1,16(s8)
  403114:	24040001 	li	a0,1
  403118:	0c100c08 	jal	403020 <fsipc>
  40311c:	00000000 	nop
/home/git/21373271/21373271/user/lib/fsipc.c:50 (discriminator 1)
  403120:	03c0e825 	move	sp,s8
  403124:	8fbf001c 	lw	ra,28(sp)
  403128:	8fbe0018 	lw	s8,24(sp)
  40312c:	27bd0020 	addiu	sp,sp,32
  403130:	03e00008 	jr	ra
  403134:	00000000 	nop

00403138 <fsipc_map>:
fsipc_map():
/home/git/21373271/21373271/user/lib/fsipc.c:60
  403138:	27bdffd0 	addiu	sp,sp,-48
  40313c:	afbf002c 	sw	ra,44(sp)
  403140:	afbe0028 	sw	s8,40(sp)
  403144:	03a0f025 	move	s8,sp
  403148:	afc40030 	sw	a0,48(s8)
  40314c:	afc50034 	sw	a1,52(s8)
  403150:	afc60038 	sw	a2,56(s8)
/home/git/21373271/21373271/user/lib/fsipc.c:65
  403154:	3c020041 	lui	v0,0x41
  403158:	2442a000 	addiu	v0,v0,-24576
  40315c:	afc20018 	sw	v0,24(s8)
/home/git/21373271/21373271/user/lib/fsipc.c:66
  403160:	8fc30030 	lw	v1,48(s8)
  403164:	8fc20018 	lw	v0,24(s8)
  403168:	00000000 	nop
  40316c:	ac430000 	sw	v1,0(v0)
/home/git/21373271/21373271/user/lib/fsipc.c:67
  403170:	8fc20018 	lw	v0,24(s8)
  403174:	8fc30034 	lw	v1,52(s8)
  403178:	00000000 	nop
  40317c:	ac430004 	sw	v1,4(v0)
/home/git/21373271/21373271/user/lib/fsipc.c:69
  403180:	27c20020 	addiu	v0,s8,32
  403184:	00403825 	move	a3,v0
  403188:	8fc60038 	lw	a2,56(s8)
  40318c:	8fc50018 	lw	a1,24(s8)
  403190:	24040002 	li	a0,2
  403194:	0c100c08 	jal	403020 <fsipc>
  403198:	00000000 	nop
  40319c:	afc2001c 	sw	v0,28(s8)
  4031a0:	8fc2001c 	lw	v0,28(s8)
  4031a4:	00000000 	nop
  4031a8:	04410004 	bgez	v0,4031bc <fsipc_map+0x84>
  4031ac:	00000000 	nop
/home/git/21373271/21373271/user/lib/fsipc.c:70
  4031b0:	8fc2001c 	lw	v0,28(s8)
  4031b4:	10000014 	b	403208 <fsipc_map+0xd0>
  4031b8:	00000000 	nop
/home/git/21373271/21373271/user/lib/fsipc.c:73
  4031bc:	8fc30020 	lw	v1,32(s8)
  4031c0:	2402fbfb 	li	v0,-1029
  4031c4:	00621824 	and	v1,v1,v0
  4031c8:	24020200 	li	v0,512
  4031cc:	1062000d 	beq	v1,v0,403204 <fsipc_map+0xcc>
  4031d0:	00000000 	nop
/home/git/21373271/21373271/user/lib/fsipc.c:74
  4031d4:	8fc30020 	lw	v1,32(s8)
  4031d8:	8fc20038 	lw	v0,56(s8)
  4031dc:	00000000 	nop
  4031e0:	afa20010 	sw	v0,16(sp)
  4031e4:	00603825 	move	a3,v1
  4031e8:	3c020040 	lui	v0,0x40
  4031ec:	24467d40 	addiu	a2,v0,32064
  4031f0:	2405004a 	li	a1,74
  4031f4:	3c020040 	lui	v0,0x40
  4031f8:	24447d78 	addiu	a0,v0,32120
  4031fc:	0c100487 	jal	40121c <_user_panic>
  403200:	00000000 	nop
/home/git/21373271/21373271/user/lib/fsipc.c:77
  403204:	00001025 	move	v0,zero
/home/git/21373271/21373271/user/lib/fsipc.c:78 (discriminator 1)
  403208:	03c0e825 	move	sp,s8
  40320c:	8fbf002c 	lw	ra,44(sp)
  403210:	8fbe0028 	lw	s8,40(sp)
  403214:	27bd0030 	addiu	sp,sp,48
  403218:	03e00008 	jr	ra
  40321c:	00000000 	nop

00403220 <fsipc_set_size>:
fsipc_set_size():
/home/git/21373271/21373271/user/lib/fsipc.c:82
  403220:	27bdffe0 	addiu	sp,sp,-32
  403224:	afbf001c 	sw	ra,28(sp)
  403228:	afbe0018 	sw	s8,24(sp)
  40322c:	03a0f025 	move	s8,sp
  403230:	afc40020 	sw	a0,32(s8)
  403234:	afc50024 	sw	a1,36(s8)
/home/git/21373271/21373271/user/lib/fsipc.c:85
  403238:	3c020041 	lui	v0,0x41
  40323c:	2442a000 	addiu	v0,v0,-24576
  403240:	afc20010 	sw	v0,16(s8)
/home/git/21373271/21373271/user/lib/fsipc.c:86
  403244:	8fc30020 	lw	v1,32(s8)
  403248:	8fc20010 	lw	v0,16(s8)
  40324c:	00000000 	nop
  403250:	ac430000 	sw	v1,0(v0)
/home/git/21373271/21373271/user/lib/fsipc.c:87
  403254:	8fc20010 	lw	v0,16(s8)
  403258:	8fc30024 	lw	v1,36(s8)
  40325c:	00000000 	nop
  403260:	ac430004 	sw	v1,4(v0)
/home/git/21373271/21373271/user/lib/fsipc.c:88
  403264:	00003825 	move	a3,zero
  403268:	00003025 	move	a2,zero
  40326c:	8fc50010 	lw	a1,16(s8)
  403270:	24040003 	li	a0,3
  403274:	0c100c08 	jal	403020 <fsipc>
  403278:	00000000 	nop
/home/git/21373271/21373271/user/lib/fsipc.c:89
  40327c:	03c0e825 	move	sp,s8
  403280:	8fbf001c 	lw	ra,28(sp)
  403284:	8fbe0018 	lw	s8,24(sp)
  403288:	27bd0020 	addiu	sp,sp,32
  40328c:	03e00008 	jr	ra
  403290:	00000000 	nop

00403294 <fsipc_close>:
fsipc_close():
/home/git/21373271/21373271/user/lib/fsipc.c:93
  403294:	27bdffe0 	addiu	sp,sp,-32
  403298:	afbf001c 	sw	ra,28(sp)
  40329c:	afbe0018 	sw	s8,24(sp)
  4032a0:	03a0f025 	move	s8,sp
  4032a4:	afc40020 	sw	a0,32(s8)
/home/git/21373271/21373271/user/lib/fsipc.c:96
  4032a8:	3c020041 	lui	v0,0x41
  4032ac:	2442a000 	addiu	v0,v0,-24576
  4032b0:	afc20010 	sw	v0,16(s8)
/home/git/21373271/21373271/user/lib/fsipc.c:97
  4032b4:	8fc30020 	lw	v1,32(s8)
  4032b8:	8fc20010 	lw	v0,16(s8)
  4032bc:	00000000 	nop
  4032c0:	ac430000 	sw	v1,0(v0)
/home/git/21373271/21373271/user/lib/fsipc.c:98
  4032c4:	00003825 	move	a3,zero
  4032c8:	00003025 	move	a2,zero
  4032cc:	8fc50010 	lw	a1,16(s8)
  4032d0:	24040004 	li	a0,4
  4032d4:	0c100c08 	jal	403020 <fsipc>
  4032d8:	00000000 	nop
/home/git/21373271/21373271/user/lib/fsipc.c:99
  4032dc:	03c0e825 	move	sp,s8
  4032e0:	8fbf001c 	lw	ra,28(sp)
  4032e4:	8fbe0018 	lw	s8,24(sp)
  4032e8:	27bd0020 	addiu	sp,sp,32
  4032ec:	03e00008 	jr	ra
  4032f0:	00000000 	nop

004032f4 <fsipc_dirty>:
fsipc_dirty():
/home/git/21373271/21373271/user/lib/fsipc.c:103
  4032f4:	27bdffe0 	addiu	sp,sp,-32
  4032f8:	afbf001c 	sw	ra,28(sp)
  4032fc:	afbe0018 	sw	s8,24(sp)
  403300:	03a0f025 	move	s8,sp
  403304:	afc40020 	sw	a0,32(s8)
  403308:	afc50024 	sw	a1,36(s8)
/home/git/21373271/21373271/user/lib/fsipc.c:106
  40330c:	3c020041 	lui	v0,0x41
  403310:	2442a000 	addiu	v0,v0,-24576
  403314:	afc20010 	sw	v0,16(s8)
/home/git/21373271/21373271/user/lib/fsipc.c:107
  403318:	8fc30020 	lw	v1,32(s8)
  40331c:	8fc20010 	lw	v0,16(s8)
  403320:	00000000 	nop
  403324:	ac430000 	sw	v1,0(v0)
/home/git/21373271/21373271/user/lib/fsipc.c:108
  403328:	8fc20010 	lw	v0,16(s8)
  40332c:	8fc30024 	lw	v1,36(s8)
  403330:	00000000 	nop
  403334:	ac430004 	sw	v1,4(v0)
/home/git/21373271/21373271/user/lib/fsipc.c:109
  403338:	00003825 	move	a3,zero
  40333c:	00003025 	move	a2,zero
  403340:	8fc50010 	lw	a1,16(s8)
  403344:	24040005 	li	a0,5
  403348:	0c100c08 	jal	403020 <fsipc>
  40334c:	00000000 	nop
/home/git/21373271/21373271/user/lib/fsipc.c:110
  403350:	03c0e825 	move	sp,s8
  403354:	8fbf001c 	lw	ra,28(sp)
  403358:	8fbe0018 	lw	s8,24(sp)
  40335c:	27bd0020 	addiu	sp,sp,32
  403360:	03e00008 	jr	ra
  403364:	00000000 	nop

00403368 <fsipc_remove>:
fsipc_remove():
/home/git/21373271/21373271/user/lib/fsipc.c:114
  403368:	27bdffe0 	addiu	sp,sp,-32
  40336c:	afbf001c 	sw	ra,28(sp)
  403370:	afbe0018 	sw	s8,24(sp)
  403374:	03a0f025 	move	s8,sp
  403378:	afc40020 	sw	a0,32(s8)
/home/git/21373271/21373271/user/lib/fsipc.c:118
  40337c:	8fc40020 	lw	a0,32(s8)
  403380:	0c101db4 	jal	4076d0 <strlen>
  403384:	00000000 	nop
  403388:	10400007 	beqz	v0,4033a8 <fsipc_remove+0x40>
  40338c:	00000000 	nop
/home/git/21373271/21373271/user/lib/fsipc.c:118 (discriminator 1)
  403390:	8fc40020 	lw	a0,32(s8)
  403394:	0c101db4 	jal	4076d0 <strlen>
  403398:	00000000 	nop
  40339c:	2c420401 	sltiu	v0,v0,1025
  4033a0:	14400004 	bnez	v0,4033b4 <fsipc_remove+0x4c>
  4033a4:	00000000 	nop
/home/git/21373271/21373271/user/lib/fsipc.c:119
  4033a8:	2402fff5 	li	v0,-11
  4033ac:	1000000f 	b	4033ec <fsipc_remove+0x84>
  4033b0:	00000000 	nop
/home/git/21373271/21373271/user/lib/fsipc.c:122
  4033b4:	3c020041 	lui	v0,0x41
  4033b8:	2442a000 	addiu	v0,v0,-24576
  4033bc:	afc20010 	sw	v0,16(s8)
/home/git/21373271/21373271/user/lib/fsipc.c:126
  4033c0:	8fc20010 	lw	v0,16(s8)
  4033c4:	8fc50020 	lw	a1,32(s8)
  4033c8:	00402025 	move	a0,v0
  4033cc:	0c101dcf 	jal	40773c <strcpy>
  4033d0:	00000000 	nop
/home/git/21373271/21373271/user/lib/fsipc.c:129
  4033d4:	00003825 	move	a3,zero
  4033d8:	00003025 	move	a2,zero
  4033dc:	8fc50010 	lw	a1,16(s8)
  4033e0:	24040006 	li	a0,6
  4033e4:	0c100c08 	jal	403020 <fsipc>
  4033e8:	00000000 	nop
/home/git/21373271/21373271/user/lib/fsipc.c:130
  4033ec:	03c0e825 	move	sp,s8
  4033f0:	8fbf001c 	lw	ra,28(sp)
  4033f4:	8fbe0018 	lw	s8,24(sp)
  4033f8:	27bd0020 	addiu	sp,sp,32
  4033fc:	03e00008 	jr	ra
  403400:	00000000 	nop

00403404 <fsipc_sync>:
fsipc_sync():
/home/git/21373271/21373271/user/lib/fsipc.c:135
  403404:	27bdffe8 	addiu	sp,sp,-24
  403408:	afbf0014 	sw	ra,20(sp)
  40340c:	afbe0010 	sw	s8,16(sp)
  403410:	03a0f025 	move	s8,sp
/home/git/21373271/21373271/user/lib/fsipc.c:136
  403414:	00003825 	move	a3,zero
  403418:	00003025 	move	a2,zero
  40341c:	3c020041 	lui	v0,0x41
  403420:	2445a000 	addiu	a1,v0,-24576
  403424:	24040007 	li	a0,7
  403428:	0c100c08 	jal	403020 <fsipc>
  40342c:	00000000 	nop
/home/git/21373271/21373271/user/lib/fsipc.c:137
  403430:	03c0e825 	move	sp,s8
  403434:	8fbf0014 	lw	ra,20(sp)
  403438:	8fbe0010 	lw	s8,16(sp)
  40343c:	27bd0018 	addiu	sp,sp,24
  403440:	03e00008 	jr	ra
  403444:	00000000 	nop
	...

00403450 <ipc_send>:
ipc_send():
/home/git/21373271/21373271/user/lib/ipc.c:12




void ipc_broadcast(u_int val, void * srcva, u_int perm)
{
  403450:	27bdffe0 	addiu	sp,sp,-32
  403454:	afbf001c 	sw	ra,28(sp)
  403458:	afbe0018 	sw	s8,24(sp)
  40345c:	03a0f025 	move	s8,sp
  403460:	afc40020 	sw	a0,32(s8)
  403464:	afc50024 	sw	a1,36(s8)
  403468:	afc60028 	sw	a2,40(s8)
  40346c:	afc7002c 	sw	a3,44(s8)
/home/git/21373271/21373271/user/lib/ipc.c:14
	int r;
	while ((r = syscall_ipc_try_send_father(val, srcva, perm)) == -E_IPC_NOT_RECV) {
  403470:	10000003 	b	403480 <ipc_send+0x30>
  403474:	00000000 	nop
/home/git/21373271/21373271/user/lib/ipc.c:15
		syscall_yield();
  403478:	0c100e0a 	jal	403828 <syscall_yield>
  40347c:	00000000 	nop
/home/git/21373271/21373271/user/lib/ipc.c:14
	while ((r = syscall_ipc_try_send_father(val, srcva, perm)) == -E_IPC_NOT_RECV) {
  403480:	8fc7002c 	lw	a3,44(s8)
  403484:	8fc60028 	lw	a2,40(s8)
  403488:	8fc50024 	lw	a1,36(s8)
  40348c:	8fc40020 	lw	a0,32(s8)
  403490:	0c100eaa 	jal	403aa8 <syscall_ipc_try_send>
  403494:	00000000 	nop
  403498:	afc20010 	sw	v0,16(s8)
  40349c:	8fc30010 	lw	v1,16(s8)
  4034a0:	2402fff9 	li	v0,-7
  4034a4:	1062fff4 	beq	v1,v0,403478 <ipc_send+0x28>
  4034a8:	00000000 	nop
/home/git/21373271/21373271/user/lib/ipc.c:17
	}
	user_assert(r == 0);
  4034ac:	8fc20010 	lw	v0,16(s8)
  4034b0:	00000000 	nop
  4034b4:	1040000a 	beqz	v0,4034e0 <ipc_send+0x90>
  4034b8:	00000000 	nop
/home/git/21373271/21373271/user/lib/ipc.c:17 (discriminator 1)
  4034bc:	3c020040 	lui	v0,0x40
  4034c0:	24477d90 	addiu	a3,v0,32144
  4034c4:	3c020040 	lui	v0,0x40
  4034c8:	24467d98 	addiu	a2,v0,32152
  4034cc:	24050011 	li	a1,17
  4034d0:	3c020040 	lui	v0,0x40
  4034d4:	24447db0 	addiu	a0,v0,32176
  4034d8:	0c100487 	jal	40121c <_user_panic>
  4034dc:	00000000 	nop
/home/git/21373271/21373271/user/lib/ipc.c:18
}
  4034e0:	00000000 	nop
  4034e4:	03c0e825 	move	sp,s8
  4034e8:	8fbf001c 	lw	ra,28(sp)
  4034ec:	8fbe0018 	lw	s8,24(sp)
  4034f0:	27bd0020 	addiu	sp,sp,32
  4034f4:	03e00008 	jr	ra
  4034f8:	00000000 	nop

004034fc <ipc_recv>:
ipc_recv():
/home/git/21373271/21373271/user/lib/ipc.c:24

// Send val to whom.  This function keeps trying until
// it succeeds.  It should panic() on any error other than
// -E_IPC_NOT_RECV.
//
// Hint: use syscall_yield() to be CPU-friendly.
  4034fc:	27bdffe0 	addiu	sp,sp,-32
  403500:	afbf001c 	sw	ra,28(sp)
  403504:	afbe0018 	sw	s8,24(sp)
  403508:	03a0f025 	move	s8,sp
  40350c:	afc40020 	sw	a0,32(s8)
  403510:	afc50024 	sw	a1,36(s8)
  403514:	afc60028 	sw	a2,40(s8)
/home/git/21373271/21373271/user/lib/ipc.c:25
void ipc_send(u_int whom, u_int val, const void *srcva, u_int perm) {
  403518:	8fc40024 	lw	a0,36(s8)
  40351c:	0c100ec1 	jal	403b04 <syscall_ipc_recv>
  403520:	00000000 	nop
  403524:	afc20010 	sw	v0,16(s8)
/home/git/21373271/21373271/user/lib/ipc.c:26
	int r;
  403528:	8fc20010 	lw	v0,16(s8)
  40352c:	00000000 	nop
  403530:	10400009 	beqz	v0,403558 <ipc_recv+0x5c>
  403534:	00000000 	nop
/home/git/21373271/21373271/user/lib/ipc.c:27
	while ((r = syscall_ipc_try_send(whom, val, srcva, perm)) == -E_IPC_NOT_RECV) {
  403538:	8fc70010 	lw	a3,16(s8)
  40353c:	3c020040 	lui	v0,0x40
  403540:	24467dbc 	addiu	a2,v0,32188
  403544:	2405001b 	li	a1,27
  403548:	3c020040 	lui	v0,0x40
  40354c:	24447db0 	addiu	a0,v0,32176
  403550:	0c100487 	jal	40121c <_user_panic>
  403554:	00000000 	nop
/home/git/21373271/21373271/user/lib/ipc.c:30
		syscall_yield();
	}
	user_assert(r == 0);
  403558:	8fc20020 	lw	v0,32(s8)
  40355c:	00000000 	nop
  403560:	10400008 	beqz	v0,403584 <ipc_recv+0x88>
  403564:	00000000 	nop
/home/git/21373271/21373271/user/lib/ipc.c:31
}
  403568:	3c020041 	lui	v0,0x41
  40356c:	8c42b000 	lw	v0,-20480(v0)
  403570:	00000000 	nop
  403574:	8c4300c4 	lw	v1,196(v0)
  403578:	8fc20020 	lw	v0,32(s8)
  40357c:	00000000 	nop
  403580:	ac430000 	sw	v1,0(v0)
/home/git/21373271/21373271/user/lib/ipc.c:34

// Receive a value.  Return the value and store the caller's envid
// in *whom.
  403584:	8fc20028 	lw	v0,40(s8)
  403588:	00000000 	nop
  40358c:	10400008 	beqz	v0,4035b0 <ipc_recv+0xb4>
  403590:	00000000 	nop
/home/git/21373271/21373271/user/lib/ipc.c:35
//
  403594:	3c020041 	lui	v0,0x41
  403598:	8c42b000 	lw	v0,-20480(v0)
  40359c:	00000000 	nop
  4035a0:	8c4300d0 	lw	v1,208(v0)
  4035a4:	8fc20028 	lw	v0,40(s8)
  4035a8:	00000000 	nop
  4035ac:	ac430000 	sw	v1,0(v0)
/home/git/21373271/21373271/user/lib/ipc.c:38
// Hint: use env to discover the value and who sent it.
u_int ipc_recv(u_int *whom, void *dstva, u_int *perm) {
	int r = syscall_ipc_recv(dstva);
  4035b0:	3c020041 	lui	v0,0x41
  4035b4:	8c42b000 	lw	v0,-20480(v0)
  4035b8:	00000000 	nop
  4035bc:	8c4200c0 	lw	v0,192(v0)
/home/git/21373271/21373271/user/lib/ipc.c:39
	if (r != 0) {
  4035c0:	03c0e825 	move	sp,s8
  4035c4:	8fbf001c 	lw	ra,28(sp)
  4035c8:	8fbe0018 	lw	s8,24(sp)
  4035cc:	27bd0020 	addiu	sp,sp,32
  4035d0:	03e00008 	jr	ra
  4035d4:	00000000 	nop
	...

004035e0 <exit>:
exit():
/home/git/21373271/21373271/user/lib/libos.c:5
#include <env.h>
#include <lib.h>
#include <mmu.h>

void exit(void) {
  4035e0:	27bdffe8 	addiu	sp,sp,-24
  4035e4:	afbf0014 	sw	ra,20(sp)
  4035e8:	afbe0010 	sw	s8,16(sp)
  4035ec:	03a0f025 	move	s8,sp
/home/git/21373271/21373271/user/lib/libos.c:8
	// After fs is ready (lab5), all our open files should be closed before dying.
#if !defined(LAB) || LAB >= 5
	close_all();
  4035f0:	0c1005e6 	jal	401798 <close_all>
  4035f4:	00000000 	nop
/home/git/21373271/21373271/user/lib/libos.c:11
#endif

	syscall_env_destroy(0);
  4035f8:	00002025 	move	a0,zero
  4035fc:	0c100e18 	jal	403860 <syscall_env_destroy>
  403600:	00000000 	nop
/home/git/21373271/21373271/user/lib/libos.c:12
	user_panic("unreachable code");
  403604:	3c020040 	lui	v0,0x40
  403608:	24467de0 	addiu	a2,v0,32224
  40360c:	2405000c 	li	a1,12
  403610:	3c020040 	lui	v0,0x40
  403614:	24447df4 	addiu	a0,v0,32244
  403618:	0c100487 	jal	40121c <_user_panic>
  40361c:	00000000 	nop

00403620 <libmain>:
libmain():
/home/git/21373271/21373271/user/lib/libos.c:18
}

volatile struct Env *env;
extern int main(int, char **);

void libmain(int argc, char **argv) {
  403620:	27bdffe8 	addiu	sp,sp,-24
  403624:	afbf0014 	sw	ra,20(sp)
  403628:	afbe0010 	sw	s8,16(sp)
  40362c:	03a0f025 	move	s8,sp
  403630:	afc40018 	sw	a0,24(s8)
  403634:	afc5001c 	sw	a1,28(s8)
/home/git/21373271/21373271/user/lib/libos.c:20
	// set env to point at our env structure in envs[].
	env = &envs[ENVX(syscall_getenvid())];
  403638:	0c100dfd 	jal	4037f4 <syscall_getenvid>
  40363c:	00000000 	nop
  403640:	304303ff 	andi	v1,v0,0x3ff
  403644:	00601025 	move	v0,v1
  403648:	000210c0 	sll	v0,v0,0x3
  40364c:	00431023 	subu	v0,v0,v1
  403650:	000210c0 	sll	v0,v0,0x3
  403654:	00431023 	subu	v0,v0,v1
  403658:	00021080 	sll	v0,v0,0x2
  40365c:	00401825 	move	v1,v0
  403660:	3c027f40 	lui	v0,0x7f40
  403664:	00621821 	addu	v1,v1,v0
  403668:	3c020041 	lui	v0,0x41
  40366c:	ac43b000 	sw	v1,-20480(v0)
/home/git/21373271/21373271/user/lib/libos.c:23

	// call user main routine
	main(argc, argv);
  403670:	8fc5001c 	lw	a1,28(s8)
  403674:	8fc40018 	lw	a0,24(s8)
  403678:	0c100228 	jal	4008a0 <main>
  40367c:	00000000 	nop
/home/git/21373271/21373271/user/lib/libos.c:26

	// exit gracefully
	exit();
  403680:	0c100d78 	jal	4035e0 <exit>
  403684:	00000000 	nop
	...

00403690 <pageref>:
pageref():
/home/git/21373271/21373271/user/lib/pageref.c:3
  403690:	27bdfff0 	addiu	sp,sp,-16
  403694:	afbe000c 	sw	s8,12(sp)
  403698:	03a0f025 	move	s8,sp
  40369c:	afc40010 	sw	a0,16(s8)
/home/git/21373271/21373271/user/lib/pageref.c:6
  4036a0:	8fc20010 	lw	v0,16(s8)
  4036a4:	00000000 	nop
  4036a8:	00021582 	srl	v0,v0,0x16
  4036ac:	00021880 	sll	v1,v0,0x2
  4036b0:	3c027fdf 	lui	v0,0x7fdf
  4036b4:	3442f000 	ori	v0,v0,0xf000
  4036b8:	00621021 	addu	v0,v1,v0
  4036bc:	8c420000 	lw	v0,0(v0)
  4036c0:	00000000 	nop
  4036c4:	30420200 	andi	v0,v0,0x200
  4036c8:	14400004 	bnez	v0,4036dc <pageref+0x4c>
  4036cc:	00000000 	nop
/home/git/21373271/21373271/user/lib/pageref.c:7
  4036d0:	00001025 	move	v0,zero
  4036d4:	1000001f 	b	403754 <pageref+0xc4>
  4036d8:	00000000 	nop
/home/git/21373271/21373271/user/lib/pageref.c:10
  4036dc:	8fc20010 	lw	v0,16(s8)
  4036e0:	00000000 	nop
  4036e4:	00021302 	srl	v0,v0,0xc
  4036e8:	00021880 	sll	v1,v0,0x2
  4036ec:	3c027fc0 	lui	v0,0x7fc0
  4036f0:	00621021 	addu	v0,v1,v0
  4036f4:	8c420000 	lw	v0,0(v0)
  4036f8:	00000000 	nop
  4036fc:	afc20000 	sw	v0,0(s8)
/home/git/21373271/21373271/user/lib/pageref.c:12
  403700:	8fc20000 	lw	v0,0(s8)
  403704:	00000000 	nop
  403708:	30420200 	andi	v0,v0,0x200
  40370c:	14400004 	bnez	v0,403720 <pageref+0x90>
  403710:	00000000 	nop
/home/git/21373271/21373271/user/lib/pageref.c:13
  403714:	00001025 	move	v0,zero
  403718:	1000000e 	b	403754 <pageref+0xc4>
  40371c:	00000000 	nop
/home/git/21373271/21373271/user/lib/pageref.c:16
  403720:	8fc20000 	lw	v0,0(s8)
  403724:	00000000 	nop
  403728:	00021b02 	srl	v1,v0,0xc
  40372c:	00601025 	move	v0,v1
  403730:	00021040 	sll	v0,v0,0x1
  403734:	00431021 	addu	v0,v0,v1
  403738:	00021080 	sll	v0,v0,0x2
  40373c:	00401825 	move	v1,v0
  403740:	3c027f80 	lui	v0,0x7f80
  403744:	00621021 	addu	v0,v1,v0
  403748:	94420008 	lhu	v0,8(v0)
  40374c:	00000000 	nop
  403750:	3042ffff 	andi	v0,v0,0xffff
/home/git/21373271/21373271/user/lib/pageref.c:17
  403754:	03c0e825 	move	sp,s8
  403758:	8fbe000c 	lw	s8,12(sp)
  40375c:	27bd0010 	addiu	sp,sp,16
  403760:	03e00008 	jr	ra
  403764:	00000000 	nop
	...

00403770 <syscall_putchar>:
syscall_putchar():
/home/git/21373271/21373271/user/lib/syscall_lib.c:7
#include <lib.h>
#include <mmu.h>
#include <syscall.h>
#include <trap.h>

void syscall_putchar(int ch) {
  403770:	27bdffe8 	addiu	sp,sp,-24
  403774:	afbf0014 	sw	ra,20(sp)
  403778:	afbe0010 	sw	s8,16(sp)
  40377c:	03a0f025 	move	s8,sp
  403780:	afc40018 	sw	a0,24(s8)
/home/git/21373271/21373271/user/lib/syscall_lib.c:8
	msyscall(SYS_putchar, ch);
  403784:	8fc50018 	lw	a1,24(s8)
  403788:	00002025 	move	a0,zero
  40378c:	0c100f04 	jal	403c10 <msyscall>
  403790:	00000000 	nop
/home/git/21373271/21373271/user/lib/syscall_lib.c:9
}
  403794:	00000000 	nop
  403798:	03c0e825 	move	sp,s8
  40379c:	8fbf0014 	lw	ra,20(sp)
  4037a0:	8fbe0010 	lw	s8,16(sp)
  4037a4:	27bd0018 	addiu	sp,sp,24
  4037a8:	03e00008 	jr	ra
  4037ac:	00000000 	nop

004037b0 <syscall_print_cons>:
syscall_print_cons():
/home/git/21373271/21373271/user/lib/syscall_lib.c:11

int syscall_print_cons(const void *str, u_int num) {
  4037b0:	27bdffe8 	addiu	sp,sp,-24
  4037b4:	afbf0014 	sw	ra,20(sp)
  4037b8:	afbe0010 	sw	s8,16(sp)
  4037bc:	03a0f025 	move	s8,sp
  4037c0:	afc40018 	sw	a0,24(s8)
  4037c4:	afc5001c 	sw	a1,28(s8)
/home/git/21373271/21373271/user/lib/syscall_lib.c:12
	return msyscall(SYS_print_cons, str, num);
  4037c8:	8fc6001c 	lw	a2,28(s8)
  4037cc:	8fc50018 	lw	a1,24(s8)
  4037d0:	24040001 	li	a0,1
  4037d4:	0c100f04 	jal	403c10 <msyscall>
  4037d8:	00000000 	nop
/home/git/21373271/21373271/user/lib/syscall_lib.c:13
}
  4037dc:	03c0e825 	move	sp,s8
  4037e0:	8fbf0014 	lw	ra,20(sp)
  4037e4:	8fbe0010 	lw	s8,16(sp)
  4037e8:	27bd0018 	addiu	sp,sp,24
  4037ec:	03e00008 	jr	ra
  4037f0:	00000000 	nop

004037f4 <syscall_getenvid>:
syscall_getenvid():
/home/git/21373271/21373271/user/lib/syscall_lib.c:15

u_int syscall_getenvid(void) {
  4037f4:	27bdffe8 	addiu	sp,sp,-24
  4037f8:	afbf0014 	sw	ra,20(sp)
  4037fc:	afbe0010 	sw	s8,16(sp)
  403800:	03a0f025 	move	s8,sp
/home/git/21373271/21373271/user/lib/syscall_lib.c:16
	return msyscall(SYS_getenvid);
  403804:	24040002 	li	a0,2
  403808:	0c100f04 	jal	403c10 <msyscall>
  40380c:	00000000 	nop
/home/git/21373271/21373271/user/lib/syscall_lib.c:17
}
  403810:	03c0e825 	move	sp,s8
  403814:	8fbf0014 	lw	ra,20(sp)
  403818:	8fbe0010 	lw	s8,16(sp)
  40381c:	27bd0018 	addiu	sp,sp,24
  403820:	03e00008 	jr	ra
  403824:	00000000 	nop

00403828 <syscall_yield>:
syscall_yield():
/home/git/21373271/21373271/user/lib/syscall_lib.c:19

void syscall_yield(void) {
  403828:	27bdffe8 	addiu	sp,sp,-24
  40382c:	afbf0014 	sw	ra,20(sp)
  403830:	afbe0010 	sw	s8,16(sp)
  403834:	03a0f025 	move	s8,sp
/home/git/21373271/21373271/user/lib/syscall_lib.c:20
	msyscall(SYS_yield);
  403838:	24040003 	li	a0,3
  40383c:	0c100f04 	jal	403c10 <msyscall>
  403840:	00000000 	nop
/home/git/21373271/21373271/user/lib/syscall_lib.c:21
}
  403844:	00000000 	nop
  403848:	03c0e825 	move	sp,s8
  40384c:	8fbf0014 	lw	ra,20(sp)
  403850:	8fbe0010 	lw	s8,16(sp)
  403854:	27bd0018 	addiu	sp,sp,24
  403858:	03e00008 	jr	ra
  40385c:	00000000 	nop

00403860 <syscall_env_destroy>:
syscall_env_destroy():
/home/git/21373271/21373271/user/lib/syscall_lib.c:23

int syscall_env_destroy(u_int envid) {
  403860:	27bdffe8 	addiu	sp,sp,-24
  403864:	afbf0014 	sw	ra,20(sp)
  403868:	afbe0010 	sw	s8,16(sp)
  40386c:	03a0f025 	move	s8,sp
  403870:	afc40018 	sw	a0,24(s8)
/home/git/21373271/21373271/user/lib/syscall_lib.c:24
	return msyscall(SYS_env_destroy, envid);
  403874:	8fc50018 	lw	a1,24(s8)
  403878:	24040004 	li	a0,4
  40387c:	0c100f04 	jal	403c10 <msyscall>
  403880:	00000000 	nop
/home/git/21373271/21373271/user/lib/syscall_lib.c:25
}
  403884:	03c0e825 	move	sp,s8
  403888:	8fbf0014 	lw	ra,20(sp)
  40388c:	8fbe0010 	lw	s8,16(sp)
  403890:	27bd0018 	addiu	sp,sp,24
  403894:	03e00008 	jr	ra
  403898:	00000000 	nop

0040389c <syscall_set_tlb_mod_entry>:
syscall_set_tlb_mod_entry():
/home/git/21373271/21373271/user/lib/syscall_lib.c:27

int syscall_set_tlb_mod_entry(u_int envid, void (*func)(struct Trapframe *)) {
  40389c:	27bdffe8 	addiu	sp,sp,-24
  4038a0:	afbf0014 	sw	ra,20(sp)
  4038a4:	afbe0010 	sw	s8,16(sp)
  4038a8:	03a0f025 	move	s8,sp
  4038ac:	afc40018 	sw	a0,24(s8)
  4038b0:	afc5001c 	sw	a1,28(s8)
/home/git/21373271/21373271/user/lib/syscall_lib.c:28
	return msyscall(SYS_set_tlb_mod_entry, envid, func);
  4038b4:	8fc6001c 	lw	a2,28(s8)
  4038b8:	8fc50018 	lw	a1,24(s8)
  4038bc:	24040005 	li	a0,5
  4038c0:	0c100f04 	jal	403c10 <msyscall>
  4038c4:	00000000 	nop
/home/git/21373271/21373271/user/lib/syscall_lib.c:29
}
  4038c8:	03c0e825 	move	sp,s8
  4038cc:	8fbf0014 	lw	ra,20(sp)
  4038d0:	8fbe0010 	lw	s8,16(sp)
  4038d4:	27bd0018 	addiu	sp,sp,24
  4038d8:	03e00008 	jr	ra
  4038dc:	00000000 	nop

004038e0 <syscall_mem_alloc>:
syscall_mem_alloc():
/home/git/21373271/21373271/user/lib/syscall_lib.c:31

int syscall_mem_alloc(u_int envid, void *va, u_int perm) {
  4038e0:	27bdffe8 	addiu	sp,sp,-24
  4038e4:	afbf0014 	sw	ra,20(sp)
  4038e8:	afbe0010 	sw	s8,16(sp)
  4038ec:	03a0f025 	move	s8,sp
  4038f0:	afc40018 	sw	a0,24(s8)
  4038f4:	afc5001c 	sw	a1,28(s8)
  4038f8:	afc60020 	sw	a2,32(s8)
/home/git/21373271/21373271/user/lib/syscall_lib.c:32
	return msyscall(SYS_mem_alloc, envid, va, perm);
  4038fc:	8fc70020 	lw	a3,32(s8)
  403900:	8fc6001c 	lw	a2,28(s8)
  403904:	8fc50018 	lw	a1,24(s8)
  403908:	24040006 	li	a0,6
  40390c:	0c100f04 	jal	403c10 <msyscall>
  403910:	00000000 	nop
/home/git/21373271/21373271/user/lib/syscall_lib.c:33
}
  403914:	03c0e825 	move	sp,s8
  403918:	8fbf0014 	lw	ra,20(sp)
  40391c:	8fbe0010 	lw	s8,16(sp)
  403920:	27bd0018 	addiu	sp,sp,24
  403924:	03e00008 	jr	ra
  403928:	00000000 	nop

0040392c <syscall_mem_map>:
syscall_mem_map():
/home/git/21373271/21373271/user/lib/syscall_lib.c:35

int syscall_mem_map(u_int srcid, void *srcva, u_int dstid, void *dstva, u_int perm) {
  40392c:	27bdffe0 	addiu	sp,sp,-32
  403930:	afbf001c 	sw	ra,28(sp)
  403934:	afbe0018 	sw	s8,24(sp)
  403938:	03a0f025 	move	s8,sp
  40393c:	afc40020 	sw	a0,32(s8)
  403940:	afc50024 	sw	a1,36(s8)
  403944:	afc60028 	sw	a2,40(s8)
  403948:	afc7002c 	sw	a3,44(s8)
/home/git/21373271/21373271/user/lib/syscall_lib.c:36
	return msyscall(SYS_mem_map, srcid, srcva, dstid, dstva, perm);
  40394c:	8fc20030 	lw	v0,48(s8)
  403950:	00000000 	nop
  403954:	afa20014 	sw	v0,20(sp)
  403958:	8fc2002c 	lw	v0,44(s8)
  40395c:	00000000 	nop
  403960:	afa20010 	sw	v0,16(sp)
  403964:	8fc70028 	lw	a3,40(s8)
  403968:	8fc60024 	lw	a2,36(s8)
  40396c:	8fc50020 	lw	a1,32(s8)
  403970:	24040007 	li	a0,7
  403974:	0c100f04 	jal	403c10 <msyscall>
  403978:	00000000 	nop
/home/git/21373271/21373271/user/lib/syscall_lib.c:37
}
  40397c:	03c0e825 	move	sp,s8
  403980:	8fbf001c 	lw	ra,28(sp)
  403984:	8fbe0018 	lw	s8,24(sp)
  403988:	27bd0020 	addiu	sp,sp,32
  40398c:	03e00008 	jr	ra
  403990:	00000000 	nop

00403994 <syscall_mem_unmap>:
syscall_mem_unmap():
/home/git/21373271/21373271/user/lib/syscall_lib.c:39

int syscall_mem_unmap(u_int envid, void *va) {
  403994:	27bdffe8 	addiu	sp,sp,-24
  403998:	afbf0014 	sw	ra,20(sp)
  40399c:	afbe0010 	sw	s8,16(sp)
  4039a0:	03a0f025 	move	s8,sp
  4039a4:	afc40018 	sw	a0,24(s8)
  4039a8:	afc5001c 	sw	a1,28(s8)
/home/git/21373271/21373271/user/lib/syscall_lib.c:40
	return msyscall(SYS_mem_unmap, envid, va);
  4039ac:	8fc6001c 	lw	a2,28(s8)
  4039b0:	8fc50018 	lw	a1,24(s8)
  4039b4:	24040008 	li	a0,8
  4039b8:	0c100f04 	jal	403c10 <msyscall>
  4039bc:	00000000 	nop
/home/git/21373271/21373271/user/lib/syscall_lib.c:41
}
  4039c0:	03c0e825 	move	sp,s8
  4039c4:	8fbf0014 	lw	ra,20(sp)
  4039c8:	8fbe0010 	lw	s8,16(sp)
  4039cc:	27bd0018 	addiu	sp,sp,24
  4039d0:	03e00008 	jr	ra
  4039d4:	00000000 	nop

004039d8 <syscall_set_env_status>:
syscall_set_env_status():
/home/git/21373271/21373271/user/lib/syscall_lib.c:43

int syscall_set_env_status(u_int envid, u_int status) {
  4039d8:	27bdffe8 	addiu	sp,sp,-24
  4039dc:	afbf0014 	sw	ra,20(sp)
  4039e0:	afbe0010 	sw	s8,16(sp)
  4039e4:	03a0f025 	move	s8,sp
  4039e8:	afc40018 	sw	a0,24(s8)
  4039ec:	afc5001c 	sw	a1,28(s8)
/home/git/21373271/21373271/user/lib/syscall_lib.c:44
	return msyscall(SYS_set_env_status, envid, status);
  4039f0:	8fc6001c 	lw	a2,28(s8)
  4039f4:	8fc50018 	lw	a1,24(s8)
  4039f8:	2404000a 	li	a0,10
  4039fc:	0c100f04 	jal	403c10 <msyscall>
  403a00:	00000000 	nop
/home/git/21373271/21373271/user/lib/syscall_lib.c:45
}
  403a04:	03c0e825 	move	sp,s8
  403a08:	8fbf0014 	lw	ra,20(sp)
  403a0c:	8fbe0010 	lw	s8,16(sp)
  403a10:	27bd0018 	addiu	sp,sp,24
  403a14:	03e00008 	jr	ra
  403a18:	00000000 	nop

00403a1c <syscall_set_trapframe>:
syscall_set_trapframe():
/home/git/21373271/21373271/user/lib/syscall_lib.c:47

int syscall_set_trapframe(u_int envid, struct Trapframe *tf) {
  403a1c:	27bdffe8 	addiu	sp,sp,-24
  403a20:	afbf0014 	sw	ra,20(sp)
  403a24:	afbe0010 	sw	s8,16(sp)
  403a28:	03a0f025 	move	s8,sp
  403a2c:	afc40018 	sw	a0,24(s8)
  403a30:	afc5001c 	sw	a1,28(s8)
/home/git/21373271/21373271/user/lib/syscall_lib.c:48
	return msyscall(SYS_set_trapframe, envid, tf);
  403a34:	8fc6001c 	lw	a2,28(s8)
  403a38:	8fc50018 	lw	a1,24(s8)
  403a3c:	2404000b 	li	a0,11
  403a40:	0c100f04 	jal	403c10 <msyscall>
  403a44:	00000000 	nop
/home/git/21373271/21373271/user/lib/syscall_lib.c:49
}
  403a48:	03c0e825 	move	sp,s8
  403a4c:	8fbf0014 	lw	ra,20(sp)
  403a50:	8fbe0010 	lw	s8,16(sp)
  403a54:	27bd0018 	addiu	sp,sp,24
  403a58:	03e00008 	jr	ra
  403a5c:	00000000 	nop

00403a60 <syscall_panic>:
syscall_panic():
/home/git/21373271/21373271/user/lib/syscall_lib.c:51

void syscall_panic(const char *msg) {
  403a60:	27bdffe0 	addiu	sp,sp,-32
  403a64:	afbf001c 	sw	ra,28(sp)
  403a68:	afbe0018 	sw	s8,24(sp)
  403a6c:	03a0f025 	move	s8,sp
  403a70:	afc40020 	sw	a0,32(s8)
/home/git/21373271/21373271/user/lib/syscall_lib.c:52
	int r = msyscall(SYS_panic, msg);
  403a74:	8fc50020 	lw	a1,32(s8)
  403a78:	2404000c 	li	a0,12
  403a7c:	0c100f04 	jal	403c10 <msyscall>
  403a80:	00000000 	nop
  403a84:	afc20010 	sw	v0,16(s8)
/home/git/21373271/21373271/user/lib/syscall_lib.c:53
	user_panic("SYS_panic returned %d", r);
  403a88:	8fc70010 	lw	a3,16(s8)
  403a8c:	3c020040 	lui	v0,0x40
  403a90:	24467e00 	addiu	a2,v0,32256
  403a94:	24050035 	li	a1,53
  403a98:	3c020040 	lui	v0,0x40
  403a9c:	24447e18 	addiu	a0,v0,32280
  403aa0:	0c100487 	jal	40121c <_user_panic>
  403aa4:	00000000 	nop

00403aa8 <syscall_ipc_try_send>:
syscall_ipc_try_send():
/home/git/21373271/21373271/user/lib/syscall_lib.c:56
}

int syscall_ipc_try_send(u_int envid, u_int value, const void *srcva, u_int perm) {
  403aa8:	27bdffe0 	addiu	sp,sp,-32
  403aac:	afbf001c 	sw	ra,28(sp)
  403ab0:	afbe0018 	sw	s8,24(sp)
  403ab4:	03a0f025 	move	s8,sp
  403ab8:	afc40020 	sw	a0,32(s8)
  403abc:	afc50024 	sw	a1,36(s8)
  403ac0:	afc60028 	sw	a2,40(s8)
  403ac4:	afc7002c 	sw	a3,44(s8)
/home/git/21373271/21373271/user/lib/syscall_lib.c:57
	return msyscall(SYS_ipc_try_send, envid, value, srcva, perm);
  403ac8:	8fc2002c 	lw	v0,44(s8)
  403acc:	00000000 	nop
  403ad0:	afa20010 	sw	v0,16(sp)
  403ad4:	8fc70028 	lw	a3,40(s8)
  403ad8:	8fc60024 	lw	a2,36(s8)
  403adc:	8fc50020 	lw	a1,32(s8)
  403ae0:	2404000d 	li	a0,13
  403ae4:	0c100f04 	jal	403c10 <msyscall>
  403ae8:	00000000 	nop
/home/git/21373271/21373271/user/lib/syscall_lib.c:58
}
  403aec:	03c0e825 	move	sp,s8
  403af0:	8fbf001c 	lw	ra,28(sp)
  403af4:	8fbe0018 	lw	s8,24(sp)
  403af8:	27bd0020 	addiu	sp,sp,32
  403afc:	03e00008 	jr	ra
  403b00:	00000000 	nop

00403b04 <syscall_ipc_recv>:
syscall_ipc_recv():
/home/git/21373271/21373271/user/lib/syscall_lib.c:60

int syscall_ipc_recv(void *dstva) {
  403b04:	27bdffe8 	addiu	sp,sp,-24
  403b08:	afbf0014 	sw	ra,20(sp)
  403b0c:	afbe0010 	sw	s8,16(sp)
  403b10:	03a0f025 	move	s8,sp
  403b14:	afc40018 	sw	a0,24(s8)
/home/git/21373271/21373271/user/lib/syscall_lib.c:61
	return msyscall(SYS_ipc_recv, dstva);
  403b18:	8fc50018 	lw	a1,24(s8)
  403b1c:	2404000e 	li	a0,14
  403b20:	0c100f04 	jal	403c10 <msyscall>
  403b24:	00000000 	nop
/home/git/21373271/21373271/user/lib/syscall_lib.c:62
}
  403b28:	03c0e825 	move	sp,s8
  403b2c:	8fbf0014 	lw	ra,20(sp)
  403b30:	8fbe0010 	lw	s8,16(sp)
  403b34:	27bd0018 	addiu	sp,sp,24
  403b38:	03e00008 	jr	ra
  403b3c:	00000000 	nop

00403b40 <syscall_cgetc>:
syscall_cgetc():
/home/git/21373271/21373271/user/lib/syscall_lib.c:64

int syscall_cgetc() {
  403b40:	27bdffe8 	addiu	sp,sp,-24
  403b44:	afbf0014 	sw	ra,20(sp)
  403b48:	afbe0010 	sw	s8,16(sp)
  403b4c:	03a0f025 	move	s8,sp
/home/git/21373271/21373271/user/lib/syscall_lib.c:65
	return msyscall(SYS_cgetc);
  403b50:	2404000f 	li	a0,15
  403b54:	0c100f04 	jal	403c10 <msyscall>
  403b58:	00000000 	nop
/home/git/21373271/21373271/user/lib/syscall_lib.c:66
}
  403b5c:	03c0e825 	move	sp,s8
  403b60:	8fbf0014 	lw	ra,20(sp)
  403b64:	8fbe0010 	lw	s8,16(sp)
  403b68:	27bd0018 	addiu	sp,sp,24
  403b6c:	03e00008 	jr	ra
  403b70:	00000000 	nop

00403b74 <syscall_write_dev>:
syscall_write_dev():
/home/git/21373271/21373271/user/lib/syscall_lib.c:68

int syscall_write_dev(void *va, u_int dev, u_int len) {
  403b74:	27bdffe8 	addiu	sp,sp,-24
  403b78:	afbf0014 	sw	ra,20(sp)
  403b7c:	afbe0010 	sw	s8,16(sp)
  403b80:	03a0f025 	move	s8,sp
  403b84:	afc40018 	sw	a0,24(s8)
  403b88:	afc5001c 	sw	a1,28(s8)
  403b8c:	afc60020 	sw	a2,32(s8)
/home/git/21373271/21373271/user/lib/syscall_lib.c:70
	/* Exercise 5.2: Your code here. (1/2) */

  403b90:	8fc70020 	lw	a3,32(s8)
  403b94:	8fc6001c 	lw	a2,28(s8)
  403b98:	8fc50018 	lw	a1,24(s8)
  403b9c:	24040010 	li	a0,16
  403ba0:	0c100f04 	jal	403c10 <msyscall>
  403ba4:	00000000 	nop
/home/git/21373271/21373271/user/lib/syscall_lib.c:71
}
  403ba8:	03c0e825 	move	sp,s8
  403bac:	8fbf0014 	lw	ra,20(sp)
  403bb0:	8fbe0010 	lw	s8,16(sp)
  403bb4:	27bd0018 	addiu	sp,sp,24
  403bb8:	03e00008 	jr	ra
  403bbc:	00000000 	nop

00403bc0 <syscall_read_dev>:
syscall_read_dev():
/home/git/21373271/21373271/user/lib/syscall_lib.c:73

int syscall_read_dev(void *va, u_int dev, u_int len) {
  403bc0:	27bdffe8 	addiu	sp,sp,-24
  403bc4:	afbf0014 	sw	ra,20(sp)
  403bc8:	afbe0010 	sw	s8,16(sp)
  403bcc:	03a0f025 	move	s8,sp
  403bd0:	afc40018 	sw	a0,24(s8)
  403bd4:	afc5001c 	sw	a1,28(s8)
  403bd8:	afc60020 	sw	a2,32(s8)
/home/git/21373271/21373271/user/lib/syscall_lib.c:75
	/* Exercise 5.2: Your code here. (2/2) */

  403bdc:	8fc70020 	lw	a3,32(s8)
  403be0:	8fc6001c 	lw	a2,28(s8)
  403be4:	8fc50018 	lw	a1,24(s8)
  403be8:	24040011 	li	a0,17
  403bec:	0c100f04 	jal	403c10 <msyscall>
  403bf0:	00000000 	nop
/home/git/21373271/21373271/user/lib/syscall_lib.c:76
}
  403bf4:	03c0e825 	move	sp,s8
  403bf8:	8fbf0014 	lw	ra,20(sp)
  403bfc:	8fbe0010 	lw	s8,16(sp)
  403c00:	27bd0018 	addiu	sp,sp,24
  403c04:	03e00008 	jr	ra
  403c08:	00000000 	nop
  403c0c:	00000000 	nop

00403c10 <msyscall>:
msyscall():
/home/git/21373271/21373271/user/lib/syscall_wrap.S:5
#include <asm/asm.h>

LEAF(msyscall)
	// Just use 'syscall' instruction and return.
	nop
  403c10:	00000000 	nop
/home/git/21373271/21373271/user/lib/syscall_wrap.S:6
	syscall
  403c14:	0000000c 	syscall
/home/git/21373271/21373271/user/lib/syscall_wrap.S:7
	nop
  403c18:	00000000 	nop
/home/git/21373271/21373271/user/lib/syscall_wrap.S:8
	jr ra
  403c1c:	03e00008 	jr	ra
  403c20:	00000000 	nop
	...

00403c30 <diskaddr>:
diskaddr():
/home/git/21373271/21373271/fs/fs.c:14
  403c30:	27bdfff8 	addiu	sp,sp,-8
  403c34:	afbe0004 	sw	s8,4(sp)
  403c38:	03a0f025 	move	s8,sp
  403c3c:	afc40008 	sw	a0,8(s8)
/home/git/21373271/21373271/fs/fs.c:16
  403c40:	8fc30008 	lw	v1,8(s8)
  403c44:	3c020001 	lui	v0,0x1
  403c48:	00621021 	addu	v0,v1,v0
  403c4c:	00021300 	sll	v0,v0,0xc
/home/git/21373271/21373271/fs/fs.c:17
  403c50:	03c0e825 	move	sp,s8
  403c54:	8fbe0004 	lw	s8,4(sp)
  403c58:	27bd0008 	addiu	sp,sp,8
  403c5c:	03e00008 	jr	ra
  403c60:	00000000 	nop

00403c64 <va_is_mapped>:
va_is_mapped():
/home/git/21373271/21373271/fs/fs.c:21
  403c64:	27bdfff8 	addiu	sp,sp,-8
  403c68:	afbe0004 	sw	s8,4(sp)
  403c6c:	03a0f025 	move	s8,sp
  403c70:	afc40008 	sw	a0,8(s8)
/home/git/21373271/21373271/fs/fs.c:22
  403c74:	8fc20008 	lw	v0,8(s8)
  403c78:	00000000 	nop
  403c7c:	00021582 	srl	v0,v0,0x16
  403c80:	00021880 	sll	v1,v0,0x2
  403c84:	3c027fdf 	lui	v0,0x7fdf
  403c88:	3442f000 	ori	v0,v0,0xf000
  403c8c:	00621021 	addu	v0,v1,v0
  403c90:	8c420000 	lw	v0,0(v0)
  403c94:	00000000 	nop
  403c98:	30420200 	andi	v0,v0,0x200
  403c9c:	1040000f 	beqz	v0,403cdc <va_is_mapped+0x78>
  403ca0:	00000000 	nop
/home/git/21373271/21373271/fs/fs.c:22 (discriminator 1)
  403ca4:	8fc20008 	lw	v0,8(s8)
  403ca8:	00000000 	nop
  403cac:	00021302 	srl	v0,v0,0xc
  403cb0:	00021880 	sll	v1,v0,0x2
  403cb4:	3c027fc0 	lui	v0,0x7fc0
  403cb8:	00621021 	addu	v0,v1,v0
  403cbc:	8c420000 	lw	v0,0(v0)
  403cc0:	00000000 	nop
  403cc4:	30420200 	andi	v0,v0,0x200
  403cc8:	10400004 	beqz	v0,403cdc <va_is_mapped+0x78>
  403ccc:	00000000 	nop
/home/git/21373271/21373271/fs/fs.c:22 (discriminator 3)
  403cd0:	24020001 	li	v0,1
  403cd4:	10000002 	b	403ce0 <va_is_mapped+0x7c>
  403cd8:	00000000 	nop
/home/git/21373271/21373271/fs/fs.c:22 (discriminator 4)
  403cdc:	00001025 	move	v0,zero
/home/git/21373271/21373271/fs/fs.c:23 (discriminator 7)
  403ce0:	03c0e825 	move	sp,s8
  403ce4:	8fbe0004 	lw	s8,4(sp)
  403ce8:	27bd0008 	addiu	sp,sp,8
  403cec:	03e00008 	jr	ra
  403cf0:	00000000 	nop

00403cf4 <block_is_mapped>:
block_is_mapped():
/home/git/21373271/21373271/fs/fs.c:28
  403cf4:	27bdffe0 	addiu	sp,sp,-32
  403cf8:	afbf001c 	sw	ra,28(sp)
  403cfc:	afbe0018 	sw	s8,24(sp)
  403d00:	03a0f025 	move	s8,sp
  403d04:	afc40020 	sw	a0,32(s8)
/home/git/21373271/21373271/fs/fs.c:29
  403d08:	8fc40020 	lw	a0,32(s8)
  403d0c:	0c100f0c 	jal	403c30 <diskaddr>
  403d10:	00000000 	nop
  403d14:	afc20010 	sw	v0,16(s8)
/home/git/21373271/21373271/fs/fs.c:30
  403d18:	8fc40010 	lw	a0,16(s8)
  403d1c:	0c100f19 	jal	403c64 <va_is_mapped>
  403d20:	00000000 	nop
  403d24:	10400004 	beqz	v0,403d38 <block_is_mapped+0x44>
  403d28:	00000000 	nop
/home/git/21373271/21373271/fs/fs.c:31
  403d2c:	8fc20010 	lw	v0,16(s8)
  403d30:	10000002 	b	403d3c <block_is_mapped+0x48>
  403d34:	00000000 	nop
/home/git/21373271/21373271/fs/fs.c:33
  403d38:	00001025 	move	v0,zero
/home/git/21373271/21373271/fs/fs.c:34
  403d3c:	03c0e825 	move	sp,s8
  403d40:	8fbf001c 	lw	ra,28(sp)
  403d44:	8fbe0018 	lw	s8,24(sp)
  403d48:	27bd0020 	addiu	sp,sp,32
  403d4c:	03e00008 	jr	ra
  403d50:	00000000 	nop

00403d54 <va_is_dirty>:
va_is_dirty():
/home/git/21373271/21373271/fs/fs.c:38
  403d54:	27bdfff8 	addiu	sp,sp,-8
  403d58:	afbe0004 	sw	s8,4(sp)
  403d5c:	03a0f025 	move	s8,sp
  403d60:	afc40008 	sw	a0,8(s8)
/home/git/21373271/21373271/fs/fs.c:39
  403d64:	8fc20008 	lw	v0,8(s8)
  403d68:	00000000 	nop
  403d6c:	00021302 	srl	v0,v0,0xc
  403d70:	00021880 	sll	v1,v0,0x2
  403d74:	3c027fc0 	lui	v0,0x7fc0
  403d78:	00621021 	addu	v0,v1,v0
  403d7c:	8c420000 	lw	v0,0(v0)
  403d80:	00000000 	nop
  403d84:	30420002 	andi	v0,v0,0x2
/home/git/21373271/21373271/fs/fs.c:40
  403d88:	03c0e825 	move	sp,s8
  403d8c:	8fbe0004 	lw	s8,4(sp)
  403d90:	27bd0008 	addiu	sp,sp,8
  403d94:	03e00008 	jr	ra
  403d98:	00000000 	nop

00403d9c <block_is_dirty>:
block_is_dirty():
/home/git/21373271/21373271/fs/fs.c:44
  403d9c:	27bdffe0 	addiu	sp,sp,-32
  403da0:	afbf001c 	sw	ra,28(sp)
  403da4:	afbe0018 	sw	s8,24(sp)
  403da8:	03a0f025 	move	s8,sp
  403dac:	afc40020 	sw	a0,32(s8)
/home/git/21373271/21373271/fs/fs.c:45
  403db0:	8fc40020 	lw	a0,32(s8)
  403db4:	0c100f0c 	jal	403c30 <diskaddr>
  403db8:	00000000 	nop
  403dbc:	afc20010 	sw	v0,16(s8)
/home/git/21373271/21373271/fs/fs.c:46
  403dc0:	8fc40010 	lw	a0,16(s8)
  403dc4:	0c100f19 	jal	403c64 <va_is_mapped>
  403dc8:	00000000 	nop
  403dcc:	10400009 	beqz	v0,403df4 <block_is_dirty+0x58>
  403dd0:	00000000 	nop
/home/git/21373271/21373271/fs/fs.c:46 (discriminator 1)
  403dd4:	8fc40010 	lw	a0,16(s8)
  403dd8:	0c100f55 	jal	403d54 <va_is_dirty>
  403ddc:	00000000 	nop
  403de0:	10400004 	beqz	v0,403df4 <block_is_dirty+0x58>
  403de4:	00000000 	nop
/home/git/21373271/21373271/fs/fs.c:46 (discriminator 3)
  403de8:	24020001 	li	v0,1
  403dec:	10000002 	b	403df8 <block_is_dirty+0x5c>
  403df0:	00000000 	nop
/home/git/21373271/21373271/fs/fs.c:46 (discriminator 4)
  403df4:	00001025 	move	v0,zero
/home/git/21373271/21373271/fs/fs.c:47 (discriminator 7)
  403df8:	03c0e825 	move	sp,s8
  403dfc:	8fbf001c 	lw	ra,28(sp)
  403e00:	8fbe0018 	lw	s8,24(sp)
  403e04:	27bd0020 	addiu	sp,sp,32
  403e08:	03e00008 	jr	ra
  403e0c:	00000000 	nop

00403e10 <dirty_block>:
dirty_block():
/home/git/21373271/21373271/fs/fs.c:51
  403e10:	27bdffd8 	addiu	sp,sp,-40
  403e14:	afbf0024 	sw	ra,36(sp)
  403e18:	afbe0020 	sw	s8,32(sp)
  403e1c:	03a0f025 	move	s8,sp
  403e20:	afc40028 	sw	a0,40(s8)
/home/git/21373271/21373271/fs/fs.c:52
  403e24:	8fc40028 	lw	a0,40(s8)
  403e28:	0c100f0c 	jal	403c30 <diskaddr>
  403e2c:	00000000 	nop
  403e30:	afc20018 	sw	v0,24(s8)
/home/git/21373271/21373271/fs/fs.c:54
  403e34:	8fc40018 	lw	a0,24(s8)
  403e38:	0c100f19 	jal	403c64 <va_is_mapped>
  403e3c:	00000000 	nop
  403e40:	14400004 	bnez	v0,403e54 <dirty_block+0x44>
  403e44:	00000000 	nop
/home/git/21373271/21373271/fs/fs.c:55
  403e48:	2402fff6 	li	v0,-10
  403e4c:	10000011 	b	403e94 <dirty_block+0x84>
  403e50:	00000000 	nop
/home/git/21373271/21373271/fs/fs.c:58
  403e54:	8fc40018 	lw	a0,24(s8)
  403e58:	0c100f55 	jal	403d54 <va_is_dirty>
  403e5c:	00000000 	nop
  403e60:	10400004 	beqz	v0,403e74 <dirty_block+0x64>
  403e64:	00000000 	nop
/home/git/21373271/21373271/fs/fs.c:59
  403e68:	00001025 	move	v0,zero
  403e6c:	10000009 	b	403e94 <dirty_block+0x84>
  403e70:	00000000 	nop
/home/git/21373271/21373271/fs/fs.c:62
  403e74:	24020402 	li	v0,1026
  403e78:	afa20010 	sw	v0,16(sp)
  403e7c:	8fc70018 	lw	a3,24(s8)
  403e80:	00003025 	move	a2,zero
  403e84:	8fc50018 	lw	a1,24(s8)
  403e88:	00002025 	move	a0,zero
  403e8c:	0c100e4b 	jal	40392c <syscall_mem_map>
  403e90:	00000000 	nop
/home/git/21373271/21373271/fs/fs.c:63
  403e94:	03c0e825 	move	sp,s8
  403e98:	8fbf0024 	lw	ra,36(sp)
  403e9c:	8fbe0020 	lw	s8,32(sp)
  403ea0:	27bd0028 	addiu	sp,sp,40
  403ea4:	03e00008 	jr	ra
  403ea8:	00000000 	nop

00403eac <write_block>:
write_block():
/home/git/21373271/21373271/fs/fs.c:67
  403eac:	27bdffe0 	addiu	sp,sp,-32
  403eb0:	afbf001c 	sw	ra,28(sp)
  403eb4:	afbe0018 	sw	s8,24(sp)
  403eb8:	03a0f025 	move	s8,sp
  403ebc:	afc40020 	sw	a0,32(s8)
/home/git/21373271/21373271/fs/fs.c:69
  403ec0:	8fc40020 	lw	a0,32(s8)
  403ec4:	0c100f3d 	jal	403cf4 <block_is_mapped>
  403ec8:	00000000 	nop
  403ecc:	14400009 	bnez	v0,403ef4 <write_block+0x48>
  403ed0:	00000000 	nop
/home/git/21373271/21373271/fs/fs.c:70
  403ed4:	8fc70020 	lw	a3,32(s8)
  403ed8:	3c020040 	lui	v0,0x40
  403edc:	24467e30 	addiu	a2,v0,32304
  403ee0:	24050046 	li	a1,70
  403ee4:	3c020040 	lui	v0,0x40
  403ee8:	24447e4c 	addiu	a0,v0,32332
  403eec:	0c100487 	jal	40121c <_user_panic>
  403ef0:	00000000 	nop
/home/git/21373271/21373271/fs/fs.c:74
  403ef4:	8fc40020 	lw	a0,32(s8)
  403ef8:	0c100f0c 	jal	403c30 <diskaddr>
  403efc:	00000000 	nop
  403f00:	afc20010 	sw	v0,16(s8)
/home/git/21373271/21373271/fs/fs.c:75
  403f04:	8fc20020 	lw	v0,32(s8)
  403f08:	00000000 	nop
  403f0c:	000210c0 	sll	v0,v0,0x3
  403f10:	24070008 	li	a3,8
  403f14:	8fc60010 	lw	a2,16(s8)
  403f18:	00402825 	move	a1,v0
  403f1c:	00002025 	move	a0,zero
  403f20:	0c101790 	jal	405e40 <ide_write>
  403f24:	00000000 	nop
/home/git/21373271/21373271/fs/fs.c:76
  403f28:	00000000 	nop
  403f2c:	03c0e825 	move	sp,s8
  403f30:	8fbf001c 	lw	ra,28(sp)
  403f34:	8fbe0018 	lw	s8,24(sp)
  403f38:	27bd0020 	addiu	sp,sp,32
  403f3c:	03e00008 	jr	ra
  403f40:	00000000 	nop

00403f44 <read_block>:
read_block():
/home/git/21373271/21373271/fs/fs.c:93
  403f44:	27bdffe0 	addiu	sp,sp,-32
  403f48:	afbf001c 	sw	ra,28(sp)
  403f4c:	afbe0018 	sw	s8,24(sp)
  403f50:	03a0f025 	move	s8,sp
  403f54:	afc40020 	sw	a0,32(s8)
  403f58:	afc50024 	sw	a1,36(s8)
  403f5c:	afc60028 	sw	a2,40(s8)
/home/git/21373271/21373271/fs/fs.c:95
  403f60:	3c020041 	lui	v0,0x41
  403f64:	8c42b010 	lw	v0,-20464(v0)
  403f68:	00000000 	nop
  403f6c:	10400012 	beqz	v0,403fb8 <read_block+0x74>
  403f70:	00000000 	nop
/home/git/21373271/21373271/fs/fs.c:95 (discriminator 1)
  403f74:	3c020041 	lui	v0,0x41
  403f78:	8c42b010 	lw	v0,-20464(v0)
  403f7c:	00000000 	nop
  403f80:	8c420004 	lw	v0,4(v0)
  403f84:	8fc30020 	lw	v1,32(s8)
  403f88:	00000000 	nop
  403f8c:	0062102b 	sltu	v0,v1,v0
  403f90:	14400009 	bnez	v0,403fb8 <read_block+0x74>
  403f94:	00000000 	nop
/home/git/21373271/21373271/fs/fs.c:96
  403f98:	8fc70020 	lw	a3,32(s8)
  403f9c:	3c020040 	lui	v0,0x40
  403fa0:	24467e54 	addiu	a2,v0,32340
  403fa4:	24050060 	li	a1,96
  403fa8:	3c020040 	lui	v0,0x40
  403fac:	24447e4c 	addiu	a0,v0,32332
  403fb0:	0c100487 	jal	40121c <_user_panic>
  403fb4:	00000000 	nop
/home/git/21373271/21373271/fs/fs.c:104
  403fb8:	3c020041 	lui	v0,0x41
  403fbc:	8c42b014 	lw	v0,-20460(v0)
  403fc0:	00000000 	nop
  403fc4:	1040000e 	beqz	v0,404000 <read_block+0xbc>
  403fc8:	00000000 	nop
/home/git/21373271/21373271/fs/fs.c:104 (discriminator 1)
  403fcc:	8fc40020 	lw	a0,32(s8)
  403fd0:	0c101084 	jal	404210 <block_is_free>
  403fd4:	00000000 	nop
  403fd8:	10400009 	beqz	v0,404000 <read_block+0xbc>
  403fdc:	00000000 	nop
/home/git/21373271/21373271/fs/fs.c:105
  403fe0:	8fc70020 	lw	a3,32(s8)
  403fe4:	3c020040 	lui	v0,0x40
  403fe8:	24467e78 	addiu	a2,v0,32376
  403fec:	24050069 	li	a1,105
  403ff0:	3c020040 	lui	v0,0x40
  403ff4:	24447e4c 	addiu	a0,v0,32332
  403ff8:	0c100487 	jal	40121c <_user_panic>
  403ffc:	00000000 	nop
/home/git/21373271/21373271/fs/fs.c:109
  404000:	8fc40020 	lw	a0,32(s8)
  404004:	0c100f0c 	jal	403c30 <diskaddr>
  404008:	00000000 	nop
  40400c:	afc20010 	sw	v0,16(s8)
/home/git/21373271/21373271/fs/fs.c:116
  404010:	8fc40020 	lw	a0,32(s8)
  404014:	0c100f3d 	jal	403cf4 <block_is_mapped>
  404018:	00000000 	nop
  40401c:	1040000a 	beqz	v0,404048 <read_block+0x104>
  404020:	00000000 	nop
/home/git/21373271/21373271/fs/fs.c:117
  404024:	8fc20028 	lw	v0,40(s8)
  404028:	00000000 	nop
  40402c:	1040001b 	beqz	v0,40409c <read_block+0x158>
  404030:	00000000 	nop
/home/git/21373271/21373271/fs/fs.c:118
  404034:	8fc20028 	lw	v0,40(s8)
  404038:	00000000 	nop
  40403c:	ac400000 	sw	zero,0(v0)
  404040:	10000016 	b	40409c <read_block+0x158>
  404044:	00000000 	nop
/home/git/21373271/21373271/fs/fs.c:121
  404048:	8fc20028 	lw	v0,40(s8)
  40404c:	00000000 	nop
  404050:	10400004 	beqz	v0,404064 <read_block+0x120>
  404054:	00000000 	nop
/home/git/21373271/21373271/fs/fs.c:122
  404058:	8fc20028 	lw	v0,40(s8)
  40405c:	24030001 	li	v1,1
  404060:	ac430000 	sw	v1,0(v0)
/home/git/21373271/21373271/fs/fs.c:124
  404064:	24060400 	li	a2,1024
  404068:	8fc50010 	lw	a1,16(s8)
  40406c:	00002025 	move	a0,zero
  404070:	0c100e38 	jal	4038e0 <syscall_mem_alloc>
  404074:	00000000 	nop
/home/git/21373271/21373271/fs/fs.c:125
  404078:	8fc20020 	lw	v0,32(s8)
  40407c:	00000000 	nop
  404080:	000210c0 	sll	v0,v0,0x3
  404084:	24070008 	li	a3,8
  404088:	8fc60010 	lw	a2,16(s8)
  40408c:	00402825 	move	a1,v0
  404090:	00002025 	move	a0,zero
  404094:	0c1016e4 	jal	405b90 <ide_read>
  404098:	00000000 	nop
/home/git/21373271/21373271/fs/fs.c:129
  40409c:	8fc20024 	lw	v0,36(s8)
  4040a0:	00000000 	nop
  4040a4:	10400005 	beqz	v0,4040bc <read_block+0x178>
  4040a8:	00000000 	nop
/home/git/21373271/21373271/fs/fs.c:130
  4040ac:	8fc20024 	lw	v0,36(s8)
  4040b0:	8fc30010 	lw	v1,16(s8)
  4040b4:	00000000 	nop
  4040b8:	ac430000 	sw	v1,0(v0)
/home/git/21373271/21373271/fs/fs.c:132
  4040bc:	00001025 	move	v0,zero
/home/git/21373271/21373271/fs/fs.c:133
  4040c0:	03c0e825 	move	sp,s8
  4040c4:	8fbf001c 	lw	ra,28(sp)
  4040c8:	8fbe0018 	lw	s8,24(sp)
  4040cc:	27bd0020 	addiu	sp,sp,32
  4040d0:	03e00008 	jr	ra
  4040d4:	00000000 	nop

004040d8 <map_block>:
map_block():
/home/git/21373271/21373271/fs/fs.c:137
  4040d8:	27bdffe8 	addiu	sp,sp,-24
  4040dc:	afbf0014 	sw	ra,20(sp)
  4040e0:	afbe0010 	sw	s8,16(sp)
  4040e4:	03a0f025 	move	s8,sp
  4040e8:	afc40018 	sw	a0,24(s8)
/home/git/21373271/21373271/fs/fs.c:141
  4040ec:	8fc40018 	lw	a0,24(s8)
  4040f0:	0c100f3d 	jal	403cf4 <block_is_mapped>
  4040f4:	00000000 	nop
  4040f8:	10400004 	beqz	v0,40410c <map_block+0x34>
  4040fc:	00000000 	nop
/home/git/21373271/21373271/fs/fs.c:142
  404100:	00001025 	move	v0,zero
  404104:	10000009 	b	40412c <map_block+0x54>
  404108:	00000000 	nop
/home/git/21373271/21373271/fs/fs.c:147
  40410c:	8fc40018 	lw	a0,24(s8)
  404110:	0c100f0c 	jal	403c30 <diskaddr>
  404114:	00000000 	nop
  404118:	24060600 	li	a2,1536
  40411c:	00402825 	move	a1,v0
  404120:	00002025 	move	a0,zero
  404124:	0c100e38 	jal	4038e0 <syscall_mem_alloc>
  404128:	00000000 	nop
/home/git/21373271/21373271/fs/fs.c:148
  40412c:	03c0e825 	move	sp,s8
  404130:	8fbf0014 	lw	ra,20(sp)
  404134:	8fbe0010 	lw	s8,16(sp)
  404138:	27bd0018 	addiu	sp,sp,24
  40413c:	03e00008 	jr	ra
  404140:	00000000 	nop

00404144 <unmap_block>:
unmap_block():
/home/git/21373271/21373271/fs/fs.c:152
  404144:	27bdffe0 	addiu	sp,sp,-32
  404148:	afbf001c 	sw	ra,28(sp)
  40414c:	afbe0018 	sw	s8,24(sp)
  404150:	03a0f025 	move	s8,sp
  404154:	afc40020 	sw	a0,32(s8)
/home/git/21373271/21373271/fs/fs.c:156
  404158:	8fc40020 	lw	a0,32(s8)
  40415c:	0c100f3d 	jal	403cf4 <block_is_mapped>
  404160:	00000000 	nop
  404164:	afc20010 	sw	v0,16(s8)
/home/git/21373271/21373271/fs/fs.c:157
  404168:	8fc20010 	lw	v0,16(s8)
  40416c:	00000000 	nop
  404170:	10400020 	beqz	v0,4041f4 <unmap_block+0xb0>
  404174:	00000000 	nop
/home/git/21373271/21373271/fs/fs.c:164
  404178:	8fc40020 	lw	a0,32(s8)
  40417c:	0c101084 	jal	404210 <block_is_free>
  404180:	00000000 	nop
  404184:	14400009 	bnez	v0,4041ac <unmap_block+0x68>
  404188:	00000000 	nop
/home/git/21373271/21373271/fs/fs.c:164 (discriminator 1)
  40418c:	8fc40020 	lw	a0,32(s8)
  404190:	0c100f67 	jal	403d9c <block_is_dirty>
  404194:	00000000 	nop
  404198:	10400004 	beqz	v0,4041ac <unmap_block+0x68>
  40419c:	00000000 	nop
/home/git/21373271/21373271/fs/fs.c:165
  4041a0:	8fc40020 	lw	a0,32(s8)
  4041a4:	0c100fab 	jal	403eac <write_block>
  4041a8:	00000000 	nop
/home/git/21373271/21373271/fs/fs.c:169
  4041ac:	8fc50010 	lw	a1,16(s8)
  4041b0:	00002025 	move	a0,zero
  4041b4:	0c100e65 	jal	403994 <syscall_mem_unmap>
  4041b8:	00000000 	nop
/home/git/21373271/21373271/fs/fs.c:170
  4041bc:	8fc40020 	lw	a0,32(s8)
  4041c0:	0c100f3d 	jal	403cf4 <block_is_mapped>
  4041c4:	00000000 	nop
  4041c8:	1040000b 	beqz	v0,4041f8 <unmap_block+0xb4>
  4041cc:	00000000 	nop
/home/git/21373271/21373271/fs/fs.c:170 (discriminator 1)
  4041d0:	3c020040 	lui	v0,0x40
  4041d4:	24477e94 	addiu	a3,v0,32404
  4041d8:	3c020040 	lui	v0,0x40
  4041dc:	24467eb0 	addiu	a2,v0,32432
  4041e0:	240500aa 	li	a1,170
  4041e4:	3c020040 	lui	v0,0x40
  4041e8:	24447e4c 	addiu	a0,v0,32332
  4041ec:	0c100487 	jal	40121c <_user_panic>
  4041f0:	00000000 	nop
/home/git/21373271/21373271/fs/fs.c:158
  4041f4:	00000000 	nop
/home/git/21373271/21373271/fs/fs.c:171
  4041f8:	03c0e825 	move	sp,s8
  4041fc:	8fbf001c 	lw	ra,28(sp)
  404200:	8fbe0018 	lw	s8,24(sp)
  404204:	27bd0020 	addiu	sp,sp,32
  404208:	03e00008 	jr	ra
  40420c:	00000000 	nop

00404210 <block_is_free>:
block_is_free():
/home/git/21373271/21373271/fs/fs.c:178
  404210:	27bdfff8 	addiu	sp,sp,-8
  404214:	afbe0004 	sw	s8,4(sp)
  404218:	03a0f025 	move	s8,sp
  40421c:	afc40008 	sw	a0,8(s8)
/home/git/21373271/21373271/fs/fs.c:179
  404220:	3c020041 	lui	v0,0x41
  404224:	8c42b010 	lw	v0,-20464(v0)
  404228:	00000000 	nop
  40422c:	1040000a 	beqz	v0,404258 <block_is_free+0x48>
  404230:	00000000 	nop
/home/git/21373271/21373271/fs/fs.c:179 (discriminator 1)
  404234:	3c020041 	lui	v0,0x41
  404238:	8c42b010 	lw	v0,-20464(v0)
  40423c:	00000000 	nop
  404240:	8c420004 	lw	v0,4(v0)
  404244:	8fc30008 	lw	v1,8(s8)
  404248:	00000000 	nop
  40424c:	0062102b 	sltu	v0,v1,v0
  404250:	14400004 	bnez	v0,404264 <block_is_free+0x54>
  404254:	00000000 	nop
/home/git/21373271/21373271/fs/fs.c:180
  404258:	00001025 	move	v0,zero
  40425c:	10000015 	b	4042b4 <block_is_free+0xa4>
  404260:	00000000 	nop
/home/git/21373271/21373271/fs/fs.c:183
  404264:	3c020041 	lui	v0,0x41
  404268:	8c43b014 	lw	v1,-20460(v0)
  40426c:	8fc20008 	lw	v0,8(s8)
  404270:	00000000 	nop
  404274:	00021142 	srl	v0,v0,0x5
  404278:	00021080 	sll	v0,v0,0x2
  40427c:	00621021 	addu	v0,v1,v0
  404280:	8c420000 	lw	v0,0(v0)
  404284:	8fc30008 	lw	v1,8(s8)
  404288:	00000000 	nop
  40428c:	3063001f 	andi	v1,v1,0x1f
  404290:	24040001 	li	a0,1
  404294:	00641804 	sllv	v1,a0,v1
  404298:	00431024 	and	v0,v0,v1
  40429c:	10400004 	beqz	v0,4042b0 <block_is_free+0xa0>
  4042a0:	00000000 	nop
/home/git/21373271/21373271/fs/fs.c:184
  4042a4:	24020001 	li	v0,1
  4042a8:	10000002 	b	4042b4 <block_is_free+0xa4>
  4042ac:	00000000 	nop
/home/git/21373271/21373271/fs/fs.c:187
  4042b0:	00001025 	move	v0,zero
/home/git/21373271/21373271/fs/fs.c:188
  4042b4:	03c0e825 	move	sp,s8
  4042b8:	8fbe0004 	lw	s8,4(sp)
  4042bc:	27bd0008 	addiu	sp,sp,8
  4042c0:	03e00008 	jr	ra
  4042c4:	00000000 	nop

004042c8 <free_block>:
free_block():
/home/git/21373271/21373271/fs/fs.c:192
  4042c8:	27bdfff8 	addiu	sp,sp,-8
  4042cc:	afbe0004 	sw	s8,4(sp)
  4042d0:	03a0f025 	move	s8,sp
  4042d4:	afc40008 	sw	a0,8(s8)
/home/git/21373271/21373271/fs/fs.c:196
  4042d8:	8fc20008 	lw	v0,8(s8)
  4042dc:	00000000 	nop
  4042e0:	10400025 	beqz	v0,404378 <free_block+0xb0>
  4042e4:	00000000 	nop
/home/git/21373271/21373271/fs/fs.c:196 (discriminator 1)
  4042e8:	3c020041 	lui	v0,0x41
  4042ec:	8c42b010 	lw	v0,-20464(v0)
  4042f0:	00000000 	nop
  4042f4:	1040000a 	beqz	v0,404320 <free_block+0x58>
  4042f8:	00000000 	nop
/home/git/21373271/21373271/fs/fs.c:196 (discriminator 2)
  4042fc:	3c020041 	lui	v0,0x41
  404300:	8c42b010 	lw	v0,-20464(v0)
  404304:	00000000 	nop
  404308:	8c420004 	lw	v0,4(v0)
  40430c:	8fc30008 	lw	v1,8(s8)
  404310:	00000000 	nop
  404314:	0062102b 	sltu	v0,v1,v0
  404318:	10400017 	beqz	v0,404378 <free_block+0xb0>
  40431c:	00000000 	nop
/home/git/21373271/21373271/fs/fs.c:199
  404320:	3c020041 	lui	v0,0x41
  404324:	8c44b014 	lw	a0,-20460(v0)
  404328:	8fc20008 	lw	v0,8(s8)
  40432c:	00000000 	nop
  404330:	00021142 	srl	v0,v0,0x5
  404334:	00021880 	sll	v1,v0,0x2
  404338:	00831821 	addu	v1,a0,v1
  40433c:	8c630000 	lw	v1,0(v1)
  404340:	8fc40008 	lw	a0,8(s8)
  404344:	00000000 	nop
  404348:	3084001f 	andi	a0,a0,0x1f
  40434c:	24050001 	li	a1,1
  404350:	00852004 	sllv	a0,a1,a0
  404354:	00802825 	move	a1,a0
  404358:	3c040041 	lui	a0,0x41
  40435c:	8c84b014 	lw	a0,-20460(a0)
  404360:	00021080 	sll	v0,v0,0x2
  404364:	00821021 	addu	v0,a0,v0
  404368:	00651825 	or	v1,v1,a1
  40436c:	ac430000 	sw	v1,0(v0)
  404370:	10000002 	b	40437c <free_block+0xb4>
  404374:	00000000 	nop
/home/git/21373271/21373271/fs/fs.c:197
  404378:	00000000 	nop
/home/git/21373271/21373271/fs/fs.c:204
  40437c:	03c0e825 	move	sp,s8
  404380:	8fbe0004 	lw	s8,4(sp)
  404384:	27bd0008 	addiu	sp,sp,8
  404388:	03e00008 	jr	ra
  40438c:	00000000 	nop

00404390 <alloc_block_num>:
alloc_block_num():
/home/git/21373271/21373271/fs/fs.c:212
  404390:	27bdffe0 	addiu	sp,sp,-32
  404394:	afbf001c 	sw	ra,28(sp)
  404398:	afbe0018 	sw	s8,24(sp)
  40439c:	03a0f025 	move	s8,sp
/home/git/21373271/21373271/fs/fs.c:216
  4043a0:	24020003 	li	v0,3
  4043a4:	afc20010 	sw	v0,16(s8)
  4043a8:	10000050 	b	4044ec <alloc_block_num+0x15c>
  4043ac:	00000000 	nop
/home/git/21373271/21373271/fs/fs.c:217
  4043b0:	3c020041 	lui	v0,0x41
  4043b4:	8c43b014 	lw	v1,-20460(v0)
  4043b8:	8fc20010 	lw	v0,16(s8)
  4043bc:	00000000 	nop
  4043c0:	04410002 	bgez	v0,4043cc <alloc_block_num+0x3c>
  4043c4:	00000000 	nop
  4043c8:	2442001f 	addiu	v0,v0,31
  4043cc:	00021143 	sra	v0,v0,0x5
  4043d0:	00021080 	sll	v0,v0,0x2
  4043d4:	00621021 	addu	v0,v1,v0
  4043d8:	8c430000 	lw	v1,0(v0)
  4043dc:	8fc40010 	lw	a0,16(s8)
  4043e0:	3c028000 	lui	v0,0x8000
  4043e4:	3442001f 	ori	v0,v0,0x1f
  4043e8:	00821024 	and	v0,a0,v0
  4043ec:	04410005 	bgez	v0,404404 <alloc_block_num+0x74>
  4043f0:	00000000 	nop
  4043f4:	2442ffff 	addiu	v0,v0,-1
  4043f8:	2404ffe0 	li	a0,-32
  4043fc:	00441025 	or	v0,v0,a0
  404400:	24420001 	addiu	v0,v0,1
  404404:	00402025 	move	a0,v0
  404408:	24020001 	li	v0,1
  40440c:	00821004 	sllv	v0,v0,a0
  404410:	00621024 	and	v0,v1,v0
  404414:	10400031 	beqz	v0,4044dc <alloc_block_num+0x14c>
  404418:	00000000 	nop
/home/git/21373271/21373271/fs/fs.c:218
  40441c:	3c020041 	lui	v0,0x41
  404420:	8c43b014 	lw	v1,-20460(v0)
  404424:	8fc20010 	lw	v0,16(s8)
  404428:	00000000 	nop
  40442c:	04410002 	bgez	v0,404438 <alloc_block_num+0xa8>
  404430:	00000000 	nop
  404434:	2442001f 	addiu	v0,v0,31
  404438:	00021143 	sra	v0,v0,0x5
  40443c:	00403025 	move	a2,v0
  404440:	00c01025 	move	v0,a2
  404444:	00021080 	sll	v0,v0,0x2
  404448:	00621021 	addu	v0,v1,v0
  40444c:	8c430000 	lw	v1,0(v0)
  404450:	8fc40010 	lw	a0,16(s8)
  404454:	3c028000 	lui	v0,0x8000
  404458:	3442001f 	ori	v0,v0,0x1f
  40445c:	00821024 	and	v0,a0,v0
  404460:	04410005 	bgez	v0,404478 <alloc_block_num+0xe8>
  404464:	00000000 	nop
  404468:	2442ffff 	addiu	v0,v0,-1
  40446c:	2404ffe0 	li	a0,-32
  404470:	00441025 	or	v0,v0,a0
  404474:	24420001 	addiu	v0,v0,1
  404478:	00402025 	move	a0,v0
  40447c:	24020001 	li	v0,1
  404480:	00821004 	sllv	v0,v0,a0
  404484:	00021027 	nor	v0,zero,v0
  404488:	00402825 	move	a1,v0
  40448c:	3c020041 	lui	v0,0x41
  404490:	8c44b014 	lw	a0,-20460(v0)
  404494:	00c01025 	move	v0,a2
  404498:	00021080 	sll	v0,v0,0x2
  40449c:	00821021 	addu	v0,a0,v0
  4044a0:	00651824 	and	v1,v1,a1
  4044a4:	ac430000 	sw	v1,0(v0)
/home/git/21373271/21373271/fs/fs.c:219
  4044a8:	8fc20010 	lw	v0,16(s8)
  4044ac:	00000000 	nop
  4044b0:	04410002 	bgez	v0,4044bc <alloc_block_num+0x12c>
  4044b4:	00000000 	nop
  4044b8:	24427fff 	addiu	v0,v0,32767
  4044bc:	000213c3 	sra	v0,v0,0xf
  4044c0:	24420002 	addiu	v0,v0,2
  4044c4:	00402025 	move	a0,v0
  4044c8:	0c100fab 	jal	403eac <write_block>
  4044cc:	00000000 	nop
/home/git/21373271/21373271/fs/fs.c:220
  4044d0:	8fc20010 	lw	v0,16(s8)
  4044d4:	1000000f 	b	404514 <alloc_block_num+0x184>
  4044d8:	00000000 	nop
/home/git/21373271/21373271/fs/fs.c:216 (discriminator 2)
  4044dc:	8fc20010 	lw	v0,16(s8)
  4044e0:	00000000 	nop
  4044e4:	24420001 	addiu	v0,v0,1
  4044e8:	afc20010 	sw	v0,16(s8)
/home/git/21373271/21373271/fs/fs.c:216 (discriminator 1)
  4044ec:	3c020041 	lui	v0,0x41
  4044f0:	8c42b010 	lw	v0,-20464(v0)
  4044f4:	00000000 	nop
  4044f8:	8c430004 	lw	v1,4(v0)
  4044fc:	8fc20010 	lw	v0,16(s8)
  404500:	00000000 	nop
  404504:	0043102b 	sltu	v0,v0,v1
  404508:	1440ffa9 	bnez	v0,4043b0 <alloc_block_num+0x20>
  40450c:	00000000 	nop
/home/git/21373271/21373271/fs/fs.c:224
  404510:	2402fff8 	li	v0,-8
/home/git/21373271/21373271/fs/fs.c:225
  404514:	03c0e825 	move	sp,s8
  404518:	8fbf001c 	lw	ra,28(sp)
  40451c:	8fbe0018 	lw	s8,24(sp)
  404520:	27bd0020 	addiu	sp,sp,32
  404524:	03e00008 	jr	ra
  404528:	00000000 	nop

0040452c <alloc_block>:
alloc_block():
/home/git/21373271/21373271/fs/fs.c:229
  40452c:	27bdffe0 	addiu	sp,sp,-32
  404530:	afbf001c 	sw	ra,28(sp)
  404534:	afbe0018 	sw	s8,24(sp)
  404538:	03a0f025 	move	s8,sp
/home/git/21373271/21373271/fs/fs.c:232
  40453c:	0c1010e4 	jal	404390 <alloc_block_num>
  404540:	00000000 	nop
  404544:	afc20010 	sw	v0,16(s8)
  404548:	8fc20010 	lw	v0,16(s8)
  40454c:	00000000 	nop
  404550:	04410004 	bgez	v0,404564 <alloc_block+0x38>
  404554:	00000000 	nop
/home/git/21373271/21373271/fs/fs.c:233
  404558:	8fc20010 	lw	v0,16(s8)
  40455c:	10000017 	b	4045bc <alloc_block+0x90>
  404560:	00000000 	nop
/home/git/21373271/21373271/fs/fs.c:235
  404564:	8fc20010 	lw	v0,16(s8)
  404568:	00000000 	nop
  40456c:	afc20014 	sw	v0,20(s8)
/home/git/21373271/21373271/fs/fs.c:238
  404570:	8fc20014 	lw	v0,20(s8)
  404574:	00000000 	nop
  404578:	00402025 	move	a0,v0
  40457c:	0c101036 	jal	4040d8 <map_block>
  404580:	00000000 	nop
  404584:	afc20010 	sw	v0,16(s8)
  404588:	8fc20010 	lw	v0,16(s8)
  40458c:	00000000 	nop
  404590:	04410009 	bgez	v0,4045b8 <alloc_block+0x8c>
  404594:	00000000 	nop
/home/git/21373271/21373271/fs/fs.c:239
  404598:	8fc20014 	lw	v0,20(s8)
  40459c:	00000000 	nop
  4045a0:	00402025 	move	a0,v0
  4045a4:	0c1010b2 	jal	4042c8 <free_block>
  4045a8:	00000000 	nop
/home/git/21373271/21373271/fs/fs.c:240
  4045ac:	8fc20010 	lw	v0,16(s8)
  4045b0:	10000002 	b	4045bc <alloc_block+0x90>
  4045b4:	00000000 	nop
/home/git/21373271/21373271/fs/fs.c:244
  4045b8:	8fc20014 	lw	v0,20(s8)
/home/git/21373271/21373271/fs/fs.c:245
  4045bc:	03c0e825 	move	sp,s8
  4045c0:	8fbf001c 	lw	ra,28(sp)
  4045c4:	8fbe0018 	lw	s8,24(sp)
  4045c8:	27bd0020 	addiu	sp,sp,32
  4045cc:	03e00008 	jr	ra
  4045d0:	00000000 	nop

004045d4 <read_super>:
read_super():
/home/git/21373271/21373271/fs/fs.c:252
  4045d4:	27bdffd8 	addiu	sp,sp,-40
  4045d8:	afbf0024 	sw	ra,36(sp)
  4045dc:	afbe0020 	sw	s8,32(sp)
  4045e0:	03a0f025 	move	s8,sp
/home/git/21373271/21373271/fs/fs.c:257
  4045e4:	27c2001c 	addiu	v0,s8,28
  4045e8:	00003025 	move	a2,zero
  4045ec:	00402825 	move	a1,v0
  4045f0:	24040001 	li	a0,1
  4045f4:	0c100fd1 	jal	403f44 <read_block>
  4045f8:	00000000 	nop
  4045fc:	afc20018 	sw	v0,24(s8)
  404600:	8fc20018 	lw	v0,24(s8)
  404604:	00000000 	nop
  404608:	04410009 	bgez	v0,404630 <read_super+0x5c>
  40460c:	00000000 	nop
/home/git/21373271/21373271/fs/fs.c:258
  404610:	8fc70018 	lw	a3,24(s8)
  404614:	3c020040 	lui	v0,0x40
  404618:	24467ec8 	addiu	a2,v0,32456
  40461c:	24050102 	li	a1,258
  404620:	3c020040 	lui	v0,0x40
  404624:	24447e4c 	addiu	a0,v0,32332
  404628:	0c100487 	jal	40121c <_user_panic>
  40462c:	00000000 	nop
/home/git/21373271/21373271/fs/fs.c:261
  404630:	8fc3001c 	lw	v1,28(s8)
  404634:	3c020041 	lui	v0,0x41
  404638:	ac43b010 	sw	v1,-20464(v0)
/home/git/21373271/21373271/fs/fs.c:264
  40463c:	3c020041 	lui	v0,0x41
  404640:	8c42b010 	lw	v0,-20464(v0)
  404644:	00000000 	nop
  404648:	8c430000 	lw	v1,0(v0)
  40464c:	3c026828 	lui	v0,0x6828
  404650:	34426097 	ori	v0,v0,0x6097
  404654:	10620010 	beq	v1,v0,404698 <read_super+0xc4>
  404658:	00000000 	nop
/home/git/21373271/21373271/fs/fs.c:265
  40465c:	3c020041 	lui	v0,0x41
  404660:	8c42b010 	lw	v0,-20464(v0)
  404664:	00000000 	nop
  404668:	8c430000 	lw	v1,0(v0)
  40466c:	3c026828 	lui	v0,0x6828
  404670:	34426097 	ori	v0,v0,0x6097
  404674:	afa20010 	sw	v0,16(sp)
  404678:	00603825 	move	a3,v1
  40467c:	3c020040 	lui	v0,0x40
  404680:	24467ee4 	addiu	a2,v0,32484
  404684:	24050109 	li	a1,265
  404688:	3c020040 	lui	v0,0x40
  40468c:	24447e4c 	addiu	a0,v0,32332
  404690:	0c100487 	jal	40121c <_user_panic>
  404694:	00000000 	nop
/home/git/21373271/21373271/fs/fs.c:269
  404698:	3c020041 	lui	v0,0x41
  40469c:	8c42b010 	lw	v0,-20464(v0)
  4046a0:	00000000 	nop
  4046a4:	8c430004 	lw	v1,4(v0)
  4046a8:	3c020004 	lui	v0,0x4
  4046ac:	34420001 	ori	v0,v0,0x1
  4046b0:	0062102b 	sltu	v0,v1,v0
  4046b4:	14400008 	bnez	v0,4046d8 <read_super+0x104>
  4046b8:	00000000 	nop
/home/git/21373271/21373271/fs/fs.c:270
  4046bc:	3c020040 	lui	v0,0x40
  4046c0:	24467f08 	addiu	a2,v0,32520
  4046c4:	2405010e 	li	a1,270
  4046c8:	3c020040 	lui	v0,0x40
  4046cc:	24447e4c 	addiu	a0,v0,32332
  4046d0:	0c100487 	jal	40121c <_user_panic>
  4046d4:	00000000 	nop
/home/git/21373271/21373271/fs/fs.c:273
  4046d8:	3c020040 	lui	v0,0x40
  4046dc:	24447f24 	addiu	a0,v0,32548
  4046e0:	0c100470 	jal	4011c0 <debugf>
  4046e4:	00000000 	nop
/home/git/21373271/21373271/fs/fs.c:274
  4046e8:	00000000 	nop
  4046ec:	03c0e825 	move	sp,s8
  4046f0:	8fbf0024 	lw	ra,36(sp)
  4046f4:	8fbe0020 	lw	s8,32(sp)
  4046f8:	27bd0028 	addiu	sp,sp,40
  4046fc:	03e00008 	jr	ra
  404700:	00000000 	nop

00404704 <read_bitmap>:
read_bitmap():
/home/git/21373271/21373271/fs/fs.c:283
  404704:	27bdffd8 	addiu	sp,sp,-40
  404708:	afbf0024 	sw	ra,36(sp)
  40470c:	afbe0020 	sw	s8,32(sp)
  404710:	03a0f025 	move	s8,sp
/home/git/21373271/21373271/fs/fs.c:285
  404714:	afc00014 	sw	zero,20(s8)
/home/git/21373271/21373271/fs/fs.c:288
  404718:	3c020041 	lui	v0,0x41
  40471c:	8c42b010 	lw	v0,-20464(v0)
  404720:	00000000 	nop
  404724:	8c420004 	lw	v0,4(v0)
  404728:	00000000 	nop
  40472c:	000213c2 	srl	v0,v0,0xf
  404730:	24420001 	addiu	v0,v0,1
  404734:	afc20018 	sw	v0,24(s8)
/home/git/21373271/21373271/fs/fs.c:289
  404738:	afc00010 	sw	zero,16(s8)
  40473c:	1000000d 	b	404774 <read_bitmap+0x70>
  404740:	00000000 	nop
/home/git/21373271/21373271/fs/fs.c:290 (discriminator 3)
  404744:	8fc20010 	lw	v0,16(s8)
  404748:	00000000 	nop
  40474c:	24420002 	addiu	v0,v0,2
  404750:	00003025 	move	a2,zero
  404754:	8fc50014 	lw	a1,20(s8)
  404758:	00402025 	move	a0,v0
  40475c:	0c100fd1 	jal	403f44 <read_block>
  404760:	00000000 	nop
/home/git/21373271/21373271/fs/fs.c:289 (discriminator 3)
  404764:	8fc20010 	lw	v0,16(s8)
  404768:	00000000 	nop
  40476c:	24420001 	addiu	v0,v0,1
  404770:	afc20010 	sw	v0,16(s8)
/home/git/21373271/21373271/fs/fs.c:289 (discriminator 1)
  404774:	8fc30010 	lw	v1,16(s8)
  404778:	8fc20018 	lw	v0,24(s8)
  40477c:	00000000 	nop
  404780:	0062102b 	sltu	v0,v1,v0
  404784:	1440ffef 	bnez	v0,404744 <read_bitmap+0x40>
  404788:	00000000 	nop
/home/git/21373271/21373271/fs/fs.c:293
  40478c:	24040002 	li	a0,2
  404790:	0c100f0c 	jal	403c30 <diskaddr>
  404794:	00000000 	nop
  404798:	00401825 	move	v1,v0
  40479c:	3c020041 	lui	v0,0x41
  4047a0:	ac43b014 	sw	v1,-20460(v0)
/home/git/21373271/21373271/fs/fs.c:297
  4047a4:	00002025 	move	a0,zero
  4047a8:	0c101084 	jal	404210 <block_is_free>
  4047ac:	00000000 	nop
  4047b0:	1040000a 	beqz	v0,4047dc <read_bitmap+0xd8>
  4047b4:	00000000 	nop
/home/git/21373271/21373271/fs/fs.c:297 (discriminator 1)
  4047b8:	3c020040 	lui	v0,0x40
  4047bc:	24477f38 	addiu	a3,v0,32568
  4047c0:	3c020040 	lui	v0,0x40
  4047c4:	24467eb0 	addiu	a2,v0,32432
  4047c8:	24050129 	li	a1,297
  4047cc:	3c020040 	lui	v0,0x40
  4047d0:	24447e4c 	addiu	a0,v0,32332
  4047d4:	0c100487 	jal	40121c <_user_panic>
  4047d8:	00000000 	nop
/home/git/21373271/21373271/fs/fs.c:298
  4047dc:	24040001 	li	a0,1
  4047e0:	0c101084 	jal	404210 <block_is_free>
  4047e4:	00000000 	nop
  4047e8:	1040000a 	beqz	v0,404814 <read_bitmap+0x110>
  4047ec:	00000000 	nop
/home/git/21373271/21373271/fs/fs.c:298 (discriminator 1)
  4047f0:	3c020040 	lui	v0,0x40
  4047f4:	24477f4c 	addiu	a3,v0,32588
  4047f8:	3c020040 	lui	v0,0x40
  4047fc:	24467eb0 	addiu	a2,v0,32432
  404800:	2405012a 	li	a1,298
  404804:	3c020040 	lui	v0,0x40
  404808:	24447e4c 	addiu	a0,v0,32332
  40480c:	0c100487 	jal	40121c <_user_panic>
  404810:	00000000 	nop
/home/git/21373271/21373271/fs/fs.c:301
  404814:	afc00010 	sw	zero,16(s8)
  404818:	10000016 	b	404874 <read_bitmap+0x170>
  40481c:	00000000 	nop
/home/git/21373271/21373271/fs/fs.c:302
  404820:	8fc20010 	lw	v0,16(s8)
  404824:	00000000 	nop
  404828:	24420002 	addiu	v0,v0,2
  40482c:	00402025 	move	a0,v0
  404830:	0c101084 	jal	404210 <block_is_free>
  404834:	00000000 	nop
  404838:	1040000a 	beqz	v0,404864 <read_bitmap+0x160>
  40483c:	00000000 	nop
/home/git/21373271/21373271/fs/fs.c:302 (discriminator 1)
  404840:	3c020040 	lui	v0,0x40
  404844:	24477f60 	addiu	a3,v0,32608
  404848:	3c020040 	lui	v0,0x40
  40484c:	24467eb0 	addiu	a2,v0,32432
  404850:	2405012e 	li	a1,302
  404854:	3c020040 	lui	v0,0x40
  404858:	24447e4c 	addiu	a0,v0,32332
  40485c:	0c100487 	jal	40121c <_user_panic>
  404860:	00000000 	nop
/home/git/21373271/21373271/fs/fs.c:301 (discriminator 2)
  404864:	8fc20010 	lw	v0,16(s8)
  404868:	00000000 	nop
  40486c:	24420001 	addiu	v0,v0,1
  404870:	afc20010 	sw	v0,16(s8)
/home/git/21373271/21373271/fs/fs.c:301 (discriminator 1)
  404874:	8fc30010 	lw	v1,16(s8)
  404878:	8fc20018 	lw	v0,24(s8)
  40487c:	00000000 	nop
  404880:	0062102b 	sltu	v0,v1,v0
  404884:	1440ffe6 	bnez	v0,404820 <read_bitmap+0x11c>
  404888:	00000000 	nop
/home/git/21373271/21373271/fs/fs.c:305
  40488c:	3c020040 	lui	v0,0x40
  404890:	24447f78 	addiu	a0,v0,32632
  404894:	0c100470 	jal	4011c0 <debugf>
  404898:	00000000 	nop
/home/git/21373271/21373271/fs/fs.c:306
  40489c:	00000000 	nop
  4048a0:	03c0e825 	move	sp,s8
  4048a4:	8fbf0024 	lw	ra,36(sp)
  4048a8:	8fbe0020 	lw	s8,32(sp)
  4048ac:	27bd0028 	addiu	sp,sp,40
  4048b0:	03e00008 	jr	ra
  4048b4:	00000000 	nop

004048b8 <check_write_block>:
check_write_block():
/home/git/21373271/21373271/fs/fs.c:310
  4048b8:	27bdffe0 	addiu	sp,sp,-32
  4048bc:	afbf001c 	sw	ra,28(sp)
  4048c0:	afbe0018 	sw	s8,24(sp)
  4048c4:	afb00014 	sw	s0,20(sp)
  4048c8:	03a0f025 	move	s8,sp
/home/git/21373271/21373271/fs/fs.c:311
  4048cc:	3c020041 	lui	v0,0x41
  4048d0:	ac40b010 	sw	zero,-20464(v0)
/home/git/21373271/21373271/fs/fs.c:315
  4048d4:	00003025 	move	a2,zero
  4048d8:	00002825 	move	a1,zero
  4048dc:	00002025 	move	a0,zero
  4048e0:	0c100fd1 	jal	403f44 <read_block>
  4048e4:	00000000 	nop
/home/git/21373271/21373271/fs/fs.c:316
  4048e8:	00002025 	move	a0,zero
  4048ec:	0c100f0c 	jal	403c30 <diskaddr>
  4048f0:	00000000 	nop
  4048f4:	00408025 	move	s0,v0
  4048f8:	24040001 	li	a0,1
  4048fc:	0c100f0c 	jal	403c30 <diskaddr>
  404900:	00000000 	nop
  404904:	24061000 	li	a2,4096
  404908:	00402825 	move	a1,v0
  40490c:	02002025 	move	a0,s0
  404910:	0c101ce8 	jal	4073a0 <memcpy>
  404914:	00000000 	nop
/home/git/21373271/21373271/fs/fs.c:319
  404918:	24040001 	li	a0,1
  40491c:	0c100f0c 	jal	403c30 <diskaddr>
  404920:	00000000 	nop
  404924:	00401825 	move	v1,v0
  404928:	3c020040 	lui	v0,0x40
  40492c:	24457f90 	addiu	a1,v0,32656
  404930:	00602025 	move	a0,v1
  404934:	0c101dcf 	jal	40773c <strcpy>
  404938:	00000000 	nop
/home/git/21373271/21373271/fs/fs.c:320
  40493c:	24040001 	li	a0,1
  404940:	0c100fab 	jal	403eac <write_block>
  404944:	00000000 	nop
/home/git/21373271/21373271/fs/fs.c:321
  404948:	24040001 	li	a0,1
  40494c:	0c100f3d 	jal	403cf4 <block_is_mapped>
  404950:	00000000 	nop
  404954:	1440000a 	bnez	v0,404980 <check_write_block+0xc8>
  404958:	00000000 	nop
/home/git/21373271/21373271/fs/fs.c:321 (discriminator 1)
  40495c:	3c020040 	lui	v0,0x40
  404960:	24477f98 	addiu	a3,v0,32664
  404964:	3c020040 	lui	v0,0x40
  404968:	24467eb0 	addiu	a2,v0,32432
  40496c:	24050141 	li	a1,321
  404970:	3c020040 	lui	v0,0x40
  404974:	24447e4c 	addiu	a0,v0,32332
  404978:	0c100487 	jal	40121c <_user_panic>
  40497c:	00000000 	nop
/home/git/21373271/21373271/fs/fs.c:324
  404980:	24040001 	li	a0,1
  404984:	0c100f0c 	jal	403c30 <diskaddr>
  404988:	00000000 	nop
  40498c:	00402825 	move	a1,v0
  404990:	00002025 	move	a0,zero
  404994:	0c100e65 	jal	403994 <syscall_mem_unmap>
  404998:	00000000 	nop
/home/git/21373271/21373271/fs/fs.c:325
  40499c:	24040001 	li	a0,1
  4049a0:	0c100f3d 	jal	403cf4 <block_is_mapped>
  4049a4:	00000000 	nop
  4049a8:	1040000a 	beqz	v0,4049d4 <check_write_block+0x11c>
  4049ac:	00000000 	nop
/home/git/21373271/21373271/fs/fs.c:325 (discriminator 1)
  4049b0:	3c020040 	lui	v0,0x40
  4049b4:	24477fac 	addiu	a3,v0,32684
  4049b8:	3c020040 	lui	v0,0x40
  4049bc:	24467eb0 	addiu	a2,v0,32432
  4049c0:	24050145 	li	a1,325
  4049c4:	3c020040 	lui	v0,0x40
  4049c8:	24447e4c 	addiu	a0,v0,32332
  4049cc:	0c100487 	jal	40121c <_user_panic>
  4049d0:	00000000 	nop
/home/git/21373271/21373271/fs/fs.c:328
  4049d4:	00003025 	move	a2,zero
  4049d8:	00002825 	move	a1,zero
  4049dc:	24040001 	li	a0,1
  4049e0:	0c100fd1 	jal	403f44 <read_block>
  4049e4:	00000000 	nop
/home/git/21373271/21373271/fs/fs.c:329
  4049e8:	24040001 	li	a0,1
  4049ec:	0c100f0c 	jal	403c30 <diskaddr>
  4049f0:	00000000 	nop
  4049f4:	00401825 	move	v1,v0
  4049f8:	3c020040 	lui	v0,0x40
  4049fc:	24457f90 	addiu	a1,v0,32656
  404a00:	00602025 	move	a0,v1
  404a04:	0c101e10 	jal	407840 <strcmp>
  404a08:	00000000 	nop
  404a0c:	1040000a 	beqz	v0,404a38 <check_write_block+0x180>
  404a10:	00000000 	nop
/home/git/21373271/21373271/fs/fs.c:329 (discriminator 1)
  404a14:	3c020040 	lui	v0,0x40
  404a18:	24477fc0 	addiu	a3,v0,32704
  404a1c:	3c020040 	lui	v0,0x40
  404a20:	24467eb0 	addiu	a2,v0,32432
  404a24:	24050149 	li	a1,329
  404a28:	3c020040 	lui	v0,0x40
  404a2c:	24447e4c 	addiu	a0,v0,32332
  404a30:	0c100487 	jal	40121c <_user_panic>
  404a34:	00000000 	nop
/home/git/21373271/21373271/fs/fs.c:332
  404a38:	24040001 	li	a0,1
  404a3c:	0c100f0c 	jal	403c30 <diskaddr>
  404a40:	00000000 	nop
  404a44:	00408025 	move	s0,v0
  404a48:	00002025 	move	a0,zero
  404a4c:	0c100f0c 	jal	403c30 <diskaddr>
  404a50:	00000000 	nop
  404a54:	24061000 	li	a2,4096
  404a58:	00402825 	move	a1,v0
  404a5c:	02002025 	move	a0,s0
  404a60:	0c101ce8 	jal	4073a0 <memcpy>
  404a64:	00000000 	nop
/home/git/21373271/21373271/fs/fs.c:333
  404a68:	24040001 	li	a0,1
  404a6c:	0c100fab 	jal	403eac <write_block>
  404a70:	00000000 	nop
/home/git/21373271/21373271/fs/fs.c:334
  404a74:	24040001 	li	a0,1
  404a78:	0c100f0c 	jal	403c30 <diskaddr>
  404a7c:	00000000 	nop
  404a80:	00401825 	move	v1,v0
  404a84:	3c020041 	lui	v0,0x41
  404a88:	ac43b010 	sw	v1,-20464(v0)
/home/git/21373271/21373271/fs/fs.c:335
  404a8c:	00000000 	nop
  404a90:	03c0e825 	move	sp,s8
  404a94:	8fbf001c 	lw	ra,28(sp)
  404a98:	8fbe0018 	lw	s8,24(sp)
  404a9c:	8fb00014 	lw	s0,20(sp)
  404aa0:	27bd0020 	addiu	sp,sp,32
  404aa4:	03e00008 	jr	ra
  404aa8:	00000000 	nop

00404aac <fs_init>:
fs_init():
/home/git/21373271/21373271/fs/fs.c:343
  404aac:	27bdffe8 	addiu	sp,sp,-24
  404ab0:	afbf0014 	sw	ra,20(sp)
  404ab4:	afbe0010 	sw	s8,16(sp)
  404ab8:	03a0f025 	move	s8,sp
/home/git/21373271/21373271/fs/fs.c:344
  404abc:	0c101175 	jal	4045d4 <read_super>
  404ac0:	00000000 	nop
/home/git/21373271/21373271/fs/fs.c:345
  404ac4:	0c10122e 	jal	4048b8 <check_write_block>
  404ac8:	00000000 	nop
/home/git/21373271/21373271/fs/fs.c:346
  404acc:	0c1011c1 	jal	404704 <read_bitmap>
  404ad0:	00000000 	nop
/home/git/21373271/21373271/fs/fs.c:347
  404ad4:	00000000 	nop
  404ad8:	03c0e825 	move	sp,s8
  404adc:	8fbf0014 	lw	ra,20(sp)
  404ae0:	8fbe0010 	lw	s8,16(sp)
  404ae4:	27bd0018 	addiu	sp,sp,24
  404ae8:	03e00008 	jr	ra
  404aec:	00000000 	nop

00404af0 <file_block_walk>:
file_block_walk():
/home/git/21373271/21373271/fs/fs.c:362
  404af0:	27bdffd8 	addiu	sp,sp,-40
  404af4:	afbf0024 	sw	ra,36(sp)
  404af8:	afbe0020 	sw	s8,32(sp)
  404afc:	03a0f025 	move	s8,sp
  404b00:	afc40028 	sw	a0,40(s8)
  404b04:	afc5002c 	sw	a1,44(s8)
  404b08:	afc60030 	sw	a2,48(s8)
  404b0c:	afc70034 	sw	a3,52(s8)
/home/git/21373271/21373271/fs/fs.c:367
  404b10:	8fc2002c 	lw	v0,44(s8)
  404b14:	00000000 	nop
  404b18:	2c42000a 	sltiu	v0,v0,10
  404b1c:	1040000b 	beqz	v0,404b4c <file_block_walk+0x5c>
  404b20:	00000000 	nop
/home/git/21373271/21373271/fs/fs.c:370
  404b24:	8fc2002c 	lw	v0,44(s8)
  404b28:	00000000 	nop
  404b2c:	24420022 	addiu	v0,v0,34
  404b30:	00021080 	sll	v0,v0,0x2
  404b34:	8fc30028 	lw	v1,40(s8)
  404b38:	00000000 	nop
  404b3c:	00621021 	addu	v0,v1,v0
  404b40:	afc20010 	sw	v0,16(s8)
  404b44:	1000003d 	b	404c3c <file_block_walk+0x14c>
  404b48:	00000000 	nop
/home/git/21373271/21373271/fs/fs.c:371
  404b4c:	8fc2002c 	lw	v0,44(s8)
  404b50:	00000000 	nop
  404b54:	2c420400 	sltiu	v0,v0,1024
  404b58:	10400035 	beqz	v0,404c30 <file_block_walk+0x140>
  404b5c:	00000000 	nop
/home/git/21373271/21373271/fs/fs.c:374
  404b60:	8fc20028 	lw	v0,40(s8)
  404b64:	00000000 	nop
  404b68:	8c4200b0 	lw	v0,176(v0)
  404b6c:	00000000 	nop
  404b70:	14400016 	bnez	v0,404bcc <file_block_walk+0xdc>
  404b74:	00000000 	nop
/home/git/21373271/21373271/fs/fs.c:375
  404b78:	8fc20034 	lw	v0,52(s8)
  404b7c:	00000000 	nop
  404b80:	14400004 	bnez	v0,404b94 <file_block_walk+0xa4>
  404b84:	00000000 	nop
/home/git/21373271/21373271/fs/fs.c:376
  404b88:	2402fff6 	li	v0,-10
  404b8c:	10000030 	b	404c50 <file_block_walk+0x160>
  404b90:	00000000 	nop
/home/git/21373271/21373271/fs/fs.c:379
  404b94:	0c10114b 	jal	40452c <alloc_block>
  404b98:	00000000 	nop
  404b9c:	afc20014 	sw	v0,20(s8)
  404ba0:	8fc20014 	lw	v0,20(s8)
  404ba4:	00000000 	nop
  404ba8:	04410004 	bgez	v0,404bbc <file_block_walk+0xcc>
  404bac:	00000000 	nop
/home/git/21373271/21373271/fs/fs.c:380
  404bb0:	8fc20014 	lw	v0,20(s8)
  404bb4:	10000026 	b	404c50 <file_block_walk+0x160>
  404bb8:	00000000 	nop
/home/git/21373271/21373271/fs/fs.c:382
  404bbc:	8fc30014 	lw	v1,20(s8)
  404bc0:	8fc20028 	lw	v0,40(s8)
  404bc4:	00000000 	nop
  404bc8:	ac4300b0 	sw	v1,176(v0)
/home/git/21373271/21373271/fs/fs.c:386
  404bcc:	8fc20028 	lw	v0,40(s8)
  404bd0:	00000000 	nop
  404bd4:	8c4200b0 	lw	v0,176(v0)
  404bd8:	27c30018 	addiu	v1,s8,24
  404bdc:	00003025 	move	a2,zero
  404be0:	00602825 	move	a1,v1
  404be4:	00402025 	move	a0,v0
  404be8:	0c100fd1 	jal	403f44 <read_block>
  404bec:	00000000 	nop
  404bf0:	afc20014 	sw	v0,20(s8)
  404bf4:	8fc20014 	lw	v0,20(s8)
  404bf8:	00000000 	nop
  404bfc:	04410004 	bgez	v0,404c10 <file_block_walk+0x120>
  404c00:	00000000 	nop
/home/git/21373271/21373271/fs/fs.c:387
  404c04:	8fc20014 	lw	v0,20(s8)
  404c08:	10000011 	b	404c50 <file_block_walk+0x160>
  404c0c:	00000000 	nop
/home/git/21373271/21373271/fs/fs.c:389
  404c10:	8fc30018 	lw	v1,24(s8)
  404c14:	8fc2002c 	lw	v0,44(s8)
  404c18:	00000000 	nop
  404c1c:	00021080 	sll	v0,v0,0x2
  404c20:	00621021 	addu	v0,v1,v0
  404c24:	afc20010 	sw	v0,16(s8)
  404c28:	10000004 	b	404c3c <file_block_walk+0x14c>
  404c2c:	00000000 	nop
/home/git/21373271/21373271/fs/fs.c:391
  404c30:	2402fffd 	li	v0,-3
  404c34:	10000006 	b	404c50 <file_block_walk+0x160>
  404c38:	00000000 	nop
/home/git/21373271/21373271/fs/fs.c:395
  404c3c:	8fc20030 	lw	v0,48(s8)
  404c40:	8fc30010 	lw	v1,16(s8)
  404c44:	00000000 	nop
  404c48:	ac430000 	sw	v1,0(v0)
/home/git/21373271/21373271/fs/fs.c:396
  404c4c:	00001025 	move	v0,zero
/home/git/21373271/21373271/fs/fs.c:397 (discriminator 1)
  404c50:	03c0e825 	move	sp,s8
  404c54:	8fbf0024 	lw	ra,36(sp)
  404c58:	8fbe0020 	lw	s8,32(sp)
  404c5c:	27bd0028 	addiu	sp,sp,40
  404c60:	03e00008 	jr	ra
  404c64:	00000000 	nop

00404c68 <file_map_block>:
file_map_block():
/home/git/21373271/21373271/fs/fs.c:410
  404c68:	27bdffe0 	addiu	sp,sp,-32
  404c6c:	afbf001c 	sw	ra,28(sp)
  404c70:	afbe0018 	sw	s8,24(sp)
  404c74:	03a0f025 	move	s8,sp
  404c78:	afc40020 	sw	a0,32(s8)
  404c7c:	afc50024 	sw	a1,36(s8)
  404c80:	afc60028 	sw	a2,40(s8)
  404c84:	afc7002c 	sw	a3,44(s8)
/home/git/21373271/21373271/fs/fs.c:415
  404c88:	27c20014 	addiu	v0,s8,20
  404c8c:	8fc7002c 	lw	a3,44(s8)
  404c90:	00403025 	move	a2,v0
  404c94:	8fc50024 	lw	a1,36(s8)
  404c98:	8fc40020 	lw	a0,32(s8)
  404c9c:	0c1012bc 	jal	404af0 <file_block_walk>
  404ca0:	00000000 	nop
  404ca4:	afc20010 	sw	v0,16(s8)
  404ca8:	8fc20010 	lw	v0,16(s8)
  404cac:	00000000 	nop
  404cb0:	04410004 	bgez	v0,404cc4 <file_map_block+0x5c>
  404cb4:	00000000 	nop
/home/git/21373271/21373271/fs/fs.c:416
  404cb8:	8fc20010 	lw	v0,16(s8)
  404cbc:	10000023 	b	404d4c <file_map_block+0xe4>
  404cc0:	00000000 	nop
/home/git/21373271/21373271/fs/fs.c:420
  404cc4:	8fc20014 	lw	v0,20(s8)
  404cc8:	00000000 	nop
  404ccc:	8c420000 	lw	v0,0(v0)
  404cd0:	00000000 	nop
  404cd4:	14400016 	bnez	v0,404d30 <file_map_block+0xc8>
  404cd8:	00000000 	nop
/home/git/21373271/21373271/fs/fs.c:421
  404cdc:	8fc2002c 	lw	v0,44(s8)
  404ce0:	00000000 	nop
  404ce4:	14400004 	bnez	v0,404cf8 <file_map_block+0x90>
  404ce8:	00000000 	nop
/home/git/21373271/21373271/fs/fs.c:422
  404cec:	2402fff6 	li	v0,-10
  404cf0:	10000016 	b	404d4c <file_map_block+0xe4>
  404cf4:	00000000 	nop
/home/git/21373271/21373271/fs/fs.c:425
  404cf8:	0c10114b 	jal	40452c <alloc_block>
  404cfc:	00000000 	nop
  404d00:	afc20010 	sw	v0,16(s8)
  404d04:	8fc20010 	lw	v0,16(s8)
  404d08:	00000000 	nop
  404d0c:	04410004 	bgez	v0,404d20 <file_map_block+0xb8>
  404d10:	00000000 	nop
/home/git/21373271/21373271/fs/fs.c:426
  404d14:	8fc20010 	lw	v0,16(s8)
  404d18:	1000000c 	b	404d4c <file_map_block+0xe4>
  404d1c:	00000000 	nop
/home/git/21373271/21373271/fs/fs.c:428
  404d20:	8fc20014 	lw	v0,20(s8)
  404d24:	8fc30010 	lw	v1,16(s8)
  404d28:	00000000 	nop
  404d2c:	ac430000 	sw	v1,0(v0)
/home/git/21373271/21373271/fs/fs.c:432
  404d30:	8fc20014 	lw	v0,20(s8)
  404d34:	00000000 	nop
  404d38:	8c430000 	lw	v1,0(v0)
  404d3c:	8fc20028 	lw	v0,40(s8)
  404d40:	00000000 	nop
  404d44:	ac430000 	sw	v1,0(v0)
/home/git/21373271/21373271/fs/fs.c:433
  404d48:	00001025 	move	v0,zero
/home/git/21373271/21373271/fs/fs.c:434 (discriminator 1)
  404d4c:	03c0e825 	move	sp,s8
  404d50:	8fbf001c 	lw	ra,28(sp)
  404d54:	8fbe0018 	lw	s8,24(sp)
  404d58:	27bd0020 	addiu	sp,sp,32
  404d5c:	03e00008 	jr	ra
  404d60:	00000000 	nop

00404d64 <file_clear_block>:
file_clear_block():
/home/git/21373271/21373271/fs/fs.c:438
  404d64:	27bdffe0 	addiu	sp,sp,-32
  404d68:	afbf001c 	sw	ra,28(sp)
  404d6c:	afbe0018 	sw	s8,24(sp)
  404d70:	03a0f025 	move	s8,sp
  404d74:	afc40020 	sw	a0,32(s8)
  404d78:	afc50024 	sw	a1,36(s8)
/home/git/21373271/21373271/fs/fs.c:442
  404d7c:	27c20014 	addiu	v0,s8,20
  404d80:	00003825 	move	a3,zero
  404d84:	00403025 	move	a2,v0
  404d88:	8fc50024 	lw	a1,36(s8)
  404d8c:	8fc40020 	lw	a0,32(s8)
  404d90:	0c1012bc 	jal	404af0 <file_block_walk>
  404d94:	00000000 	nop
  404d98:	afc20010 	sw	v0,16(s8)
  404d9c:	8fc20010 	lw	v0,16(s8)
  404da0:	00000000 	nop
  404da4:	04410004 	bgez	v0,404db8 <file_clear_block+0x54>
  404da8:	00000000 	nop
/home/git/21373271/21373271/fs/fs.c:443
  404dac:	8fc20010 	lw	v0,16(s8)
  404db0:	10000012 	b	404dfc <file_clear_block+0x98>
  404db4:	00000000 	nop
/home/git/21373271/21373271/fs/fs.c:446
  404db8:	8fc20014 	lw	v0,20(s8)
  404dbc:	00000000 	nop
  404dc0:	8c420000 	lw	v0,0(v0)
  404dc4:	00000000 	nop
  404dc8:	1040000b 	beqz	v0,404df8 <file_clear_block+0x94>
  404dcc:	00000000 	nop
/home/git/21373271/21373271/fs/fs.c:447
  404dd0:	8fc20014 	lw	v0,20(s8)
  404dd4:	00000000 	nop
  404dd8:	8c420000 	lw	v0,0(v0)
  404ddc:	00000000 	nop
  404de0:	00402025 	move	a0,v0
  404de4:	0c1010b2 	jal	4042c8 <free_block>
  404de8:	00000000 	nop
/home/git/21373271/21373271/fs/fs.c:448
  404dec:	8fc20014 	lw	v0,20(s8)
  404df0:	00000000 	nop
  404df4:	ac400000 	sw	zero,0(v0)
/home/git/21373271/21373271/fs/fs.c:451
  404df8:	00001025 	move	v0,zero
/home/git/21373271/21373271/fs/fs.c:452 (discriminator 1)
  404dfc:	03c0e825 	move	sp,s8
  404e00:	8fbf001c 	lw	ra,28(sp)
  404e04:	8fbe0018 	lw	s8,24(sp)
  404e08:	27bd0020 	addiu	sp,sp,32
  404e0c:	03e00008 	jr	ra
  404e10:	00000000 	nop

00404e14 <file_get_block>:
file_get_block():
/home/git/21373271/21373271/fs/fs.c:461
  404e14:	27bdffd8 	addiu	sp,sp,-40
  404e18:	afbf0024 	sw	ra,36(sp)
  404e1c:	afbe0020 	sw	s8,32(sp)
  404e20:	03a0f025 	move	s8,sp
  404e24:	afc40028 	sw	a0,40(s8)
  404e28:	afc5002c 	sw	a1,44(s8)
  404e2c:	afc60030 	sw	a2,48(s8)
/home/git/21373271/21373271/fs/fs.c:467
  404e30:	27c20014 	addiu	v0,s8,20
  404e34:	24070001 	li	a3,1
  404e38:	00403025 	move	a2,v0
  404e3c:	8fc5002c 	lw	a1,44(s8)
  404e40:	8fc40028 	lw	a0,40(s8)
  404e44:	0c10131a 	jal	404c68 <file_map_block>
  404e48:	00000000 	nop
  404e4c:	afc20010 	sw	v0,16(s8)
  404e50:	8fc20010 	lw	v0,16(s8)
  404e54:	00000000 	nop
  404e58:	04410004 	bgez	v0,404e6c <file_get_block+0x58>
  404e5c:	00000000 	nop
/home/git/21373271/21373271/fs/fs.c:468
  404e60:	8fc20010 	lw	v0,16(s8)
  404e64:	10000011 	b	404eac <file_get_block+0x98>
  404e68:	00000000 	nop
/home/git/21373271/21373271/fs/fs.c:472
  404e6c:	8fc20014 	lw	v0,20(s8)
  404e70:	27c30018 	addiu	v1,s8,24
  404e74:	00603025 	move	a2,v1
  404e78:	8fc50030 	lw	a1,48(s8)
  404e7c:	00402025 	move	a0,v0
  404e80:	0c100fd1 	jal	403f44 <read_block>
  404e84:	00000000 	nop
  404e88:	afc20010 	sw	v0,16(s8)
  404e8c:	8fc20010 	lw	v0,16(s8)
  404e90:	00000000 	nop
  404e94:	04410004 	bgez	v0,404ea8 <file_get_block+0x94>
  404e98:	00000000 	nop
/home/git/21373271/21373271/fs/fs.c:473
  404e9c:	8fc20010 	lw	v0,16(s8)
  404ea0:	10000002 	b	404eac <file_get_block+0x98>
  404ea4:	00000000 	nop
/home/git/21373271/21373271/fs/fs.c:475
  404ea8:	00001025 	move	v0,zero
/home/git/21373271/21373271/fs/fs.c:476 (discriminator 1)
  404eac:	03c0e825 	move	sp,s8
  404eb0:	8fbf0024 	lw	ra,36(sp)
  404eb4:	8fbe0020 	lw	s8,32(sp)
  404eb8:	27bd0028 	addiu	sp,sp,40
  404ebc:	03e00008 	jr	ra
  404ec0:	00000000 	nop

00404ec4 <file_dirty>:
file_dirty():
/home/git/21373271/21373271/fs/fs.c:480
  404ec4:	27bdffe0 	addiu	sp,sp,-32
  404ec8:	afbf001c 	sw	ra,28(sp)
  404ecc:	afbe0018 	sw	s8,24(sp)
  404ed0:	03a0f025 	move	s8,sp
  404ed4:	afc40020 	sw	a0,32(s8)
  404ed8:	afc50024 	sw	a1,36(s8)
/home/git/21373271/21373271/fs/fs.c:484
  404edc:	8fc20024 	lw	v0,36(s8)
  404ee0:	00000000 	nop
  404ee4:	00021302 	srl	v0,v0,0xc
  404ee8:	27c30014 	addiu	v1,s8,20
  404eec:	00003825 	move	a3,zero
  404ef0:	00603025 	move	a2,v1
  404ef4:	00402825 	move	a1,v0
  404ef8:	8fc40020 	lw	a0,32(s8)
  404efc:	0c10131a 	jal	404c68 <file_map_block>
  404f00:	00000000 	nop
  404f04:	afc20010 	sw	v0,16(s8)
  404f08:	8fc20010 	lw	v0,16(s8)
  404f0c:	00000000 	nop
  404f10:	04410004 	bgez	v0,404f24 <file_dirty+0x60>
  404f14:	00000000 	nop
/home/git/21373271/21373271/fs/fs.c:485
  404f18:	8fc20010 	lw	v0,16(s8)
  404f1c:	10000006 	b	404f38 <file_dirty+0x74>
  404f20:	00000000 	nop
/home/git/21373271/21373271/fs/fs.c:488
  404f24:	8fc20014 	lw	v0,20(s8)
  404f28:	00000000 	nop
  404f2c:	00402025 	move	a0,v0
  404f30:	0c100f84 	jal	403e10 <dirty_block>
  404f34:	00000000 	nop
/home/git/21373271/21373271/fs/fs.c:489 (discriminator 1)
  404f38:	03c0e825 	move	sp,s8
  404f3c:	8fbf001c 	lw	ra,28(sp)
  404f40:	8fbe0018 	lw	s8,24(sp)
  404f44:	27bd0020 	addiu	sp,sp,32
  404f48:	03e00008 	jr	ra
  404f4c:	00000000 	nop

00404f50 <dir_lookup>:
dir_lookup():
/home/git/21373271/21373271/fs/fs.c:497
  404f50:	27bdffd0 	addiu	sp,sp,-48
  404f54:	afbf002c 	sw	ra,44(sp)
  404f58:	afbe0028 	sw	s8,40(sp)
  404f5c:	03a0f025 	move	s8,sp
  404f60:	afc40030 	sw	a0,48(s8)
  404f64:	afc50034 	sw	a1,52(s8)
  404f68:	afc60038 	sw	a2,56(s8)
/home/git/21373271/21373271/fs/fs.c:500
  404f6c:	8fc20030 	lw	v0,48(s8)
  404f70:	00000000 	nop
  404f74:	8c420080 	lw	v0,128(v0)
  404f78:	00000000 	nop
  404f7c:	24420fff 	addiu	v0,v0,4095
  404f80:	00021302 	srl	v0,v0,0xc
  404f84:	afc20018 	sw	v0,24(s8)
/home/git/21373271/21373271/fs/fs.c:504
  404f88:	afc00010 	sw	zero,16(s8)
  404f8c:	1000003a 	b	405078 <dir_lookup+0x128>
  404f90:	00000000 	nop
/home/git/21373271/21373271/fs/fs.c:508
  404f94:	8fc20010 	lw	v0,16(s8)
  404f98:	27c30024 	addiu	v1,s8,36
  404f9c:	00603025 	move	a2,v1
  404fa0:	00402825 	move	a1,v0
  404fa4:	8fc40030 	lw	a0,48(s8)
  404fa8:	0c101385 	jal	404e14 <file_get_block>
  404fac:	00000000 	nop
  404fb0:	afc2001c 	sw	v0,28(s8)
  404fb4:	8fc2001c 	lw	v0,28(s8)
  404fb8:	00000000 	nop
  404fbc:	04410004 	bgez	v0,404fd0 <dir_lookup+0x80>
  404fc0:	00000000 	nop
/home/git/21373271/21373271/fs/fs.c:509
  404fc4:	8fc2001c 	lw	v0,28(s8)
  404fc8:	10000032 	b	405094 <dir_lookup+0x144>
  404fcc:	00000000 	nop
/home/git/21373271/21373271/fs/fs.c:511
  404fd0:	8fc20024 	lw	v0,36(s8)
  404fd4:	00000000 	nop
  404fd8:	afc20020 	sw	v0,32(s8)
/home/git/21373271/21373271/fs/fs.c:514
  404fdc:	8fc20020 	lw	v0,32(s8)
  404fe0:	00000000 	nop
  404fe4:	afc20014 	sw	v0,20(s8)
  404fe8:	10000017 	b	405048 <dir_lookup+0xf8>
  404fec:	00000000 	nop
/home/git/21373271/21373271/fs/fs.c:519
  404ff0:	8fc20014 	lw	v0,20(s8)
  404ff4:	8fc50034 	lw	a1,52(s8)
  404ff8:	00402025 	move	a0,v0
  404ffc:	0c101e10 	jal	407840 <strcmp>
  405000:	00000000 	nop
  405004:	1440000c 	bnez	v0,405038 <dir_lookup+0xe8>
  405008:	00000000 	nop
/home/git/21373271/21373271/fs/fs.c:520
  40500c:	8fc20038 	lw	v0,56(s8)
  405010:	8fc30014 	lw	v1,20(s8)
  405014:	00000000 	nop
  405018:	ac430000 	sw	v1,0(v0)
/home/git/21373271/21373271/fs/fs.c:521
  40501c:	8fc20014 	lw	v0,20(s8)
  405020:	8fc30030 	lw	v1,48(s8)
  405024:	00000000 	nop
  405028:	ac4300b4 	sw	v1,180(v0)
/home/git/21373271/21373271/fs/fs.c:522
  40502c:	00001025 	move	v0,zero
  405030:	10000018 	b	405094 <dir_lookup+0x144>
  405034:	00000000 	nop
/home/git/21373271/21373271/fs/fs.c:514 (discriminator 2)
  405038:	8fc20014 	lw	v0,20(s8)
  40503c:	00000000 	nop
  405040:	24420100 	addiu	v0,v0,256
  405044:	afc20014 	sw	v0,20(s8)
/home/git/21373271/21373271/fs/fs.c:514 (discriminator 1)
  405048:	8fc20020 	lw	v0,32(s8)
  40504c:	00000000 	nop
  405050:	24421000 	addiu	v0,v0,4096
  405054:	8fc30014 	lw	v1,20(s8)
  405058:	00000000 	nop
  40505c:	0062102b 	sltu	v0,v1,v0
  405060:	1440ffe3 	bnez	v0,404ff0 <dir_lookup+0xa0>
  405064:	00000000 	nop
/home/git/21373271/21373271/fs/fs.c:504
  405068:	8fc20010 	lw	v0,16(s8)
  40506c:	00000000 	nop
  405070:	24420001 	addiu	v0,v0,1
  405074:	afc20010 	sw	v0,16(s8)
/home/git/21373271/21373271/fs/fs.c:504 (discriminator 1)
  405078:	8fc20010 	lw	v0,16(s8)
  40507c:	8fc30018 	lw	v1,24(s8)
  405080:	00000000 	nop
  405084:	0043102b 	sltu	v0,v0,v1
  405088:	1440ffc2 	bnez	v0,404f94 <dir_lookup+0x44>
  40508c:	00000000 	nop
/home/git/21373271/21373271/fs/fs.c:526
  405090:	2402fff6 	li	v0,-10
/home/git/21373271/21373271/fs/fs.c:527
  405094:	03c0e825 	move	sp,s8
  405098:	8fbf002c 	lw	ra,44(sp)
  40509c:	8fbe0028 	lw	s8,40(sp)
  4050a0:	27bd0030 	addiu	sp,sp,48
  4050a4:	03e00008 	jr	ra
  4050a8:	00000000 	nop

004050ac <dir_alloc_file>:
dir_alloc_file():
/home/git/21373271/21373271/fs/fs.c:532
  4050ac:	27bdffd0 	addiu	sp,sp,-48
  4050b0:	afbf002c 	sw	ra,44(sp)
  4050b4:	afbe0028 	sw	s8,40(sp)
  4050b8:	03a0f025 	move	s8,sp
  4050bc:	afc40030 	sw	a0,48(s8)
  4050c0:	afc50034 	sw	a1,52(s8)
/home/git/21373271/21373271/fs/fs.c:538
  4050c4:	8fc20030 	lw	v0,48(s8)
  4050c8:	00000000 	nop
  4050cc:	8c420080 	lw	v0,128(v0)
  4050d0:	00000000 	nop
  4050d4:	00021302 	srl	v0,v0,0xc
  4050d8:	afc20018 	sw	v0,24(s8)
/home/git/21373271/21373271/fs/fs.c:540
  4050dc:	afc00010 	sw	zero,16(s8)
  4050e0:	10000038 	b	4051c4 <dir_alloc_file+0x118>
  4050e4:	00000000 	nop
/home/git/21373271/21373271/fs/fs.c:542
  4050e8:	27c20024 	addiu	v0,s8,36
  4050ec:	00403025 	move	a2,v0
  4050f0:	8fc50010 	lw	a1,16(s8)
  4050f4:	8fc40030 	lw	a0,48(s8)
  4050f8:	0c101385 	jal	404e14 <file_get_block>
  4050fc:	00000000 	nop
  405100:	afc2001c 	sw	v0,28(s8)
  405104:	8fc2001c 	lw	v0,28(s8)
  405108:	00000000 	nop
  40510c:	04410004 	bgez	v0,405120 <dir_alloc_file+0x74>
  405110:	00000000 	nop
/home/git/21373271/21373271/fs/fs.c:543
  405114:	8fc2001c 	lw	v0,28(s8)
  405118:	1000004e 	b	405254 <dir_alloc_file+0x1a8>
  40511c:	00000000 	nop
/home/git/21373271/21373271/fs/fs.c:546
  405120:	8fc20024 	lw	v0,36(s8)
  405124:	00000000 	nop
  405128:	afc20020 	sw	v0,32(s8)
/home/git/21373271/21373271/fs/fs.c:548
  40512c:	afc00014 	sw	zero,20(s8)
  405130:	1000001b 	b	4051a0 <dir_alloc_file+0xf4>
  405134:	00000000 	nop
/home/git/21373271/21373271/fs/fs.c:549
  405138:	8fc20014 	lw	v0,20(s8)
  40513c:	00000000 	nop
  405140:	00021200 	sll	v0,v0,0x8
  405144:	8fc30020 	lw	v1,32(s8)
  405148:	00000000 	nop
  40514c:	00621021 	addu	v0,v1,v0
  405150:	80420000 	lb	v0,0(v0)
  405154:	00000000 	nop
  405158:	1440000d 	bnez	v0,405190 <dir_alloc_file+0xe4>
  40515c:	00000000 	nop
/home/git/21373271/21373271/fs/fs.c:550
  405160:	8fc20014 	lw	v0,20(s8)
  405164:	00000000 	nop
  405168:	00021200 	sll	v0,v0,0x8
  40516c:	8fc30020 	lw	v1,32(s8)
  405170:	00000000 	nop
  405174:	00621821 	addu	v1,v1,v0
  405178:	8fc20034 	lw	v0,52(s8)
  40517c:	00000000 	nop
  405180:	ac430000 	sw	v1,0(v0)
/home/git/21373271/21373271/fs/fs.c:551
  405184:	00001025 	move	v0,zero
  405188:	10000032 	b	405254 <dir_alloc_file+0x1a8>
  40518c:	00000000 	nop
/home/git/21373271/21373271/fs/fs.c:548 (discriminator 2)
  405190:	8fc20014 	lw	v0,20(s8)
  405194:	00000000 	nop
  405198:	24420001 	addiu	v0,v0,1
  40519c:	afc20014 	sw	v0,20(s8)
/home/git/21373271/21373271/fs/fs.c:548 (discriminator 1)
  4051a0:	8fc20014 	lw	v0,20(s8)
  4051a4:	00000000 	nop
  4051a8:	2c420010 	sltiu	v0,v0,16
  4051ac:	1440ffe2 	bnez	v0,405138 <dir_alloc_file+0x8c>
  4051b0:	00000000 	nop
/home/git/21373271/21373271/fs/fs.c:540 (discriminator 2)
  4051b4:	8fc20010 	lw	v0,16(s8)
  4051b8:	00000000 	nop
  4051bc:	24420001 	addiu	v0,v0,1
  4051c0:	afc20010 	sw	v0,16(s8)
/home/git/21373271/21373271/fs/fs.c:540 (discriminator 1)
  4051c4:	8fc30010 	lw	v1,16(s8)
  4051c8:	8fc20018 	lw	v0,24(s8)
  4051cc:	00000000 	nop
  4051d0:	0062102b 	sltu	v0,v1,v0
  4051d4:	1440ffc4 	bnez	v0,4050e8 <dir_alloc_file+0x3c>
  4051d8:	00000000 	nop
/home/git/21373271/21373271/fs/fs.c:558
  4051dc:	8fc20030 	lw	v0,48(s8)
  4051e0:	00000000 	nop
  4051e4:	8c420080 	lw	v0,128(v0)
  4051e8:	00000000 	nop
  4051ec:	24431000 	addiu	v1,v0,4096
  4051f0:	8fc20030 	lw	v0,48(s8)
  4051f4:	00000000 	nop
  4051f8:	ac430080 	sw	v1,128(v0)
/home/git/21373271/21373271/fs/fs.c:559
  4051fc:	27c20024 	addiu	v0,s8,36
  405200:	00403025 	move	a2,v0
  405204:	8fc50010 	lw	a1,16(s8)
  405208:	8fc40030 	lw	a0,48(s8)
  40520c:	0c101385 	jal	404e14 <file_get_block>
  405210:	00000000 	nop
  405214:	afc2001c 	sw	v0,28(s8)
  405218:	8fc2001c 	lw	v0,28(s8)
  40521c:	00000000 	nop
  405220:	04410004 	bgez	v0,405234 <dir_alloc_file+0x188>
  405224:	00000000 	nop
/home/git/21373271/21373271/fs/fs.c:560
  405228:	8fc2001c 	lw	v0,28(s8)
  40522c:	10000009 	b	405254 <dir_alloc_file+0x1a8>
  405230:	00000000 	nop
/home/git/21373271/21373271/fs/fs.c:562
  405234:	8fc20024 	lw	v0,36(s8)
  405238:	00000000 	nop
  40523c:	afc20020 	sw	v0,32(s8)
/home/git/21373271/21373271/fs/fs.c:563
  405240:	8fc20034 	lw	v0,52(s8)
  405244:	8fc30020 	lw	v1,32(s8)
  405248:	00000000 	nop
  40524c:	ac430000 	sw	v1,0(v0)
/home/git/21373271/21373271/fs/fs.c:565
  405250:	00001025 	move	v0,zero
/home/git/21373271/21373271/fs/fs.c:566 (discriminator 1)
  405254:	03c0e825 	move	sp,s8
  405258:	8fbf002c 	lw	ra,44(sp)
  40525c:	8fbe0028 	lw	s8,40(sp)
  405260:	27bd0030 	addiu	sp,sp,48
  405264:	03e00008 	jr	ra
  405268:	00000000 	nop

0040526c <skip_slash>:
skip_slash():
/home/git/21373271/21373271/fs/fs.c:570
  40526c:	27bdfff8 	addiu	sp,sp,-8
  405270:	afbe0004 	sw	s8,4(sp)
  405274:	03a0f025 	move	s8,sp
  405278:	afc40008 	sw	a0,8(s8)
/home/git/21373271/21373271/fs/fs.c:571
  40527c:	10000005 	b	405294 <skip_slash+0x28>
  405280:	00000000 	nop
/home/git/21373271/21373271/fs/fs.c:572
  405284:	8fc20008 	lw	v0,8(s8)
  405288:	00000000 	nop
  40528c:	24420001 	addiu	v0,v0,1
  405290:	afc20008 	sw	v0,8(s8)
/home/git/21373271/21373271/fs/fs.c:571
  405294:	8fc20008 	lw	v0,8(s8)
  405298:	00000000 	nop
  40529c:	80430000 	lb	v1,0(v0)
  4052a0:	2402002f 	li	v0,47
  4052a4:	1062fff7 	beq	v1,v0,405284 <skip_slash+0x18>
  4052a8:	00000000 	nop
/home/git/21373271/21373271/fs/fs.c:574
  4052ac:	8fc20008 	lw	v0,8(s8)
/home/git/21373271/21373271/fs/fs.c:575
  4052b0:	03c0e825 	move	sp,s8
  4052b4:	8fbe0004 	lw	s8,4(sp)
  4052b8:	27bd0008 	addiu	sp,sp,8
  4052bc:	03e00008 	jr	ra
  4052c0:	00000000 	nop

004052c4 <walk_path>:
walk_path():
/home/git/21373271/21373271/fs/fs.c:585
  4052c4:	27bdff58 	addiu	sp,sp,-168
  4052c8:	afbf00a4 	sw	ra,164(sp)
  4052cc:	afbe00a0 	sw	s8,160(sp)
  4052d0:	03a0f025 	move	s8,sp
  4052d4:	afc400a8 	sw	a0,168(s8)
  4052d8:	afc500ac 	sw	a1,172(s8)
  4052dc:	afc600b0 	sw	a2,176(s8)
  4052e0:	afc700b4 	sw	a3,180(s8)
/home/git/21373271/21373271/fs/fs.c:592
  4052e4:	8fc400a8 	lw	a0,168(s8)
  4052e8:	0c10149b 	jal	40526c <skip_slash>
  4052ec:	00000000 	nop
  4052f0:	afc200a8 	sw	v0,168(s8)
/home/git/21373271/21373271/fs/fs.c:593
  4052f4:	3c020041 	lui	v0,0x41
  4052f8:	8c42b010 	lw	v0,-20464(v0)
  4052fc:	00000000 	nop
  405300:	24420008 	addiu	v0,v0,8
  405304:	afc2009c 	sw	v0,156(s8)
/home/git/21373271/21373271/fs/fs.c:594
  405308:	afc00010 	sw	zero,16(s8)
/home/git/21373271/21373271/fs/fs.c:595
  40530c:	a3c0001c 	sb	zero,28(s8)
/home/git/21373271/21373271/fs/fs.c:597
  405310:	8fc200ac 	lw	v0,172(s8)
  405314:	00000000 	nop
  405318:	10400004 	beqz	v0,40532c <walk_path+0x68>
  40531c:	00000000 	nop
/home/git/21373271/21373271/fs/fs.c:598
  405320:	8fc200ac 	lw	v0,172(s8)
  405324:	00000000 	nop
  405328:	ac400000 	sw	zero,0(v0)
/home/git/21373271/21373271/fs/fs.c:601
  40532c:	8fc200b0 	lw	v0,176(s8)
  405330:	00000000 	nop
  405334:	ac400000 	sw	zero,0(v0)
/home/git/21373271/21373271/fs/fs.c:604
  405338:	1000006e 	b	4054f4 <walk_path+0x230>
  40533c:	00000000 	nop
/home/git/21373271/21373271/fs/fs.c:605
  405340:	8fc2009c 	lw	v0,156(s8)
  405344:	00000000 	nop
  405348:	afc20010 	sw	v0,16(s8)
/home/git/21373271/21373271/fs/fs.c:606
  40534c:	8fc200a8 	lw	v0,168(s8)
  405350:	00000000 	nop
  405354:	afc20014 	sw	v0,20(s8)
/home/git/21373271/21373271/fs/fs.c:608
  405358:	10000005 	b	405370 <walk_path+0xac>
  40535c:	00000000 	nop
/home/git/21373271/21373271/fs/fs.c:609
  405360:	8fc200a8 	lw	v0,168(s8)
  405364:	00000000 	nop
  405368:	24420001 	addiu	v0,v0,1
  40536c:	afc200a8 	sw	v0,168(s8)
/home/git/21373271/21373271/fs/fs.c:608
  405370:	8fc200a8 	lw	v0,168(s8)
  405374:	00000000 	nop
  405378:	80430000 	lb	v1,0(v0)
  40537c:	2402002f 	li	v0,47
  405380:	10620007 	beq	v1,v0,4053a0 <walk_path+0xdc>
  405384:	00000000 	nop
/home/git/21373271/21373271/fs/fs.c:608 (discriminator 1)
  405388:	8fc200a8 	lw	v0,168(s8)
  40538c:	00000000 	nop
  405390:	80420000 	lb	v0,0(v0)
  405394:	00000000 	nop
  405398:	1440fff1 	bnez	v0,405360 <walk_path+0x9c>
  40539c:	00000000 	nop
/home/git/21373271/21373271/fs/fs.c:612
  4053a0:	8fc300a8 	lw	v1,168(s8)
  4053a4:	8fc20014 	lw	v0,20(s8)
  4053a8:	00000000 	nop
  4053ac:	00621023 	subu	v0,v1,v0
  4053b0:	28420080 	slti	v0,v0,128
  4053b4:	14400004 	bnez	v0,4053c8 <walk_path+0x104>
  4053b8:	00000000 	nop
/home/git/21373271/21373271/fs/fs.c:613
  4053bc:	2402fff5 	li	v0,-11
  4053c0:	1000005f 	b	405540 <walk_path+0x27c>
  4053c4:	00000000 	nop
/home/git/21373271/21373271/fs/fs.c:616
  4053c8:	8fc300a8 	lw	v1,168(s8)
  4053cc:	8fc20014 	lw	v0,20(s8)
  4053d0:	00000000 	nop
  4053d4:	00621023 	subu	v0,v1,v0
  4053d8:	27c3001c 	addiu	v1,s8,28
  4053dc:	00403025 	move	a2,v0
  4053e0:	8fc50014 	lw	a1,20(s8)
  4053e4:	00602025 	move	a0,v1
  4053e8:	0c101ce8 	jal	4073a0 <memcpy>
  4053ec:	00000000 	nop
/home/git/21373271/21373271/fs/fs.c:617
  4053f0:	8fc300a8 	lw	v1,168(s8)
  4053f4:	8fc20014 	lw	v0,20(s8)
  4053f8:	00000000 	nop
  4053fc:	00621023 	subu	v0,v1,v0
  405400:	27c30010 	addiu	v1,s8,16
  405404:	00621021 	addu	v0,v1,v0
  405408:	a040000c 	sb	zero,12(v0)
/home/git/21373271/21373271/fs/fs.c:618
  40540c:	8fc400a8 	lw	a0,168(s8)
  405410:	0c10149b 	jal	40526c <skip_slash>
  405414:	00000000 	nop
  405418:	afc200a8 	sw	v0,168(s8)
/home/git/21373271/21373271/fs/fs.c:619
  40541c:	8fc20010 	lw	v0,16(s8)
  405420:	00000000 	nop
  405424:	8c430084 	lw	v1,132(v0)
  405428:	24020001 	li	v0,1
  40542c:	10620004 	beq	v1,v0,405440 <walk_path+0x17c>
  405430:	00000000 	nop
/home/git/21373271/21373271/fs/fs.c:620
  405434:	2402fff6 	li	v0,-10
  405438:	10000041 	b	405540 <walk_path+0x27c>
  40543c:	00000000 	nop
/home/git/21373271/21373271/fs/fs.c:623
  405440:	27c3009c 	addiu	v1,s8,156
  405444:	27c2001c 	addiu	v0,s8,28
  405448:	00603025 	move	a2,v1
  40544c:	00402825 	move	a1,v0
  405450:	8fc40010 	lw	a0,16(s8)
  405454:	0c1013d4 	jal	404f50 <dir_lookup>
  405458:	00000000 	nop
  40545c:	afc20018 	sw	v0,24(s8)
  405460:	8fc20018 	lw	v0,24(s8)
  405464:	00000000 	nop
  405468:	04410022 	bgez	v0,4054f4 <walk_path+0x230>
  40546c:	00000000 	nop
/home/git/21373271/21373271/fs/fs.c:624
  405470:	8fc30018 	lw	v1,24(s8)
  405474:	2402fff6 	li	v0,-10
  405478:	1462001b 	bne	v1,v0,4054e8 <walk_path+0x224>
  40547c:	00000000 	nop
/home/git/21373271/21373271/fs/fs.c:624 (discriminator 1)
  405480:	8fc200a8 	lw	v0,168(s8)
  405484:	00000000 	nop
  405488:	80420000 	lb	v0,0(v0)
  40548c:	00000000 	nop
  405490:	14400015 	bnez	v0,4054e8 <walk_path+0x224>
  405494:	00000000 	nop
/home/git/21373271/21373271/fs/fs.c:625
  405498:	8fc200ac 	lw	v0,172(s8)
  40549c:	00000000 	nop
  4054a0:	10400005 	beqz	v0,4054b8 <walk_path+0x1f4>
  4054a4:	00000000 	nop
/home/git/21373271/21373271/fs/fs.c:626
  4054a8:	8fc200ac 	lw	v0,172(s8)
  4054ac:	8fc30010 	lw	v1,16(s8)
  4054b0:	00000000 	nop
  4054b4:	ac430000 	sw	v1,0(v0)
/home/git/21373271/21373271/fs/fs.c:629
  4054b8:	8fc200b4 	lw	v0,180(s8)
  4054bc:	00000000 	nop
  4054c0:	10400006 	beqz	v0,4054dc <walk_path+0x218>
  4054c4:	00000000 	nop
/home/git/21373271/21373271/fs/fs.c:630
  4054c8:	27c2001c 	addiu	v0,s8,28
  4054cc:	00402825 	move	a1,v0
  4054d0:	8fc400b4 	lw	a0,180(s8)
  4054d4:	0c101dcf 	jal	40773c <strcpy>
  4054d8:	00000000 	nop
/home/git/21373271/21373271/fs/fs.c:633
  4054dc:	8fc200b0 	lw	v0,176(s8)
  4054e0:	00000000 	nop
  4054e4:	ac400000 	sw	zero,0(v0)
/home/git/21373271/21373271/fs/fs.c:636
  4054e8:	8fc20018 	lw	v0,24(s8)
  4054ec:	10000014 	b	405540 <walk_path+0x27c>
  4054f0:	00000000 	nop
/home/git/21373271/21373271/fs/fs.c:604
  4054f4:	8fc200a8 	lw	v0,168(s8)
  4054f8:	00000000 	nop
  4054fc:	80420000 	lb	v0,0(v0)
  405500:	00000000 	nop
  405504:	1440ff8e 	bnez	v0,405340 <walk_path+0x7c>
  405508:	00000000 	nop
/home/git/21373271/21373271/fs/fs.c:640
  40550c:	8fc200ac 	lw	v0,172(s8)
  405510:	00000000 	nop
  405514:	10400005 	beqz	v0,40552c <walk_path+0x268>
  405518:	00000000 	nop
/home/git/21373271/21373271/fs/fs.c:641
  40551c:	8fc200ac 	lw	v0,172(s8)
  405520:	8fc30010 	lw	v1,16(s8)
  405524:	00000000 	nop
  405528:	ac430000 	sw	v1,0(v0)
/home/git/21373271/21373271/fs/fs.c:644
  40552c:	8fc3009c 	lw	v1,156(s8)
  405530:	8fc200b0 	lw	v0,176(s8)
  405534:	00000000 	nop
  405538:	ac430000 	sw	v1,0(v0)
/home/git/21373271/21373271/fs/fs.c:645
  40553c:	00001025 	move	v0,zero
/home/git/21373271/21373271/fs/fs.c:646 (discriminator 1)
  405540:	03c0e825 	move	sp,s8
  405544:	8fbf00a4 	lw	ra,164(sp)
  405548:	8fbe00a0 	lw	s8,160(sp)
  40554c:	27bd00a8 	addiu	sp,sp,168
  405550:	03e00008 	jr	ra
  405554:	00000000 	nop

00405558 <file_open>:
file_open():
/home/git/21373271/21373271/fs/fs.c:654
  405558:	27bdffe8 	addiu	sp,sp,-24
  40555c:	afbf0014 	sw	ra,20(sp)
  405560:	afbe0010 	sw	s8,16(sp)
  405564:	03a0f025 	move	s8,sp
  405568:	afc40018 	sw	a0,24(s8)
  40556c:	afc5001c 	sw	a1,28(s8)
/home/git/21373271/21373271/fs/fs.c:655
  405570:	00003825 	move	a3,zero
  405574:	8fc6001c 	lw	a2,28(s8)
  405578:	00002825 	move	a1,zero
  40557c:	8fc40018 	lw	a0,24(s8)
  405580:	0c1014b1 	jal	4052c4 <walk_path>
  405584:	00000000 	nop
/home/git/21373271/21373271/fs/fs.c:656
  405588:	03c0e825 	move	sp,s8
  40558c:	8fbf0014 	lw	ra,20(sp)
  405590:	8fbe0010 	lw	s8,16(sp)
  405594:	27bd0018 	addiu	sp,sp,24
  405598:	03e00008 	jr	ra
  40559c:	00000000 	nop

004055a0 <file_create>:
file_create():
/home/git/21373271/21373271/fs/fs.c:664
  4055a0:	27bdff58 	addiu	sp,sp,-168
  4055a4:	afbf00a4 	sw	ra,164(sp)
  4055a8:	afbe00a0 	sw	s8,160(sp)
  4055ac:	03a0f025 	move	s8,sp
  4055b0:	afc400a8 	sw	a0,168(s8)
  4055b4:	afc500ac 	sw	a1,172(s8)
/home/git/21373271/21373271/fs/fs.c:669
  4055b8:	27c40014 	addiu	a0,s8,20
  4055bc:	27c30098 	addiu	v1,s8,152
  4055c0:	27c20094 	addiu	v0,s8,148
  4055c4:	00803825 	move	a3,a0
  4055c8:	00603025 	move	a2,v1
  4055cc:	00402825 	move	a1,v0
  4055d0:	8fc400a8 	lw	a0,168(s8)
  4055d4:	0c1014b1 	jal	4052c4 <walk_path>
  4055d8:	00000000 	nop
  4055dc:	afc20010 	sw	v0,16(s8)
  4055e0:	8fc20010 	lw	v0,16(s8)
  4055e4:	00000000 	nop
  4055e8:	14400004 	bnez	v0,4055fc <file_create+0x5c>
  4055ec:	00000000 	nop
/home/git/21373271/21373271/fs/fs.c:670
  4055f0:	2402fff4 	li	v0,-12
  4055f4:	10000022 	b	405680 <file_create+0xe0>
  4055f8:	00000000 	nop
/home/git/21373271/21373271/fs/fs.c:673
  4055fc:	8fc30010 	lw	v1,16(s8)
  405600:	2402fff6 	li	v0,-10
  405604:	14620005 	bne	v1,v0,40561c <file_create+0x7c>
  405608:	00000000 	nop
/home/git/21373271/21373271/fs/fs.c:673 (discriminator 1)
  40560c:	8fc20094 	lw	v0,148(s8)
  405610:	00000000 	nop
  405614:	14400004 	bnez	v0,405628 <file_create+0x88>
  405618:	00000000 	nop
/home/git/21373271/21373271/fs/fs.c:674
  40561c:	8fc20010 	lw	v0,16(s8)
  405620:	10000017 	b	405680 <file_create+0xe0>
  405624:	00000000 	nop
/home/git/21373271/21373271/fs/fs.c:677
  405628:	8fc20094 	lw	v0,148(s8)
  40562c:	27c30098 	addiu	v1,s8,152
  405630:	00602825 	move	a1,v1
  405634:	00402025 	move	a0,v0
  405638:	0c10142b 	jal	4050ac <dir_alloc_file>
  40563c:	00000000 	nop
  405640:	04410004 	bgez	v0,405654 <file_create+0xb4>
  405644:	00000000 	nop
/home/git/21373271/21373271/fs/fs.c:678
  405648:	8fc20010 	lw	v0,16(s8)
  40564c:	1000000c 	b	405680 <file_create+0xe0>
  405650:	00000000 	nop
/home/git/21373271/21373271/fs/fs.c:681
  405654:	8fc20098 	lw	v0,152(s8)
  405658:	27c30014 	addiu	v1,s8,20
  40565c:	00602825 	move	a1,v1
  405660:	00402025 	move	a0,v0
  405664:	0c101dcf 	jal	40773c <strcpy>
  405668:	00000000 	nop
/home/git/21373271/21373271/fs/fs.c:682
  40566c:	8fc30098 	lw	v1,152(s8)
  405670:	8fc200ac 	lw	v0,172(s8)
  405674:	00000000 	nop
  405678:	ac430000 	sw	v1,0(v0)
/home/git/21373271/21373271/fs/fs.c:683
  40567c:	00001025 	move	v0,zero
/home/git/21373271/21373271/fs/fs.c:684 (discriminator 1)
  405680:	03c0e825 	move	sp,s8
  405684:	8fbf00a4 	lw	ra,164(sp)
  405688:	8fbe00a0 	lw	s8,160(sp)
  40568c:	27bd00a8 	addiu	sp,sp,168
  405690:	03e00008 	jr	ra
  405694:	00000000 	nop

00405698 <file_truncate>:
file_truncate():
/home/git/21373271/21373271/fs/fs.c:698
  405698:	27bdffd8 	addiu	sp,sp,-40
  40569c:	afbf0024 	sw	ra,36(sp)
  4056a0:	afbe0020 	sw	s8,32(sp)
  4056a4:	03a0f025 	move	s8,sp
  4056a8:	afc40028 	sw	a0,40(s8)
  4056ac:	afc5002c 	sw	a1,44(s8)
/home/git/21373271/21373271/fs/fs.c:701
  4056b0:	8fc20028 	lw	v0,40(s8)
  4056b4:	00000000 	nop
  4056b8:	8c420080 	lw	v0,128(v0)
  4056bc:	00000000 	nop
  4056c0:	00021302 	srl	v0,v0,0xc
  4056c4:	24420001 	addiu	v0,v0,1
  4056c8:	afc20018 	sw	v0,24(s8)
/home/git/21373271/21373271/fs/fs.c:702
  4056cc:	8fc2002c 	lw	v0,44(s8)
  4056d0:	00000000 	nop
  4056d4:	00021302 	srl	v0,v0,0xc
  4056d8:	24420001 	addiu	v0,v0,1
  4056dc:	afc20014 	sw	v0,20(s8)
/home/git/21373271/21373271/fs/fs.c:704
  4056e0:	8fc2002c 	lw	v0,44(s8)
  4056e4:	00000000 	nop
  4056e8:	14400002 	bnez	v0,4056f4 <file_truncate+0x5c>
  4056ec:	00000000 	nop
/home/git/21373271/21373271/fs/fs.c:705
  4056f0:	afc00014 	sw	zero,20(s8)
/home/git/21373271/21373271/fs/fs.c:708
  4056f4:	8fc20014 	lw	v0,20(s8)
  4056f8:	00000000 	nop
  4056fc:	2c42000b 	sltiu	v0,v0,11
  405700:	10400026 	beqz	v0,40579c <file_truncate+0x104>
  405704:	00000000 	nop
/home/git/21373271/21373271/fs/fs.c:709
  405708:	8fc20014 	lw	v0,20(s8)
  40570c:	00000000 	nop
  405710:	afc20010 	sw	v0,16(s8)
  405714:	10000009 	b	40573c <file_truncate+0xa4>
  405718:	00000000 	nop
/home/git/21373271/21373271/fs/fs.c:710 (discriminator 3)
  40571c:	8fc50010 	lw	a1,16(s8)
  405720:	8fc40028 	lw	a0,40(s8)
  405724:	0c101359 	jal	404d64 <file_clear_block>
  405728:	00000000 	nop
/home/git/21373271/21373271/fs/fs.c:709 (discriminator 3)
  40572c:	8fc20010 	lw	v0,16(s8)
  405730:	00000000 	nop
  405734:	24420001 	addiu	v0,v0,1
  405738:	afc20010 	sw	v0,16(s8)
/home/git/21373271/21373271/fs/fs.c:709 (discriminator 1)
  40573c:	8fc30010 	lw	v1,16(s8)
  405740:	8fc20018 	lw	v0,24(s8)
  405744:	00000000 	nop
  405748:	0062102b 	sltu	v0,v1,v0
  40574c:	1440fff3 	bnez	v0,40571c <file_truncate+0x84>
  405750:	00000000 	nop
/home/git/21373271/21373271/fs/fs.c:712
  405754:	8fc20028 	lw	v0,40(s8)
  405758:	00000000 	nop
  40575c:	8c4200b0 	lw	v0,176(v0)
  405760:	00000000 	nop
  405764:	10400020 	beqz	v0,4057e8 <file_truncate+0x150>
  405768:	00000000 	nop
/home/git/21373271/21373271/fs/fs.c:713
  40576c:	8fc20028 	lw	v0,40(s8)
  405770:	00000000 	nop
  405774:	8c4200b0 	lw	v0,176(v0)
  405778:	00000000 	nop
  40577c:	00402025 	move	a0,v0
  405780:	0c1010b2 	jal	4042c8 <free_block>
  405784:	00000000 	nop
/home/git/21373271/21373271/fs/fs.c:714
  405788:	8fc20028 	lw	v0,40(s8)
  40578c:	00000000 	nop
  405790:	ac4000b0 	sw	zero,176(v0)
  405794:	10000014 	b	4057e8 <file_truncate+0x150>
  405798:	00000000 	nop
/home/git/21373271/21373271/fs/fs.c:717
  40579c:	8fc20014 	lw	v0,20(s8)
  4057a0:	00000000 	nop
  4057a4:	afc20010 	sw	v0,16(s8)
  4057a8:	10000009 	b	4057d0 <file_truncate+0x138>
  4057ac:	00000000 	nop
/home/git/21373271/21373271/fs/fs.c:718 (discriminator 3)
  4057b0:	8fc50010 	lw	a1,16(s8)
  4057b4:	8fc40028 	lw	a0,40(s8)
  4057b8:	0c101359 	jal	404d64 <file_clear_block>
  4057bc:	00000000 	nop
/home/git/21373271/21373271/fs/fs.c:717 (discriminator 3)
  4057c0:	8fc20010 	lw	v0,16(s8)
  4057c4:	00000000 	nop
  4057c8:	24420001 	addiu	v0,v0,1
  4057cc:	afc20010 	sw	v0,16(s8)
/home/git/21373271/21373271/fs/fs.c:717 (discriminator 1)
  4057d0:	8fc30010 	lw	v1,16(s8)
  4057d4:	8fc20018 	lw	v0,24(s8)
  4057d8:	00000000 	nop
  4057dc:	0062102b 	sltu	v0,v1,v0
  4057e0:	1440fff3 	bnez	v0,4057b0 <file_truncate+0x118>
  4057e4:	00000000 	nop
/home/git/21373271/21373271/fs/fs.c:722
  4057e8:	8fc20028 	lw	v0,40(s8)
  4057ec:	8fc3002c 	lw	v1,44(s8)
  4057f0:	00000000 	nop
  4057f4:	ac430080 	sw	v1,128(v0)
/home/git/21373271/21373271/fs/fs.c:723
  4057f8:	00000000 	nop
  4057fc:	03c0e825 	move	sp,s8
  405800:	8fbf0024 	lw	ra,36(sp)
  405804:	8fbe0020 	lw	s8,32(sp)
  405808:	27bd0028 	addiu	sp,sp,40
  40580c:	03e00008 	jr	ra
  405810:	00000000 	nop

00405814 <file_set_size>:
file_set_size():
/home/git/21373271/21373271/fs/fs.c:727
  405814:	27bdffe8 	addiu	sp,sp,-24
  405818:	afbf0014 	sw	ra,20(sp)
  40581c:	afbe0010 	sw	s8,16(sp)
  405820:	03a0f025 	move	s8,sp
  405824:	afc40018 	sw	a0,24(s8)
  405828:	afc5001c 	sw	a1,28(s8)
/home/git/21373271/21373271/fs/fs.c:728
  40582c:	8fc20018 	lw	v0,24(s8)
  405830:	00000000 	nop
  405834:	8c420080 	lw	v0,128(v0)
  405838:	8fc3001c 	lw	v1,28(s8)
  40583c:	00000000 	nop
  405840:	0062102b 	sltu	v0,v1,v0
  405844:	10400005 	beqz	v0,40585c <file_set_size+0x48>
  405848:	00000000 	nop
/home/git/21373271/21373271/fs/fs.c:729
  40584c:	8fc5001c 	lw	a1,28(s8)
  405850:	8fc40018 	lw	a0,24(s8)
  405854:	0c1015a6 	jal	405698 <file_truncate>
  405858:	00000000 	nop
/home/git/21373271/21373271/fs/fs.c:732
  40585c:	8fc20018 	lw	v0,24(s8)
  405860:	8fc3001c 	lw	v1,28(s8)
  405864:	00000000 	nop
  405868:	ac430080 	sw	v1,128(v0)
/home/git/21373271/21373271/fs/fs.c:734
  40586c:	8fc20018 	lw	v0,24(s8)
  405870:	00000000 	nop
  405874:	8c4200b4 	lw	v0,180(v0)
  405878:	00000000 	nop
  40587c:	10400008 	beqz	v0,4058a0 <file_set_size+0x8c>
  405880:	00000000 	nop
/home/git/21373271/21373271/fs/fs.c:735
  405884:	8fc20018 	lw	v0,24(s8)
  405888:	00000000 	nop
  40588c:	8c4200b4 	lw	v0,180(v0)
  405890:	00000000 	nop
  405894:	00402025 	move	a0,v0
  405898:	0c10162f 	jal	4058bc <file_flush>
  40589c:	00000000 	nop
/home/git/21373271/21373271/fs/fs.c:738
  4058a0:	00001025 	move	v0,zero
/home/git/21373271/21373271/fs/fs.c:739
  4058a4:	03c0e825 	move	sp,s8
  4058a8:	8fbf0014 	lw	ra,20(sp)
  4058ac:	8fbe0010 	lw	s8,16(sp)
  4058b0:	27bd0018 	addiu	sp,sp,24
  4058b4:	03e00008 	jr	ra
  4058b8:	00000000 	nop

004058bc <file_flush>:
file_flush():
/home/git/21373271/21373271/fs/fs.c:748
  4058bc:	27bdffd8 	addiu	sp,sp,-40
  4058c0:	afbf0024 	sw	ra,36(sp)
  4058c4:	afbe0020 	sw	s8,32(sp)
  4058c8:	03a0f025 	move	s8,sp
  4058cc:	afc40028 	sw	a0,40(s8)
/home/git/21373271/21373271/fs/fs.c:755
  4058d0:	8fc20028 	lw	v0,40(s8)
  4058d4:	00000000 	nop
  4058d8:	8c420080 	lw	v0,128(v0)
  4058dc:	00000000 	nop
  4058e0:	00021302 	srl	v0,v0,0xc
  4058e4:	24420001 	addiu	v0,v0,1
  4058e8:	afc20014 	sw	v0,20(s8)
/home/git/21373271/21373271/fs/fs.c:757
  4058ec:	afc00010 	sw	zero,16(s8)
  4058f0:	10000020 	b	405974 <file_flush+0xb8>
  4058f4:	00000000 	nop
/home/git/21373271/21373271/fs/fs.c:758
  4058f8:	27c2001c 	addiu	v0,s8,28
  4058fc:	00003825 	move	a3,zero
  405900:	00403025 	move	a2,v0
  405904:	8fc50010 	lw	a1,16(s8)
  405908:	8fc40028 	lw	a0,40(s8)
  40590c:	0c10131a 	jal	404c68 <file_map_block>
  405910:	00000000 	nop
  405914:	afc20018 	sw	v0,24(s8)
  405918:	8fc20018 	lw	v0,24(s8)
  40591c:	00000000 	nop
  405920:	0440000f 	bltz	v0,405960 <file_flush+0xa4>
  405924:	00000000 	nop
/home/git/21373271/21373271/fs/fs.c:761
  405928:	8fc2001c 	lw	v0,28(s8)
  40592c:	00000000 	nop
  405930:	00402025 	move	a0,v0
  405934:	0c100f67 	jal	403d9c <block_is_dirty>
  405938:	00000000 	nop
  40593c:	10400009 	beqz	v0,405964 <file_flush+0xa8>
  405940:	00000000 	nop
/home/git/21373271/21373271/fs/fs.c:762
  405944:	8fc2001c 	lw	v0,28(s8)
  405948:	00000000 	nop
  40594c:	00402025 	move	a0,v0
  405950:	0c100fab 	jal	403eac <write_block>
  405954:	00000000 	nop
  405958:	10000002 	b	405964 <file_flush+0xa8>
  40595c:	00000000 	nop
/home/git/21373271/21373271/fs/fs.c:759
  405960:	00000000 	nop
/home/git/21373271/21373271/fs/fs.c:757 (discriminator 2)
  405964:	8fc20010 	lw	v0,16(s8)
