
target/mos：     文件格式 elf32-tradlittlemips
target/mos


Disassembly of section .text:

80010000 <elf_from>:
elf_from():
/home/git/21373271/21373271/lib/elfloader.c:4
#include <elf.h>
#include <pmap.h>

const Elf32_Ehdr *elf_from(const void *binary, size_t size) {
80010000:	27bdfff0 	addiu	sp,sp,-16
80010004:	afbe000c 	sw	s8,12(sp)
80010008:	03a0f025 	move	s8,sp
8001000c:	afc40010 	sw	a0,16(s8)
80010010:	afc50014 	sw	a1,20(s8)
/home/git/21373271/21373271/lib/elfloader.c:5
	const Elf32_Ehdr *ehdr = (const Elf32_Ehdr *)binary;
80010014:	8fc20010 	lw	v0,16(s8)
80010018:	00000000 	nop
8001001c:	afc20000 	sw	v0,0(s8)
/home/git/21373271/21373271/lib/elfloader.c:6
	if (size >= sizeof(Elf32_Ehdr) && ehdr->e_ident[EI_MAG0] == ELFMAG0 &&
80010020:	8fc20014 	lw	v0,20(s8)
80010024:	00000000 	nop
80010028:	2c420034 	sltiu	v0,v0,52
8001002c:	14400022 	bnez	v0,800100b8 <elf_from+0xb8>
80010030:	00000000 	nop
/home/git/21373271/21373271/lib/elfloader.c:6 (discriminator 1)
80010034:	8fc20000 	lw	v0,0(s8)
80010038:	00000000 	nop
8001003c:	90430000 	lbu	v1,0(v0)
80010040:	2402007f 	li	v0,127
80010044:	1462001c 	bne	v1,v0,800100b8 <elf_from+0xb8>
80010048:	00000000 	nop
/home/git/21373271/21373271/lib/elfloader.c:7 (discriminator 2)
	    ehdr->e_ident[EI_MAG1] == ELFMAG1 && ehdr->e_ident[EI_MAG2] == ELFMAG2 &&
8001004c:	8fc20000 	lw	v0,0(s8)
80010050:	00000000 	nop
80010054:	90430001 	lbu	v1,1(v0)
/home/git/21373271/21373271/lib/elfloader.c:6 (discriminator 2)
	if (size >= sizeof(Elf32_Ehdr) && ehdr->e_ident[EI_MAG0] == ELFMAG0 &&
80010058:	24020045 	li	v0,69
8001005c:	14620016 	bne	v1,v0,800100b8 <elf_from+0xb8>
80010060:	00000000 	nop
/home/git/21373271/21373271/lib/elfloader.c:7
	    ehdr->e_ident[EI_MAG1] == ELFMAG1 && ehdr->e_ident[EI_MAG2] == ELFMAG2 &&
80010064:	8fc20000 	lw	v0,0(s8)
80010068:	00000000 	nop
8001006c:	90430002 	lbu	v1,2(v0)
80010070:	2402004c 	li	v0,76
80010074:	14620010 	bne	v1,v0,800100b8 <elf_from+0xb8>
80010078:	00000000 	nop
/home/git/21373271/21373271/lib/elfloader.c:8 (discriminator 1)
	    ehdr->e_ident[EI_MAG3] == ELFMAG3 && ehdr->e_type == 2) {
8001007c:	8fc20000 	lw	v0,0(s8)
80010080:	00000000 	nop
80010084:	90430003 	lbu	v1,3(v0)
/home/git/21373271/21373271/lib/elfloader.c:7 (discriminator 1)
	    ehdr->e_ident[EI_MAG1] == ELFMAG1 && ehdr->e_ident[EI_MAG2] == ELFMAG2 &&
80010088:	24020046 	li	v0,70
8001008c:	1462000a 	bne	v1,v0,800100b8 <elf_from+0xb8>
80010090:	00000000 	nop
/home/git/21373271/21373271/lib/elfloader.c:8
	    ehdr->e_ident[EI_MAG3] == ELFMAG3 && ehdr->e_type == 2) {
80010094:	8fc20000 	lw	v0,0(s8)
80010098:	00000000 	nop
8001009c:	94430010 	lhu	v1,16(v0)
800100a0:	24020002 	li	v0,2
800100a4:	14620004 	bne	v1,v0,800100b8 <elf_from+0xb8>
800100a8:	00000000 	nop
/home/git/21373271/21373271/lib/elfloader.c:9
		return ehdr;
800100ac:	8fc20000 	lw	v0,0(s8)
800100b0:	10000002 	b	800100bc <elf_from+0xbc>
800100b4:	00000000 	nop
/home/git/21373271/21373271/lib/elfloader.c:11
	}
	return NULL;
800100b8:	00001025 	move	v0,zero
/home/git/21373271/21373271/lib/elfloader.c:12
}
800100bc:	03c0e825 	move	sp,s8
800100c0:	8fbe000c 	lw	s8,12(sp)
800100c4:	27bd0010 	addiu	sp,sp,16
800100c8:	03e00008 	jr	ra
800100cc:	00000000 	nop

800100d0 <elf_load_seg>:
elf_load_seg():
/home/git/21373271/21373271/lib/elfloader.c:25
 *
 * Post-Condition:
 *   Return 0 if success. Otherwise return < 0.
 *   If success, the entry point of `binary` will be stored in `start`
 */
int elf_load_seg(Elf32_Phdr *ph, const void *bin, elf_mapper_t map_page, void *data) {
800100d0:	27bdffa0 	addiu	sp,sp,-96
800100d4:	afbf005c 	sw	ra,92(sp)
800100d8:	afbe0058 	sw	s8,88(sp)
800100dc:	03a0f025 	move	s8,sp
800100e0:	afc40060 	sw	a0,96(s8)
800100e4:	afc50064 	sw	a1,100(s8)
800100e8:	afc60068 	sw	a2,104(s8)
800100ec:	afc7006c 	sw	a3,108(s8)
/home/git/21373271/21373271/lib/elfloader.c:26
	u_long va = ph->p_vaddr;
800100f0:	8fc20060 	lw	v0,96(s8)
800100f4:	00000000 	nop
800100f8:	8c420008 	lw	v0,8(v0)
800100fc:	00000000 	nop
80010100:	afc20020 	sw	v0,32(s8)
/home/git/21373271/21373271/lib/elfloader.c:27
	size_t bin_size = ph->p_filesz;
80010104:	8fc20060 	lw	v0,96(s8)
80010108:	00000000 	nop
8001010c:	8c420010 	lw	v0,16(v0)
80010110:	00000000 	nop
80010114:	afc20024 	sw	v0,36(s8)
/home/git/21373271/21373271/lib/elfloader.c:28
	size_t sgsize = ph->p_memsz;
80010118:	8fc20060 	lw	v0,96(s8)
8001011c:	00000000 	nop
80010120:	8c420014 	lw	v0,20(v0)
80010124:	00000000 	nop
80010128:	afc20028 	sw	v0,40(s8)
/home/git/21373271/21373271/lib/elfloader.c:29
	u_int perm = PTE_V;
8001012c:	24020200 	li	v0,512
80010130:	afc20018 	sw	v0,24(s8)
/home/git/21373271/21373271/lib/elfloader.c:30
	if (ph->p_flags & PF_W) {
80010134:	8fc20060 	lw	v0,96(s8)
80010138:	00000000 	nop
8001013c:	8c420018 	lw	v0,24(v0)
80010140:	00000000 	nop
80010144:	30420002 	andi	v0,v0,0x2
80010148:	10400005 	beqz	v0,80010160 <elf_load_seg+0x90>
8001014c:	00000000 	nop
/home/git/21373271/21373271/lib/elfloader.c:31
		perm |= PTE_D;
80010150:	8fc20018 	lw	v0,24(s8)
80010154:	00000000 	nop
80010158:	34420400 	ori	v0,v0,0x400
8001015c:	afc20018 	sw	v0,24(s8)
/home/git/21373271/21373271/lib/elfloader.c:36
	}

	int r;
	size_t i;
	u_long offset = va - ROUNDDOWN(va, BY2PG);
80010160:	8fc20020 	lw	v0,32(s8)
80010164:	00000000 	nop
80010168:	30420fff 	andi	v0,v0,0xfff
8001016c:	afc2002c 	sw	v0,44(s8)
/home/git/21373271/21373271/lib/elfloader.c:37
	if (offset != 0) {
80010170:	8fc2002c 	lw	v0,44(s8)
80010174:	00000000 	nop
80010178:	10400023 	beqz	v0,80010208 <elf_load_seg+0x138>
8001017c:	00000000 	nop
/home/git/21373271/21373271/lib/elfloader.c:38
		if ((r = map_page(data, va, offset, perm, bin, MIN(bin_size, BY2PG - offset))) !=
80010180:	8fc20024 	lw	v0,36(s8)
80010184:	00000000 	nop
80010188:	afc20030 	sw	v0,48(s8)
8001018c:	24031000 	li	v1,4096
80010190:	8fc2002c 	lw	v0,44(s8)
80010194:	00000000 	nop
80010198:	00621023 	subu	v0,v1,v0
8001019c:	afc20034 	sw	v0,52(s8)
800101a0:	8fc30034 	lw	v1,52(s8)
800101a4:	8fc20030 	lw	v0,48(s8)
800101a8:	00000000 	nop
800101ac:	0062202b 	sltu	a0,v1,v0
800101b0:	10800002 	beqz	a0,800101bc <elf_load_seg+0xec>
800101b4:	00000000 	nop
800101b8:	00601025 	move	v0,v1
800101bc:	afa20014 	sw	v0,20(sp)
800101c0:	8fc20064 	lw	v0,100(s8)
800101c4:	00000000 	nop
800101c8:	afa20010 	sw	v0,16(sp)
800101cc:	8fc20068 	lw	v0,104(s8)
800101d0:	8fc70018 	lw	a3,24(s8)
800101d4:	8fc6002c 	lw	a2,44(s8)
800101d8:	8fc50020 	lw	a1,32(s8)
800101dc:	8fc4006c 	lw	a0,108(s8)
800101e0:	0040f809 	jalr	v0
800101e4:	00000000 	nop
800101e8:	afc20038 	sw	v0,56(s8)
800101ec:	8fc20038 	lw	v0,56(s8)
800101f0:	00000000 	nop
800101f4:	10400004 	beqz	v0,80010208 <elf_load_seg+0x138>
800101f8:	00000000 	nop
/home/git/21373271/21373271/lib/elfloader.c:40
		    0) {
			return r;
800101fc:	8fc20038 	lw	v0,56(s8)
80010200:	1000007a 	b	800103ec <elf_load_seg+0x31c>
80010204:	00000000 	nop
/home/git/21373271/21373271/lib/elfloader.c:45
		}
	}

	/* Step 1: load all content of bin into memory. */
	for (i = offset ? MIN(bin_size, BY2PG - offset) : 0; i < bin_size; i += BY2PG) {
80010208:	8fc2002c 	lw	v0,44(s8)
8001020c:	00000000 	nop
80010210:	10400012 	beqz	v0,8001025c <elf_load_seg+0x18c>
80010214:	00000000 	nop
/home/git/21373271/21373271/lib/elfloader.c:45 (discriminator 1)
80010218:	8fc20024 	lw	v0,36(s8)
8001021c:	00000000 	nop
80010220:	afc2003c 	sw	v0,60(s8)
80010224:	24031000 	li	v1,4096
80010228:	8fc2002c 	lw	v0,44(s8)
8001022c:	00000000 	nop
80010230:	00621023 	subu	v0,v1,v0
80010234:	afc20040 	sw	v0,64(s8)
80010238:	8fc30040 	lw	v1,64(s8)
8001023c:	8fc2003c 	lw	v0,60(s8)
80010240:	00000000 	nop
80010244:	0062202b 	sltu	a0,v1,v0
80010248:	10800005 	beqz	a0,80010260 <elf_load_seg+0x190>
8001024c:	00000000 	nop
80010250:	00601025 	move	v0,v1
80010254:	10000002 	b	80010260 <elf_load_seg+0x190>
80010258:	00000000 	nop
/home/git/21373271/21373271/lib/elfloader.c:45 (discriminator 2)
8001025c:	00001025 	move	v0,zero
/home/git/21373271/21373271/lib/elfloader.c:45 (discriminator 4)
80010260:	afc2001c 	sw	v0,28(s8)
80010264:	1000002c 	b	80010318 <elf_load_seg+0x248>
80010268:	00000000 	nop
/home/git/21373271/21373271/lib/elfloader.c:46
		if ((r = map_page(data, va + i, 0, perm, bin + i, MIN(bin_size - i, BY2PG))) != 0) {
8001026c:	8fc30020 	lw	v1,32(s8)
80010270:	8fc2001c 	lw	v0,28(s8)
80010274:	00000000 	nop
80010278:	00624021 	addu	t0,v1,v0
8001027c:	8fc30064 	lw	v1,100(s8)
80010280:	8fc2001c 	lw	v0,28(s8)
80010284:	00000000 	nop
80010288:	00622021 	addu	a0,v1,v0
8001028c:	8fc30024 	lw	v1,36(s8)
80010290:	8fc2001c 	lw	v0,28(s8)
80010294:	00000000 	nop
80010298:	00621023 	subu	v0,v1,v0
8001029c:	afc2004c 	sw	v0,76(s8)
800102a0:	24021000 	li	v0,4096
800102a4:	afc20050 	sw	v0,80(s8)
800102a8:	8fc30050 	lw	v1,80(s8)
800102ac:	8fc2004c 	lw	v0,76(s8)
800102b0:	00000000 	nop
800102b4:	0062282b 	sltu	a1,v1,v0
800102b8:	10a00002 	beqz	a1,800102c4 <elf_load_seg+0x1f4>
800102bc:	00000000 	nop
800102c0:	00601025 	move	v0,v1
800102c4:	afa20014 	sw	v0,20(sp)
800102c8:	afa40010 	sw	a0,16(sp)
800102cc:	8fc20068 	lw	v0,104(s8)
800102d0:	8fc70018 	lw	a3,24(s8)
800102d4:	00003025 	move	a2,zero
800102d8:	01002825 	move	a1,t0
800102dc:	8fc4006c 	lw	a0,108(s8)
800102e0:	0040f809 	jalr	v0
800102e4:	00000000 	nop
800102e8:	afc20038 	sw	v0,56(s8)
800102ec:	8fc20038 	lw	v0,56(s8)
800102f0:	00000000 	nop
800102f4:	10400004 	beqz	v0,80010308 <elf_load_seg+0x238>
800102f8:	00000000 	nop
/home/git/21373271/21373271/lib/elfloader.c:47
			return r;
800102fc:	8fc20038 	lw	v0,56(s8)
80010300:	1000003a 	b	800103ec <elf_load_seg+0x31c>
80010304:	00000000 	nop
/home/git/21373271/21373271/lib/elfloader.c:45 (discriminator 6)
	for (i = offset ? MIN(bin_size, BY2PG - offset) : 0; i < bin_size; i += BY2PG) {
80010308:	8fc2001c 	lw	v0,28(s8)
8001030c:	00000000 	nop
80010310:	24421000 	addiu	v0,v0,4096
80010314:	afc2001c 	sw	v0,28(s8)
/home/git/21373271/21373271/lib/elfloader.c:45 (discriminator 5)
80010318:	8fc3001c 	lw	v1,28(s8)
8001031c:	8fc20024 	lw	v0,36(s8)
80010320:	00000000 	nop
80010324:	0062102b 	sltu	v0,v1,v0
80010328:	1440ffd0 	bnez	v0,8001026c <elf_load_seg+0x19c>
8001032c:	00000000 	nop
/home/git/21373271/21373271/lib/elfloader.c:52
		}
	}

	/* Step 2: alloc pages to reach `sgsize` when `bin_size` < `sgsize`. */
	while (i < sgsize) {
80010330:	10000027 	b	800103d0 <elf_load_seg+0x300>
80010334:	00000000 	nop
/home/git/21373271/21373271/lib/elfloader.c:53
		if ((r = map_page(data, va + i, 0, perm, NULL, MIN(bin_size - i, BY2PG))) != 0) {
80010338:	8fc30020 	lw	v1,32(s8)
8001033c:	8fc2001c 	lw	v0,28(s8)
80010340:	00000000 	nop
80010344:	00622821 	addu	a1,v1,v0
80010348:	8fc30024 	lw	v1,36(s8)
8001034c:	8fc2001c 	lw	v0,28(s8)
80010350:	00000000 	nop
80010354:	00621023 	subu	v0,v1,v0
80010358:	afc20044 	sw	v0,68(s8)
8001035c:	24021000 	li	v0,4096
80010360:	afc20048 	sw	v0,72(s8)
80010364:	8fc30048 	lw	v1,72(s8)
80010368:	8fc20044 	lw	v0,68(s8)
8001036c:	00000000 	nop
80010370:	0062202b 	sltu	a0,v1,v0
80010374:	10800002 	beqz	a0,80010380 <elf_load_seg+0x2b0>
80010378:	00000000 	nop
8001037c:	00601025 	move	v0,v1
80010380:	afa20014 	sw	v0,20(sp)
80010384:	afa00010 	sw	zero,16(sp)
80010388:	8fc20068 	lw	v0,104(s8)
8001038c:	8fc70018 	lw	a3,24(s8)
80010390:	00003025 	move	a2,zero
80010394:	8fc4006c 	lw	a0,108(s8)
80010398:	0040f809 	jalr	v0
8001039c:	00000000 	nop
800103a0:	afc20038 	sw	v0,56(s8)
800103a4:	8fc20038 	lw	v0,56(s8)
800103a8:	00000000 	nop
800103ac:	10400004 	beqz	v0,800103c0 <elf_load_seg+0x2f0>
800103b0:	00000000 	nop
/home/git/21373271/21373271/lib/elfloader.c:54
			return r;
800103b4:	8fc20038 	lw	v0,56(s8)
800103b8:	1000000c 	b	800103ec <elf_load_seg+0x31c>
800103bc:	00000000 	nop
/home/git/21373271/21373271/lib/elfloader.c:56
		}
		i += BY2PG;
800103c0:	8fc2001c 	lw	v0,28(s8)
800103c4:	00000000 	nop
800103c8:	24421000 	addiu	v0,v0,4096
800103cc:	afc2001c 	sw	v0,28(s8)
/home/git/21373271/21373271/lib/elfloader.c:52
	while (i < sgsize) {
800103d0:	8fc3001c 	lw	v1,28(s8)
800103d4:	8fc20028 	lw	v0,40(s8)
800103d8:	00000000 	nop
800103dc:	0062102b 	sltu	v0,v1,v0
800103e0:	1440ffd5 	bnez	v0,80010338 <elf_load_seg+0x268>
800103e4:	00000000 	nop
/home/git/21373271/21373271/lib/elfloader.c:58
	}
	return 0;
800103e8:	00001025 	move	v0,zero
/home/git/21373271/21373271/lib/elfloader.c:59
}
800103ec:	03c0e825 	move	sp,s8
800103f0:	8fbf005c 	lw	ra,92(sp)
800103f4:	8fbe0058 	lw	s8,88(sp)
800103f8:	27bd0060 	addiu	sp,sp,96
800103fc:	03e00008 	jr	ra
80010400:	00000000 	nop
	...

80010410 <vprintfmt>:
vprintfmt():
/home/git/21373271/21373271/lib/print.c:8
/* forward declaration */
static void print_char(fmt_callback_t, void *, char, int, int);
static void print_str(fmt_callback_t, void *, const char *, int, int);
static void print_num(fmt_callback_t, void *, unsigned long, int, int, int, int, char, int);

void vprintfmt(fmt_callback_t out, void *data, const char *fmt, va_list ap) {
80010410:	27bdffb0 	addiu	sp,sp,-80
80010414:	afbf004c 	sw	ra,76(sp)
80010418:	afbe0048 	sw	s8,72(sp)
8001041c:	03a0f025 	move	s8,sp
80010420:	afc40050 	sw	a0,80(s8)
80010424:	afc50054 	sw	a1,84(s8)
80010428:	afc60058 	sw	a2,88(s8)
8001042c:	afc7005c 	sw	a3,92(s8)
/home/git/21373271/21373271/lib/print.c:20
	int neg_flag;  // output is negative
	int ladjust;   // output is left-aligned
	char padc;     // padding char

	for (;;) {
		if ( *fmt != '%' )	
80010430:	8fc20058 	lw	v0,88(s8)
80010434:	00000000 	nop
80010438:	80430000 	lb	v1,0(v0)
8001043c:	24020025 	li	v0,37
80010440:	10620013 	beq	v1,v0,80010490 <vprintfmt+0x80>
80010444:	00000000 	nop
/home/git/21373271/21373271/lib/print.c:22
		{	
			out( data , fmt , 1 );
80010448:	8fc20050 	lw	v0,80(s8)
8001044c:	24060001 	li	a2,1
80010450:	8fc50058 	lw	a1,88(s8)
80010454:	8fc40054 	lw	a0,84(s8)
80010458:	0040f809 	jalr	v0
8001045c:	00000000 	nop
/home/git/21373271/21373271/lib/print.c:23
			fmt++;
80010460:	8fc20058 	lw	v0,88(s8)
80010464:	00000000 	nop
80010468:	24420001 	addiu	v0,v0,1
8001046c:	afc20058 	sw	v0,88(s8)
/home/git/21373271/21373271/lib/print.c:24
			if ( *fmt != 0 ) {
80010470:	8fc20058 	lw	v0,88(s8)
80010474:	00000000 	nop
80010478:	80420000 	lb	v0,0(v0)
8001047c:	00000000 	nop
80010480:	104001a1 	beqz	v0,80010b08 <vprintfmt+0x6f8>
80010484:	00000000 	nop
/home/git/21373271/21373271/lib/print.c:25
				continue;
80010488:	1000019d 	b	80010b00 <vprintfmt+0x6f0>
8001048c:	00000000 	nop
/home/git/21373271/21373271/lib/print.c:32
			else {
				break;
			}	
		}
		
		width = 0;
80010490:	afc0002c 	sw	zero,44(s8)
/home/git/21373271/21373271/lib/print.c:33
		long_flag = 0;
80010494:	afc00030 	sw	zero,48(s8)
/home/git/21373271/21373271/lib/print.c:34
		ladjust = 0;
80010498:	afc00038 	sw	zero,56(s8)
/home/git/21373271/21373271/lib/print.c:35
		padc = ' ';
8001049c:	24020020 	li	v0,32
800104a0:	a3c2003c 	sb	v0,60(s8)
/home/git/21373271/21373271/lib/print.c:36
		fmt++;
800104a4:	8fc20058 	lw	v0,88(s8)
800104a8:	00000000 	nop
800104ac:	24420001 	addiu	v0,v0,1
800104b0:	afc20058 	sw	v0,88(s8)
/home/git/21373271/21373271/lib/print.c:38

		if (*fmt == '-') 
800104b4:	8fc20058 	lw	v0,88(s8)
800104b8:	00000000 	nop
800104bc:	80430000 	lb	v1,0(v0)
800104c0:	2402002d 	li	v0,45
800104c4:	14620007 	bne	v1,v0,800104e4 <vprintfmt+0xd4>
800104c8:	00000000 	nop
/home/git/21373271/21373271/lib/print.c:40
		{
			ladjust = 1;
800104cc:	24020001 	li	v0,1
800104d0:	afc20038 	sw	v0,56(s8)
/home/git/21373271/21373271/lib/print.c:41
			fmt++;
800104d4:	8fc20058 	lw	v0,88(s8)
800104d8:	00000000 	nop
800104dc:	24420001 	addiu	v0,v0,1
800104e0:	afc20058 	sw	v0,88(s8)
/home/git/21373271/21373271/lib/print.c:43
		}
		if (*fmt == '0')
800104e4:	8fc20058 	lw	v0,88(s8)
800104e8:	00000000 	nop
800104ec:	80430000 	lb	v1,0(v0)
800104f0:	24020030 	li	v0,48
800104f4:	1462001b 	bne	v1,v0,80010564 <vprintfmt+0x154>
800104f8:	00000000 	nop
/home/git/21373271/21373271/lib/print.c:45
		{
			padc = '0';
800104fc:	24020030 	li	v0,48
80010500:	a3c2003c 	sb	v0,60(s8)
/home/git/21373271/21373271/lib/print.c:46
			fmt++;
80010504:	8fc20058 	lw	v0,88(s8)
80010508:	00000000 	nop
8001050c:	24420001 	addiu	v0,v0,1
80010510:	afc20058 	sw	v0,88(s8)
/home/git/21373271/21373271/lib/print.c:49
		}

		while ( (*fmt) >= '0' && (*fmt) <= '9')
80010514:	10000013 	b	80010564 <vprintfmt+0x154>
80010518:	00000000 	nop
/home/git/21373271/21373271/lib/print.c:51
		{
			width = width * 10 + (*fmt) - '0';
8001051c:	8fc3002c 	lw	v1,44(s8)
80010520:	00000000 	nop
80010524:	00601025 	move	v0,v1
80010528:	00021080 	sll	v0,v0,0x2
8001052c:	00431021 	addu	v0,v0,v1
80010530:	00021040 	sll	v0,v0,0x1
80010534:	00401825 	move	v1,v0
80010538:	8fc20058 	lw	v0,88(s8)
8001053c:	00000000 	nop
80010540:	80420000 	lb	v0,0(v0)
80010544:	00000000 	nop
80010548:	00621021 	addu	v0,v1,v0
8001054c:	2442ffd0 	addiu	v0,v0,-48
80010550:	afc2002c 	sw	v0,44(s8)
/home/git/21373271/21373271/lib/print.c:52
			fmt++;
80010554:	8fc20058 	lw	v0,88(s8)
80010558:	00000000 	nop
8001055c:	24420001 	addiu	v0,v0,1
80010560:	afc20058 	sw	v0,88(s8)
/home/git/21373271/21373271/lib/print.c:49
		while ( (*fmt) >= '0' && (*fmt) <= '9')
80010564:	8fc20058 	lw	v0,88(s8)
80010568:	00000000 	nop
8001056c:	80420000 	lb	v0,0(v0)
80010570:	00000000 	nop
80010574:	28420030 	slti	v0,v0,48
80010578:	14400008 	bnez	v0,8001059c <vprintfmt+0x18c>
8001057c:	00000000 	nop
/home/git/21373271/21373271/lib/print.c:49 (discriminator 1)
80010580:	8fc20058 	lw	v0,88(s8)
80010584:	00000000 	nop
80010588:	80420000 	lb	v0,0(v0)
8001058c:	00000000 	nop
80010590:	2842003a 	slti	v0,v0,58
80010594:	1440ffe1 	bnez	v0,8001051c <vprintfmt+0x10c>
80010598:	00000000 	nop
/home/git/21373271/21373271/lib/print.c:55
		}

		if (*fmt == 'l') 
8001059c:	8fc20058 	lw	v0,88(s8)
800105a0:	00000000 	nop
800105a4:	80430000 	lb	v1,0(v0)
800105a8:	2402006c 	li	v0,108
800105ac:	14620007 	bne	v1,v0,800105cc <vprintfmt+0x1bc>
800105b0:	00000000 	nop
/home/git/21373271/21373271/lib/print.c:57
		{
			long_flag = 1;
800105b4:	24020001 	li	v0,1
800105b8:	afc20030 	sw	v0,48(s8)
/home/git/21373271/21373271/lib/print.c:58
			fmt++;
800105bc:	8fc20058 	lw	v0,88(s8)
800105c0:	00000000 	nop
800105c4:	24420001 	addiu	v0,v0,1
800105c8:	afc20058 	sw	v0,88(s8)
/home/git/21373271/21373271/lib/print.c:61
		}

		neg_flag = 0;
800105cc:	afc00034 	sw	zero,52(s8)
/home/git/21373271/21373271/lib/print.c:62
		switch (*fmt) {
800105d0:	8fc20058 	lw	v0,88(s8)
800105d4:	00000000 	nop
800105d8:	80420000 	lb	v0,0(v0)
800105dc:	00000000 	nop
800105e0:	10400137 	beqz	v0,80010ac0 <vprintfmt+0x6b0>
800105e4:	00000000 	nop
800105e8:	0440013b 	bltz	v0,80010ad8 <vprintfmt+0x6c8>
800105ec:	00000000 	nop
800105f0:	28430079 	slti	v1,v0,121
800105f4:	10600138 	beqz	v1,80010ad8 <vprintfmt+0x6c8>
800105f8:	00000000 	nop
800105fc:	28430044 	slti	v1,v0,68
80010600:	14600135 	bnez	v1,80010ad8 <vprintfmt+0x6c8>
80010604:	00000000 	nop
80010608:	2442ffbc 	addiu	v0,v0,-68
8001060c:	2c430035 	sltiu	v1,v0,53
80010610:	10600131 	beqz	v1,80010ad8 <vprintfmt+0x6c8>
80010614:	00000000 	nop
80010618:	00021880 	sll	v1,v0,0x2
8001061c:	3c028001 	lui	v0,0x8001
80010620:	24424fb0 	addiu	v0,v0,20400
80010624:	00621021 	addu	v0,v1,v0
80010628:	8c420000 	lw	v0,0(v0)
8001062c:	00000000 	nop
80010630:	00400008 	jr	v0
80010634:	00000000 	nop
/home/git/21373271/21373271/lib/print.c:64
		case 'b':
			if (long_flag) {
80010638:	8fc20030 	lw	v0,48(s8)
8001063c:	00000000 	nop
80010640:	1040000a 	beqz	v0,8001066c <vprintfmt+0x25c>
80010644:	00000000 	nop
/home/git/21373271/21373271/lib/print.c:65
				num = va_arg(ap, long int);
80010648:	8fc2005c 	lw	v0,92(s8)
8001064c:	00000000 	nop
80010650:	24430004 	addiu	v1,v0,4
80010654:	afc3005c 	sw	v1,92(s8)
80010658:	8c420000 	lw	v0,0(v0)
8001065c:	00000000 	nop
80010660:	afc20028 	sw	v0,40(s8)
80010664:	10000008 	b	80010688 <vprintfmt+0x278>
80010668:	00000000 	nop
/home/git/21373271/21373271/lib/print.c:67
			} else {
				num = va_arg(ap, int);
8001066c:	8fc2005c 	lw	v0,92(s8)
80010670:	00000000 	nop
80010674:	24430004 	addiu	v1,v0,4
80010678:	afc3005c 	sw	v1,92(s8)
8001067c:	8c420000 	lw	v0,0(v0)
80010680:	00000000 	nop
80010684:	afc20028 	sw	v0,40(s8)
/home/git/21373271/21373271/lib/print.c:69
			}
			print_num(out, data, num, 2, 0, width, ladjust, padc, 0);
80010688:	8fc30028 	lw	v1,40(s8)
8001068c:	afa00020 	sw	zero,32(sp)
80010690:	83c2003c 	lb	v0,60(s8)
80010694:	00000000 	nop
80010698:	afa2001c 	sw	v0,28(sp)
8001069c:	8fc20038 	lw	v0,56(s8)
800106a0:	00000000 	nop
800106a4:	afa20018 	sw	v0,24(sp)
800106a8:	8fc2002c 	lw	v0,44(s8)
800106ac:	00000000 	nop
800106b0:	afa20014 	sw	v0,20(sp)
800106b4:	afa00010 	sw	zero,16(sp)
800106b8:	24070002 	li	a3,2
800106bc:	00603025 	move	a2,v1
800106c0:	8fc50054 	lw	a1,84(s8)
800106c4:	8fc40050 	lw	a0,80(s8)
800106c8:	0c00438c 	jal	80010e30 <print_num>
800106cc:	00000000 	nop
/home/git/21373271/21373271/lib/print.c:70
			break;
800106d0:	10000107 	b	80010af0 <vprintfmt+0x6e0>
800106d4:	00000000 	nop
/home/git/21373271/21373271/lib/print.c:74

		case 'd':
		case 'D':
			if (long_flag) {
800106d8:	8fc20030 	lw	v0,48(s8)
800106dc:	00000000 	nop
800106e0:	1040000a 	beqz	v0,8001070c <vprintfmt+0x2fc>
800106e4:	00000000 	nop
/home/git/21373271/21373271/lib/print.c:75
				num = va_arg(ap, long int);
800106e8:	8fc2005c 	lw	v0,92(s8)
800106ec:	00000000 	nop
800106f0:	24430004 	addiu	v1,v0,4
800106f4:	afc3005c 	sw	v1,92(s8)
800106f8:	8c420000 	lw	v0,0(v0)
800106fc:	00000000 	nop
80010700:	afc20028 	sw	v0,40(s8)
80010704:	10000008 	b	80010728 <vprintfmt+0x318>
80010708:	00000000 	nop
/home/git/21373271/21373271/lib/print.c:77
			} else {
				num = va_arg(ap, int);
8001070c:	8fc2005c 	lw	v0,92(s8)
80010710:	00000000 	nop
80010714:	24430004 	addiu	v1,v0,4
80010718:	afc3005c 	sw	v1,92(s8)
8001071c:	8c420000 	lw	v0,0(v0)
80010720:	00000000 	nop
80010724:	afc20028 	sw	v0,40(s8)
/home/git/21373271/21373271/lib/print.c:80
			}
			
			if(num < 0)
80010728:	8fc20028 	lw	v0,40(s8)
8001072c:	00000000 	nop
80010730:	04410007 	bgez	v0,80010750 <vprintfmt+0x340>
80010734:	00000000 	nop
/home/git/21373271/21373271/lib/print.c:82
			{
				neg_flag = 1;
80010738:	24020001 	li	v0,1
8001073c:	afc20034 	sw	v0,52(s8)
/home/git/21373271/21373271/lib/print.c:83
				num = -num;
80010740:	8fc20028 	lw	v0,40(s8)
80010744:	00000000 	nop
80010748:	00021023 	negu	v0,v0
8001074c:	afc20028 	sw	v0,40(s8)
/home/git/21373271/21373271/lib/print.c:85
			}
			print_num(out, data, num, 10, neg_flag, width, ladjust, padc, 0);
80010750:	8fc30028 	lw	v1,40(s8)
80010754:	afa00020 	sw	zero,32(sp)
80010758:	83c2003c 	lb	v0,60(s8)
8001075c:	00000000 	nop
80010760:	afa2001c 	sw	v0,28(sp)
80010764:	8fc20038 	lw	v0,56(s8)
80010768:	00000000 	nop
8001076c:	afa20018 	sw	v0,24(sp)
80010770:	8fc2002c 	lw	v0,44(s8)
80010774:	00000000 	nop
80010778:	afa20014 	sw	v0,20(sp)
8001077c:	8fc20034 	lw	v0,52(s8)
80010780:	00000000 	nop
80010784:	afa20010 	sw	v0,16(sp)
80010788:	2407000a 	li	a3,10
8001078c:	00603025 	move	a2,v1
80010790:	8fc50054 	lw	a1,84(s8)
80010794:	8fc40050 	lw	a0,80(s8)
80010798:	0c00438c 	jal	80010e30 <print_num>
8001079c:	00000000 	nop
/home/git/21373271/21373271/lib/print.c:93
			 * complete this part. Think the differences between case 'd' and the
			 * others. (hint: 'neg_flag').
			 */
			/* Exercise 1.4: Your code here. (8/8) */

			break;
800107a0:	100000d3 	b	80010af0 <vprintfmt+0x6e0>
800107a4:	00000000 	nop
/home/git/21373271/21373271/lib/print.c:97

		case 'o':
		case 'O':
			if (long_flag) {
800107a8:	8fc20030 	lw	v0,48(s8)
800107ac:	00000000 	nop
800107b0:	1040000a 	beqz	v0,800107dc <vprintfmt+0x3cc>
800107b4:	00000000 	nop
/home/git/21373271/21373271/lib/print.c:98
				num = va_arg(ap, long int);
800107b8:	8fc2005c 	lw	v0,92(s8)
800107bc:	00000000 	nop
800107c0:	24430004 	addiu	v1,v0,4
800107c4:	afc3005c 	sw	v1,92(s8)
800107c8:	8c420000 	lw	v0,0(v0)
800107cc:	00000000 	nop
800107d0:	afc20028 	sw	v0,40(s8)
800107d4:	10000008 	b	800107f8 <vprintfmt+0x3e8>
800107d8:	00000000 	nop
/home/git/21373271/21373271/lib/print.c:100
			} else {
				num = va_arg(ap, int);
800107dc:	8fc2005c 	lw	v0,92(s8)
800107e0:	00000000 	nop
800107e4:	24430004 	addiu	v1,v0,4
800107e8:	afc3005c 	sw	v1,92(s8)
800107ec:	8c420000 	lw	v0,0(v0)
800107f0:	00000000 	nop
800107f4:	afc20028 	sw	v0,40(s8)
/home/git/21373271/21373271/lib/print.c:102
			}
			print_num(out, data, num, 8, 0, width, ladjust, padc, 0);
800107f8:	8fc30028 	lw	v1,40(s8)
800107fc:	afa00020 	sw	zero,32(sp)
80010800:	83c2003c 	lb	v0,60(s8)
80010804:	00000000 	nop
80010808:	afa2001c 	sw	v0,28(sp)
8001080c:	8fc20038 	lw	v0,56(s8)
80010810:	00000000 	nop
80010814:	afa20018 	sw	v0,24(sp)
80010818:	8fc2002c 	lw	v0,44(s8)
8001081c:	00000000 	nop
80010820:	afa20014 	sw	v0,20(sp)
80010824:	afa00010 	sw	zero,16(sp)
80010828:	24070008 	li	a3,8
8001082c:	00603025 	move	a2,v1
80010830:	8fc50054 	lw	a1,84(s8)
80010834:	8fc40050 	lw	a0,80(s8)
80010838:	0c00438c 	jal	80010e30 <print_num>
8001083c:	00000000 	nop
/home/git/21373271/21373271/lib/print.c:103
			break;
80010840:	100000ab 	b	80010af0 <vprintfmt+0x6e0>
80010844:	00000000 	nop
/home/git/21373271/21373271/lib/print.c:107

		case 'u':
		case 'U':
			if (long_flag) {
80010848:	8fc20030 	lw	v0,48(s8)
8001084c:	00000000 	nop
80010850:	1040000a 	beqz	v0,8001087c <vprintfmt+0x46c>
80010854:	00000000 	nop
/home/git/21373271/21373271/lib/print.c:108
				num = va_arg(ap, long int);
80010858:	8fc2005c 	lw	v0,92(s8)
8001085c:	00000000 	nop
80010860:	24430004 	addiu	v1,v0,4
80010864:	afc3005c 	sw	v1,92(s8)
80010868:	8c420000 	lw	v0,0(v0)
8001086c:	00000000 	nop
80010870:	afc20028 	sw	v0,40(s8)
80010874:	10000008 	b	80010898 <vprintfmt+0x488>
80010878:	00000000 	nop
/home/git/21373271/21373271/lib/print.c:110
			} else {
				num = va_arg(ap, int);
8001087c:	8fc2005c 	lw	v0,92(s8)
80010880:	00000000 	nop
80010884:	24430004 	addiu	v1,v0,4
80010888:	afc3005c 	sw	v1,92(s8)
8001088c:	8c420000 	lw	v0,0(v0)
80010890:	00000000 	nop
80010894:	afc20028 	sw	v0,40(s8)
/home/git/21373271/21373271/lib/print.c:112
			}
			print_num(out, data, num, 10, 0, width, ladjust, padc, 0);
80010898:	8fc30028 	lw	v1,40(s8)
8001089c:	afa00020 	sw	zero,32(sp)
800108a0:	83c2003c 	lb	v0,60(s8)
800108a4:	00000000 	nop
800108a8:	afa2001c 	sw	v0,28(sp)
800108ac:	8fc20038 	lw	v0,56(s8)
800108b0:	00000000 	nop
800108b4:	afa20018 	sw	v0,24(sp)
800108b8:	8fc2002c 	lw	v0,44(s8)
800108bc:	00000000 	nop
800108c0:	afa20014 	sw	v0,20(sp)
800108c4:	afa00010 	sw	zero,16(sp)
800108c8:	2407000a 	li	a3,10
800108cc:	00603025 	move	a2,v1
800108d0:	8fc50054 	lw	a1,84(s8)
800108d4:	8fc40050 	lw	a0,80(s8)
800108d8:	0c00438c 	jal	80010e30 <print_num>
800108dc:	00000000 	nop
/home/git/21373271/21373271/lib/print.c:113
			break;
800108e0:	10000083 	b	80010af0 <vprintfmt+0x6e0>
800108e4:	00000000 	nop
/home/git/21373271/21373271/lib/print.c:116

		case 'x':
			if (long_flag) {
800108e8:	8fc20030 	lw	v0,48(s8)
800108ec:	00000000 	nop
800108f0:	1040000a 	beqz	v0,8001091c <vprintfmt+0x50c>
800108f4:	00000000 	nop
/home/git/21373271/21373271/lib/print.c:117
				num = va_arg(ap, long int);
800108f8:	8fc2005c 	lw	v0,92(s8)
800108fc:	00000000 	nop
80010900:	24430004 	addiu	v1,v0,4
80010904:	afc3005c 	sw	v1,92(s8)
80010908:	8c420000 	lw	v0,0(v0)
8001090c:	00000000 	nop
80010910:	afc20028 	sw	v0,40(s8)
80010914:	10000008 	b	80010938 <vprintfmt+0x528>
80010918:	00000000 	nop
/home/git/21373271/21373271/lib/print.c:119
			} else {
				num = va_arg(ap, int);
8001091c:	8fc2005c 	lw	v0,92(s8)
80010920:	00000000 	nop
80010924:	24430004 	addiu	v1,v0,4
80010928:	afc3005c 	sw	v1,92(s8)
8001092c:	8c420000 	lw	v0,0(v0)
80010930:	00000000 	nop
80010934:	afc20028 	sw	v0,40(s8)
/home/git/21373271/21373271/lib/print.c:121
			}
			print_num(out, data, num, 16, 0, width, ladjust, padc, 0);
80010938:	8fc30028 	lw	v1,40(s8)
8001093c:	afa00020 	sw	zero,32(sp)
80010940:	83c2003c 	lb	v0,60(s8)
80010944:	00000000 	nop
80010948:	afa2001c 	sw	v0,28(sp)
8001094c:	8fc20038 	lw	v0,56(s8)
80010950:	00000000 	nop
80010954:	afa20018 	sw	v0,24(sp)
80010958:	8fc2002c 	lw	v0,44(s8)
8001095c:	00000000 	nop
80010960:	afa20014 	sw	v0,20(sp)
80010964:	afa00010 	sw	zero,16(sp)
80010968:	24070010 	li	a3,16
8001096c:	00603025 	move	a2,v1
80010970:	8fc50054 	lw	a1,84(s8)
80010974:	8fc40050 	lw	a0,80(s8)
80010978:	0c00438c 	jal	80010e30 <print_num>
8001097c:	00000000 	nop
/home/git/21373271/21373271/lib/print.c:122
			break;
80010980:	1000005b 	b	80010af0 <vprintfmt+0x6e0>
80010984:	00000000 	nop
/home/git/21373271/21373271/lib/print.c:125

		case 'X':
			if (long_flag) {
80010988:	8fc20030 	lw	v0,48(s8)
8001098c:	00000000 	nop
80010990:	1040000a 	beqz	v0,800109bc <vprintfmt+0x5ac>
80010994:	00000000 	nop
/home/git/21373271/21373271/lib/print.c:126
				num = va_arg(ap, long int);
80010998:	8fc2005c 	lw	v0,92(s8)
8001099c:	00000000 	nop
800109a0:	24430004 	addiu	v1,v0,4
800109a4:	afc3005c 	sw	v1,92(s8)
800109a8:	8c420000 	lw	v0,0(v0)
800109ac:	00000000 	nop
800109b0:	afc20028 	sw	v0,40(s8)
800109b4:	10000008 	b	800109d8 <vprintfmt+0x5c8>
800109b8:	00000000 	nop
/home/git/21373271/21373271/lib/print.c:128
			} else {
				num = va_arg(ap, int);
800109bc:	8fc2005c 	lw	v0,92(s8)
800109c0:	00000000 	nop
800109c4:	24430004 	addiu	v1,v0,4
800109c8:	afc3005c 	sw	v1,92(s8)
800109cc:	8c420000 	lw	v0,0(v0)
800109d0:	00000000 	nop
800109d4:	afc20028 	sw	v0,40(s8)
/home/git/21373271/21373271/lib/print.c:130
			}
			print_num(out, data, num, 16, 0, width, ladjust, padc, 1);
800109d8:	8fc30028 	lw	v1,40(s8)
800109dc:	24020001 	li	v0,1
800109e0:	afa20020 	sw	v0,32(sp)
800109e4:	83c2003c 	lb	v0,60(s8)
800109e8:	00000000 	nop
800109ec:	afa2001c 	sw	v0,28(sp)
800109f0:	8fc20038 	lw	v0,56(s8)
800109f4:	00000000 	nop
800109f8:	afa20018 	sw	v0,24(sp)
800109fc:	8fc2002c 	lw	v0,44(s8)
80010a00:	00000000 	nop
80010a04:	afa20014 	sw	v0,20(sp)
80010a08:	afa00010 	sw	zero,16(sp)
80010a0c:	24070010 	li	a3,16
80010a10:	00603025 	move	a2,v1
80010a14:	8fc50054 	lw	a1,84(s8)
80010a18:	8fc40050 	lw	a0,80(s8)
80010a1c:	0c00438c 	jal	80010e30 <print_num>
80010a20:	00000000 	nop
/home/git/21373271/21373271/lib/print.c:131
			break;
80010a24:	10000032 	b	80010af0 <vprintfmt+0x6e0>
80010a28:	00000000 	nop
/home/git/21373271/21373271/lib/print.c:134

		case 'c':
			c = (char)va_arg(ap, int);
80010a2c:	8fc2005c 	lw	v0,92(s8)
80010a30:	00000000 	nop
80010a34:	24430004 	addiu	v1,v0,4
80010a38:	afc3005c 	sw	v1,92(s8)
80010a3c:	8c420000 	lw	v0,0(v0)
80010a40:	00000000 	nop
80010a44:	a3c20044 	sb	v0,68(s8)
/home/git/21373271/21373271/lib/print.c:135
			print_char(out, data, c, width, ladjust);
80010a48:	83c30044 	lb	v1,68(s8)
80010a4c:	8fc20038 	lw	v0,56(s8)
80010a50:	00000000 	nop
80010a54:	afa20010 	sw	v0,16(sp)
80010a58:	8fc7002c 	lw	a3,44(s8)
80010a5c:	00603025 	move	a2,v1
80010a60:	8fc50054 	lw	a1,84(s8)
80010a64:	8fc40050 	lw	a0,80(s8)
80010a68:	0c0042ca 	jal	80010b28 <print_char>
80010a6c:	00000000 	nop
/home/git/21373271/21373271/lib/print.c:136
			break;
80010a70:	1000001f 	b	80010af0 <vprintfmt+0x6e0>
80010a74:	00000000 	nop
/home/git/21373271/21373271/lib/print.c:139

		case 's':
			s = (char *)va_arg(ap, char *);
80010a78:	8fc2005c 	lw	v0,92(s8)
80010a7c:	00000000 	nop
80010a80:	24430004 	addiu	v1,v0,4
80010a84:	afc3005c 	sw	v1,92(s8)
80010a88:	8c420000 	lw	v0,0(v0)
80010a8c:	00000000 	nop
80010a90:	afc20040 	sw	v0,64(s8)
/home/git/21373271/21373271/lib/print.c:140
			print_str(out, data, s, width, ladjust);
80010a94:	8fc20038 	lw	v0,56(s8)
80010a98:	00000000 	nop
80010a9c:	afa20010 	sw	v0,16(sp)
80010aa0:	8fc7002c 	lw	a3,44(s8)
80010aa4:	8fc60040 	lw	a2,64(s8)
80010aa8:	8fc50054 	lw	a1,84(s8)
80010aac:	8fc40050 	lw	a0,80(s8)
80010ab0:	0c004321 	jal	80010c84 <print_str>
80010ab4:	00000000 	nop
/home/git/21373271/21373271/lib/print.c:141
			break;
80010ab8:	1000000d 	b	80010af0 <vprintfmt+0x6e0>
80010abc:	00000000 	nop
/home/git/21373271/21373271/lib/print.c:144

		case '\0':
			fmt--;
80010ac0:	8fc20058 	lw	v0,88(s8)
80010ac4:	00000000 	nop
80010ac8:	2442ffff 	addiu	v0,v0,-1
80010acc:	afc20058 	sw	v0,88(s8)
/home/git/21373271/21373271/lib/print.c:145
			break;
80010ad0:	10000007 	b	80010af0 <vprintfmt+0x6e0>
80010ad4:	00000000 	nop
/home/git/21373271/21373271/lib/print.c:149

		default:
			/* output this char as it is */
			out(data, fmt, 1);
80010ad8:	8fc20050 	lw	v0,80(s8)
80010adc:	24060001 	li	a2,1
80010ae0:	8fc50058 	lw	a1,88(s8)
80010ae4:	8fc40054 	lw	a0,84(s8)
80010ae8:	0040f809 	jalr	v0
80010aec:	00000000 	nop
/home/git/21373271/21373271/lib/print.c:151
		}
		fmt++;
80010af0:	8fc20058 	lw	v0,88(s8)
80010af4:	00000000 	nop
80010af8:	24420001 	addiu	v0,v0,1
80010afc:	afc20058 	sw	v0,88(s8)
/home/git/21373271/21373271/lib/print.c:20
		if ( *fmt != '%' )	
80010b00:	1000fe4b 	b	80010430 <vprintfmt+0x20>
80010b04:	00000000 	nop
	...
/home/git/21373271/21373271/lib/print.c:153
	}
}
80010b10:	03c0e825 	move	sp,s8
80010b14:	8fbf004c 	lw	ra,76(sp)
80010b18:	8fbe0048 	lw	s8,72(sp)
80010b1c:	27bd0050 	addiu	sp,sp,80
80010b20:	03e00008 	jr	ra
80010b24:	00000000 	nop

80010b28 <print_char>:
print_char():
/home/git/21373271/21373271/lib/print.c:156

/* --------------- local help functions --------------------- */
void print_char(fmt_callback_t out, void *data, char c, int length, int ladjust) {
80010b28:	27bdffe0 	addiu	sp,sp,-32
80010b2c:	afbf001c 	sw	ra,28(sp)
80010b30:	afbe0018 	sw	s8,24(sp)
80010b34:	03a0f025 	move	s8,sp
80010b38:	afc40020 	sw	a0,32(s8)
80010b3c:	afc50024 	sw	a1,36(s8)
80010b40:	00c01025 	move	v0,a2
80010b44:	afc7002c 	sw	a3,44(s8)
80010b48:	a3c20028 	sb	v0,40(s8)
/home/git/21373271/21373271/lib/print.c:159
	int i;

	if (length < 1) {
80010b4c:	8fc2002c 	lw	v0,44(s8)
80010b50:	00000000 	nop
80010b54:	1c400003 	bgtz	v0,80010b64 <print_char+0x3c>
80010b58:	00000000 	nop
/home/git/21373271/21373271/lib/print.c:160
		length = 1;
80010b5c:	24020001 	li	v0,1
80010b60:	afc2002c 	sw	v0,44(s8)
/home/git/21373271/21373271/lib/print.c:162
	}
	const char space = ' ';
80010b64:	24020020 	li	v0,32
80010b68:	a3c20014 	sb	v0,20(s8)
/home/git/21373271/21373271/lib/print.c:163
	if (ladjust) {
80010b6c:	8fc20030 	lw	v0,48(s8)
80010b70:	00000000 	nop
80010b74:	1040001f 	beqz	v0,80010bf4 <print_char+0xcc>
80010b78:	00000000 	nop
/home/git/21373271/21373271/lib/print.c:164
		out(data, &c, 1);
80010b7c:	27c30028 	addiu	v1,s8,40
80010b80:	8fc20020 	lw	v0,32(s8)
80010b84:	24060001 	li	a2,1
80010b88:	00602825 	move	a1,v1
80010b8c:	8fc40024 	lw	a0,36(s8)
80010b90:	0040f809 	jalr	v0
80010b94:	00000000 	nop
/home/git/21373271/21373271/lib/print.c:165
		for (i = 1; i < length; i++) {
80010b98:	24020001 	li	v0,1
80010b9c:	afc20010 	sw	v0,16(s8)
80010ba0:	1000000c 	b	80010bd4 <print_char+0xac>
80010ba4:	00000000 	nop
/home/git/21373271/21373271/lib/print.c:166 (discriminator 3)
			out(data, &space, 1);
80010ba8:	27c30014 	addiu	v1,s8,20
80010bac:	8fc20020 	lw	v0,32(s8)
80010bb0:	24060001 	li	a2,1
80010bb4:	00602825 	move	a1,v1
80010bb8:	8fc40024 	lw	a0,36(s8)
80010bbc:	0040f809 	jalr	v0
80010bc0:	00000000 	nop
/home/git/21373271/21373271/lib/print.c:165 (discriminator 3)
		for (i = 1; i < length; i++) {
80010bc4:	8fc20010 	lw	v0,16(s8)
80010bc8:	00000000 	nop
80010bcc:	24420001 	addiu	v0,v0,1
80010bd0:	afc20010 	sw	v0,16(s8)
/home/git/21373271/21373271/lib/print.c:165 (discriminator 1)
80010bd4:	8fc30010 	lw	v1,16(s8)
80010bd8:	8fc2002c 	lw	v0,44(s8)
80010bdc:	00000000 	nop
80010be0:	0062102a 	slt	v0,v1,v0
80010be4:	1440fff0 	bnez	v0,80010ba8 <print_char+0x80>
80010be8:	00000000 	nop
/home/git/21373271/21373271/lib/print.c:174
		for (i = 0; i < length - 1; i++) {
			out(data, &space, 1);
		}
		out(data, &c, 1);
	}
}
80010bec:	1000001e 	b	80010c68 <print_char+0x140>
80010bf0:	00000000 	nop
/home/git/21373271/21373271/lib/print.c:169
		for (i = 0; i < length - 1; i++) {
80010bf4:	afc00010 	sw	zero,16(s8)
80010bf8:	1000000c 	b	80010c2c <print_char+0x104>
80010bfc:	00000000 	nop
/home/git/21373271/21373271/lib/print.c:170 (discriminator 3)
			out(data, &space, 1);
80010c00:	27c30014 	addiu	v1,s8,20
80010c04:	8fc20020 	lw	v0,32(s8)
80010c08:	24060001 	li	a2,1
80010c0c:	00602825 	move	a1,v1
80010c10:	8fc40024 	lw	a0,36(s8)
80010c14:	0040f809 	jalr	v0
80010c18:	00000000 	nop
/home/git/21373271/21373271/lib/print.c:169 (discriminator 3)
		for (i = 0; i < length - 1; i++) {
80010c1c:	8fc20010 	lw	v0,16(s8)
80010c20:	00000000 	nop
80010c24:	24420001 	addiu	v0,v0,1
80010c28:	afc20010 	sw	v0,16(s8)
/home/git/21373271/21373271/lib/print.c:169 (discriminator 1)
80010c2c:	8fc2002c 	lw	v0,44(s8)
80010c30:	00000000 	nop
80010c34:	2442ffff 	addiu	v0,v0,-1
80010c38:	8fc30010 	lw	v1,16(s8)
80010c3c:	00000000 	nop
80010c40:	0062102a 	slt	v0,v1,v0
80010c44:	1440ffee 	bnez	v0,80010c00 <print_char+0xd8>
80010c48:	00000000 	nop
/home/git/21373271/21373271/lib/print.c:172
		out(data, &c, 1);
80010c4c:	27c30028 	addiu	v1,s8,40
80010c50:	8fc20020 	lw	v0,32(s8)
80010c54:	24060001 	li	a2,1
80010c58:	00602825 	move	a1,v1
80010c5c:	8fc40024 	lw	a0,36(s8)
80010c60:	0040f809 	jalr	v0
80010c64:	00000000 	nop
/home/git/21373271/21373271/lib/print.c:174
}
80010c68:	00000000 	nop
80010c6c:	03c0e825 	move	sp,s8
80010c70:	8fbf001c 	lw	ra,28(sp)
80010c74:	8fbe0018 	lw	s8,24(sp)
80010c78:	27bd0020 	addiu	sp,sp,32
80010c7c:	03e00008 	jr	ra
80010c80:	00000000 	nop

80010c84 <print_str>:
print_str():
/home/git/21373271/21373271/lib/print.c:176

void print_str(fmt_callback_t out, void *data, const char *s, int length, int ladjust) {
80010c84:	27bdffd8 	addiu	sp,sp,-40
80010c88:	afbf0024 	sw	ra,36(sp)
80010c8c:	afbe0020 	sw	s8,32(sp)
80010c90:	03a0f025 	move	s8,sp
80010c94:	afc40028 	sw	a0,40(s8)
80010c98:	afc5002c 	sw	a1,44(s8)
80010c9c:	afc60030 	sw	a2,48(s8)
80010ca0:	afc70034 	sw	a3,52(s8)
/home/git/21373271/21373271/lib/print.c:178
	int i;
	int len = 0;
80010ca4:	afc00014 	sw	zero,20(s8)
/home/git/21373271/21373271/lib/print.c:179
	const char *s1 = s;
80010ca8:	8fc20030 	lw	v0,48(s8)
80010cac:	00000000 	nop
80010cb0:	afc20018 	sw	v0,24(s8)
/home/git/21373271/21373271/lib/print.c:180
	while (*s1++) {
80010cb4:	10000005 	b	80010ccc <print_str+0x48>
80010cb8:	00000000 	nop
/home/git/21373271/21373271/lib/print.c:181
		len++;
80010cbc:	8fc20014 	lw	v0,20(s8)
80010cc0:	00000000 	nop
80010cc4:	24420001 	addiu	v0,v0,1
80010cc8:	afc20014 	sw	v0,20(s8)
/home/git/21373271/21373271/lib/print.c:180
	while (*s1++) {
80010ccc:	8fc20018 	lw	v0,24(s8)
80010cd0:	00000000 	nop
80010cd4:	24430001 	addiu	v1,v0,1
80010cd8:	afc30018 	sw	v1,24(s8)
80010cdc:	80420000 	lb	v0,0(v0)
80010ce0:	00000000 	nop
80010ce4:	1440fff5 	bnez	v0,80010cbc <print_str+0x38>
80010ce8:	00000000 	nop
/home/git/21373271/21373271/lib/print.c:183
	}
	if (length < len) {
80010cec:	8fc30034 	lw	v1,52(s8)
80010cf0:	8fc20014 	lw	v0,20(s8)
80010cf4:	00000000 	nop
80010cf8:	0062102a 	slt	v0,v1,v0
80010cfc:	10400004 	beqz	v0,80010d10 <print_str+0x8c>
80010d00:	00000000 	nop
/home/git/21373271/21373271/lib/print.c:184
		length = len;
80010d04:	8fc20014 	lw	v0,20(s8)
80010d08:	00000000 	nop
80010d0c:	afc20034 	sw	v0,52(s8)
/home/git/21373271/21373271/lib/print.c:187
	}

	if (ladjust) {
80010d10:	8fc20038 	lw	v0,56(s8)
80010d14:	00000000 	nop
80010d18:	10400020 	beqz	v0,80010d9c <print_str+0x118>
80010d1c:	00000000 	nop
/home/git/21373271/21373271/lib/print.c:188
		out(data, s, len);
80010d20:	8fc30014 	lw	v1,20(s8)
80010d24:	8fc20028 	lw	v0,40(s8)
80010d28:	00603025 	move	a2,v1
80010d2c:	8fc50030 	lw	a1,48(s8)
80010d30:	8fc4002c 	lw	a0,44(s8)
80010d34:	0040f809 	jalr	v0
80010d38:	00000000 	nop
/home/git/21373271/21373271/lib/print.c:189
		for (i = len; i < length; i++) {
80010d3c:	8fc20014 	lw	v0,20(s8)
80010d40:	00000000 	nop
80010d44:	afc20010 	sw	v0,16(s8)
80010d48:	1000000c 	b	80010d7c <print_str+0xf8>
80010d4c:	00000000 	nop
/home/git/21373271/21373271/lib/print.c:190 (discriminator 3)
			out(data, " ", 1);
80010d50:	8fc20028 	lw	v0,40(s8)
80010d54:	24060001 	li	a2,1
80010d58:	3c038001 	lui	v1,0x8001
80010d5c:	24655084 	addiu	a1,v1,20612
80010d60:	8fc4002c 	lw	a0,44(s8)
80010d64:	0040f809 	jalr	v0
80010d68:	00000000 	nop
/home/git/21373271/21373271/lib/print.c:189 (discriminator 3)
		for (i = len; i < length; i++) {
80010d6c:	8fc20010 	lw	v0,16(s8)
80010d70:	00000000 	nop
80010d74:	24420001 	addiu	v0,v0,1
80010d78:	afc20010 	sw	v0,16(s8)
/home/git/21373271/21373271/lib/print.c:189 (discriminator 1)
80010d7c:	8fc30010 	lw	v1,16(s8)
80010d80:	8fc20034 	lw	v0,52(s8)
80010d84:	00000000 	nop
80010d88:	0062102a 	slt	v0,v1,v0
80010d8c:	1440fff0 	bnez	v0,80010d50 <print_str+0xcc>
80010d90:	00000000 	nop
/home/git/21373271/21373271/lib/print.c:198
		for (i = 0; i < length - len; i++) {
			out(data, " ", 1);
		}
		out(data, s, len);
	}
}
80010d94:	1000001f 	b	80010e14 <print_str+0x190>
80010d98:	00000000 	nop
/home/git/21373271/21373271/lib/print.c:193
		for (i = 0; i < length - len; i++) {
80010d9c:	afc00010 	sw	zero,16(s8)
80010da0:	1000000c 	b	80010dd4 <print_str+0x150>
80010da4:	00000000 	nop
/home/git/21373271/21373271/lib/print.c:194 (discriminator 3)
			out(data, " ", 1);
80010da8:	8fc20028 	lw	v0,40(s8)
80010dac:	24060001 	li	a2,1
80010db0:	3c038001 	lui	v1,0x8001
80010db4:	24655084 	addiu	a1,v1,20612
80010db8:	8fc4002c 	lw	a0,44(s8)
80010dbc:	0040f809 	jalr	v0
80010dc0:	00000000 	nop
/home/git/21373271/21373271/lib/print.c:193 (discriminator 3)
		for (i = 0; i < length - len; i++) {
80010dc4:	8fc20010 	lw	v0,16(s8)
80010dc8:	00000000 	nop
80010dcc:	24420001 	addiu	v0,v0,1
80010dd0:	afc20010 	sw	v0,16(s8)
/home/git/21373271/21373271/lib/print.c:193 (discriminator 1)
80010dd4:	8fc30034 	lw	v1,52(s8)
80010dd8:	8fc20014 	lw	v0,20(s8)
80010ddc:	00000000 	nop
80010de0:	00621023 	subu	v0,v1,v0
80010de4:	8fc30010 	lw	v1,16(s8)
80010de8:	00000000 	nop
80010dec:	0062102a 	slt	v0,v1,v0
80010df0:	1440ffed 	bnez	v0,80010da8 <print_str+0x124>
80010df4:	00000000 	nop
/home/git/21373271/21373271/lib/print.c:196
		out(data, s, len);
80010df8:	8fc30014 	lw	v1,20(s8)
80010dfc:	8fc20028 	lw	v0,40(s8)
80010e00:	00603025 	move	a2,v1
80010e04:	8fc50030 	lw	a1,48(s8)
80010e08:	8fc4002c 	lw	a0,44(s8)
80010e0c:	0040f809 	jalr	v0
80010e10:	00000000 	nop
/home/git/21373271/21373271/lib/print.c:198
}
80010e14:	00000000 	nop
80010e18:	03c0e825 	move	sp,s8
80010e1c:	8fbf0024 	lw	ra,36(sp)
80010e20:	8fbe0020 	lw	s8,32(sp)
80010e24:	27bd0028 	addiu	sp,sp,40
80010e28:	03e00008 	jr	ra
80010e2c:	00000000 	nop

80010e30 <print_num>:
print_num():
/home/git/21373271/21373271/lib/print.c:201

void print_num(fmt_callback_t out, void *data, unsigned long u, int base, int neg_flag, int length,
	       int ladjust, char padc, int upcase) {
80010e30:	27bdffb8 	addiu	sp,sp,-72
80010e34:	afbf0044 	sw	ra,68(sp)
80010e38:	afbe0040 	sw	s8,64(sp)
80010e3c:	afb0003c 	sw	s0,60(sp)
80010e40:	03a0f025 	move	s8,sp
80010e44:	afc40048 	sw	a0,72(s8)
80010e48:	afc5004c 	sw	a1,76(s8)
80010e4c:	afc60050 	sw	a2,80(s8)
80010e50:	afc70054 	sw	a3,84(s8)
80010e54:	03a02025 	move	a0,sp
80010e58:	00808025 	move	s0,a0
/home/git/21373271/21373271/lib/print.c:212
	 *		    if negtive, insert  "0" padding between "0" and number.
	 *  3. if (!ladjust) we reverse the whole string including paddings
	 *  4. otherwise we only reverse the actual string representing the num.
	 */

	int actualLength = 0;
80010e5c:	afc00020 	sw	zero,32(s8)
/home/git/21373271/21373271/lib/print.c:213
	char buf[length + 70];
80010e60:	8fc4005c 	lw	a0,92(s8)
80010e64:	00000000 	nop
80010e68:	24840046 	addiu	a0,a0,70
80010e6c:	2485ffff 	addiu	a1,a0,-1
80010e70:	afc50024 	sw	a1,36(s8)
80010e74:	00802825 	move	a1,a0
80010e78:	00a06025 	move	t4,a1
80010e7c:	00006825 	move	t5,zero
80010e80:	000c2f42 	srl	a1,t4,0x1d
80010e84:	000d48c0 	sll	t1,t5,0x3
80010e88:	00a94825 	or	t1,a1,t1
80010e8c:	000c40c0 	sll	t0,t4,0x3
80010e90:	00802825 	move	a1,a0
80010e94:	00a05025 	move	t2,a1
80010e98:	00005825 	move	t3,zero
80010e9c:	000a2f42 	srl	a1,t2,0x1d
80010ea0:	000b18c0 	sll	v1,t3,0x3
80010ea4:	00a31825 	or	v1,a1,v1
80010ea8:	000a10c0 	sll	v0,t2,0x3
80010eac:	00801025 	move	v0,a0
80010eb0:	24420007 	addiu	v0,v0,7
80010eb4:	000210c2 	srl	v0,v0,0x3
80010eb8:	000210c0 	sll	v0,v0,0x3
80010ebc:	03a2e823 	subu	sp,sp,v0
80010ec0:	27a20010 	addiu	v0,sp,16
80010ec4:	24420000 	addiu	v0,v0,0
80010ec8:	afc20028 	sw	v0,40(s8)
/home/git/21373271/21373271/lib/print.c:214
	char *p = buf;
80010ecc:	8fc20028 	lw	v0,40(s8)
80010ed0:	00000000 	nop
80010ed4:	afc20010 	sw	v0,16(s8)
/home/git/21373271/21373271/lib/print.c:218
	int i;

	do {
		int tmp = u % base;
80010ed8:	8fc20054 	lw	v0,84(s8)
80010edc:	8fc30050 	lw	v1,80(s8)
80010ee0:	00000000 	nop
80010ee4:	0062001b 	divu	zero,v1,v0
80010ee8:	14400002 	bnez	v0,80010ef4 <print_num+0xc4>
80010eec:	00000000 	nop
80010ef0:	0007000d 	break	0x7
80010ef4:	00001010 	mfhi	v0
80010ef8:	afc2002c 	sw	v0,44(s8)
/home/git/21373271/21373271/lib/print.c:219
		if (tmp <= 9) {
80010efc:	8fc2002c 	lw	v0,44(s8)
80010f00:	00000000 	nop
80010f04:	2842000a 	slti	v0,v0,10
80010f08:	1040000f 	beqz	v0,80010f48 <print_num+0x118>
80010f0c:	00000000 	nop
/home/git/21373271/21373271/lib/print.c:220
			*p++ = '0' + tmp;
80010f10:	8fc2002c 	lw	v0,44(s8)
80010f14:	00000000 	nop
80010f18:	304200ff 	andi	v0,v0,0xff
80010f1c:	24420030 	addiu	v0,v0,48
80010f20:	304400ff 	andi	a0,v0,0xff
80010f24:	8fc20010 	lw	v0,16(s8)
80010f28:	00000000 	nop
80010f2c:	24430001 	addiu	v1,v0,1
80010f30:	afc30010 	sw	v1,16(s8)
80010f34:	00041e00 	sll	v1,a0,0x18
80010f38:	00031e03 	sra	v1,v1,0x18
80010f3c:	a0430000 	sb	v1,0(v0)
80010f40:	1000001f 	b	80010fc0 <print_num+0x190>
80010f44:	00000000 	nop
/home/git/21373271/21373271/lib/print.c:221
		} else if (upcase) {
80010f48:	8fc20068 	lw	v0,104(s8)
80010f4c:	00000000 	nop
80010f50:	1040000f 	beqz	v0,80010f90 <print_num+0x160>
80010f54:	00000000 	nop
/home/git/21373271/21373271/lib/print.c:222
			*p++ = 'A' + tmp - 10;
80010f58:	8fc2002c 	lw	v0,44(s8)
80010f5c:	00000000 	nop
80010f60:	304200ff 	andi	v0,v0,0xff
80010f64:	24420037 	addiu	v0,v0,55
80010f68:	304400ff 	andi	a0,v0,0xff
80010f6c:	8fc20010 	lw	v0,16(s8)
80010f70:	00000000 	nop
80010f74:	24430001 	addiu	v1,v0,1
80010f78:	afc30010 	sw	v1,16(s8)
80010f7c:	00041e00 	sll	v1,a0,0x18
80010f80:	00031e03 	sra	v1,v1,0x18
80010f84:	a0430000 	sb	v1,0(v0)
80010f88:	1000000d 	b	80010fc0 <print_num+0x190>
80010f8c:	00000000 	nop
/home/git/21373271/21373271/lib/print.c:224
		} else {
			*p++ = 'a' + tmp - 10;
80010f90:	8fc2002c 	lw	v0,44(s8)
80010f94:	00000000 	nop
80010f98:	304200ff 	andi	v0,v0,0xff
80010f9c:	24420057 	addiu	v0,v0,87
80010fa0:	304400ff 	andi	a0,v0,0xff
80010fa4:	8fc20010 	lw	v0,16(s8)
80010fa8:	00000000 	nop
80010fac:	24430001 	addiu	v1,v0,1
80010fb0:	afc30010 	sw	v1,16(s8)
80010fb4:	00041e00 	sll	v1,a0,0x18
80010fb8:	00031e03 	sra	v1,v1,0x18
80010fbc:	a0430000 	sb	v1,0(v0)
/home/git/21373271/21373271/lib/print.c:226
		}
		u /= base;
80010fc0:	8fc20054 	lw	v0,84(s8)
80010fc4:	8fc30050 	lw	v1,80(s8)
80010fc8:	00000000 	nop
80010fcc:	0062001b 	divu	zero,v1,v0
80010fd0:	14400002 	bnez	v0,80010fdc <print_num+0x1ac>
80010fd4:	00000000 	nop
80010fd8:	0007000d 	break	0x7
80010fdc:	00001010 	mfhi	v0
80010fe0:	00001012 	mflo	v0
80010fe4:	afc20050 	sw	v0,80(s8)
/home/git/21373271/21373271/lib/print.c:227
	} while (u != 0);
80010fe8:	8fc20050 	lw	v0,80(s8)
80010fec:	00000000 	nop
80010ff0:	1440ffb9 	bnez	v0,80010ed8 <print_num+0xa8>
80010ff4:	00000000 	nop
/home/git/21373271/21373271/lib/print.c:229

	if (neg_flag) {
80010ff8:	8fc20058 	lw	v0,88(s8)
80010ffc:	00000000 	nop
80011000:	10400007 	beqz	v0,80011020 <print_num+0x1f0>
80011004:	00000000 	nop
/home/git/21373271/21373271/lib/print.c:230
		*p++ = '-';
80011008:	8fc20010 	lw	v0,16(s8)
8001100c:	00000000 	nop
80011010:	24430001 	addiu	v1,v0,1
80011014:	afc30010 	sw	v1,16(s8)
80011018:	2403002d 	li	v1,45
8001101c:	a0430000 	sb	v1,0(v0)
/home/git/21373271/21373271/lib/print.c:234
	}

	/* figure out actual length and adjust the maximum length */
	actualLength = p - buf;
80011020:	8fc30010 	lw	v1,16(s8)
80011024:	8fc20028 	lw	v0,40(s8)
80011028:	00000000 	nop
8001102c:	00621023 	subu	v0,v1,v0
80011030:	afc20020 	sw	v0,32(s8)
/home/git/21373271/21373271/lib/print.c:235
	if (length < actualLength) {
80011034:	8fc3005c 	lw	v1,92(s8)
80011038:	8fc20020 	lw	v0,32(s8)
8001103c:	00000000 	nop
80011040:	0062102a 	slt	v0,v1,v0
80011044:	10400004 	beqz	v0,80011058 <print_num+0x228>
80011048:	00000000 	nop
/home/git/21373271/21373271/lib/print.c:236
		length = actualLength;
8001104c:	8fc20020 	lw	v0,32(s8)
80011050:	00000000 	nop
80011054:	afc2005c 	sw	v0,92(s8)
/home/git/21373271/21373271/lib/print.c:240
	}

	/* add padding */
	if (ladjust) {
80011058:	8fc20060 	lw	v0,96(s8)
8001105c:	00000000 	nop
80011060:	10400003 	beqz	v0,80011070 <print_num+0x240>
80011064:	00000000 	nop
/home/git/21373271/21373271/lib/print.c:241
		padc = ' ';
80011068:	24020020 	li	v0,32
8001106c:	a3c20064 	sb	v0,100(s8)
/home/git/21373271/21373271/lib/print.c:243
	}
	if (neg_flag && !ladjust && (padc == '0')) {
80011070:	8fc20058 	lw	v0,88(s8)
80011074:	00000000 	nop
80011078:	1040002c 	beqz	v0,8001112c <print_num+0x2fc>
8001107c:	00000000 	nop
/home/git/21373271/21373271/lib/print.c:243 (discriminator 1)
80011080:	8fc20060 	lw	v0,96(s8)
80011084:	00000000 	nop
80011088:	14400028 	bnez	v0,8001112c <print_num+0x2fc>
8001108c:	00000000 	nop
/home/git/21373271/21373271/lib/print.c:243 (discriminator 2)
80011090:	83c30064 	lb	v1,100(s8)
80011094:	24020030 	li	v0,48
80011098:	14620024 	bne	v1,v0,8001112c <print_num+0x2fc>
8001109c:	00000000 	nop
/home/git/21373271/21373271/lib/print.c:244
		for (i = actualLength - 1; i < length - 1; i++) {
800110a0:	8fc20020 	lw	v0,32(s8)
800110a4:	00000000 	nop
800110a8:	2442ffff 	addiu	v0,v0,-1
800110ac:	afc20014 	sw	v0,20(s8)
800110b0:	1000000c 	b	800110e4 <print_num+0x2b4>
800110b4:	00000000 	nop
/home/git/21373271/21373271/lib/print.c:245 (discriminator 3)
			buf[i] = padc;
800110b8:	8fc30028 	lw	v1,40(s8)
800110bc:	8fc20014 	lw	v0,20(s8)
800110c0:	00000000 	nop
800110c4:	00621021 	addu	v0,v1,v0
800110c8:	93c30064 	lbu	v1,100(s8)
800110cc:	00000000 	nop
800110d0:	a0430000 	sb	v1,0(v0)
/home/git/21373271/21373271/lib/print.c:244 (discriminator 3)
		for (i = actualLength - 1; i < length - 1; i++) {
800110d4:	8fc20014 	lw	v0,20(s8)
800110d8:	00000000 	nop
800110dc:	24420001 	addiu	v0,v0,1
800110e0:	afc20014 	sw	v0,20(s8)
/home/git/21373271/21373271/lib/print.c:244 (discriminator 1)
800110e4:	8fc2005c 	lw	v0,92(s8)
800110e8:	00000000 	nop
800110ec:	2442ffff 	addiu	v0,v0,-1
800110f0:	8fc30014 	lw	v1,20(s8)
800110f4:	00000000 	nop
800110f8:	0062102a 	slt	v0,v1,v0
800110fc:	1440ffee 	bnez	v0,800110b8 <print_num+0x288>
80011100:	00000000 	nop
/home/git/21373271/21373271/lib/print.c:247
		}
		buf[length - 1] = '-';
80011104:	8fc2005c 	lw	v0,92(s8)
80011108:	00000000 	nop
8001110c:	2442ffff 	addiu	v0,v0,-1
80011110:	8fc30028 	lw	v1,40(s8)
80011114:	00000000 	nop
80011118:	00621021 	addu	v0,v1,v0
8001111c:	2403002d 	li	v1,45
80011120:	a0430000 	sb	v1,0(v0)
80011124:	10000017 	b	80011184 <print_num+0x354>
80011128:	00000000 	nop
/home/git/21373271/21373271/lib/print.c:249
	} else {
		for (i = actualLength; i < length; i++) {
8001112c:	8fc20020 	lw	v0,32(s8)
80011130:	00000000 	nop
80011134:	afc20014 	sw	v0,20(s8)
80011138:	1000000c 	b	8001116c <print_num+0x33c>
8001113c:	00000000 	nop
/home/git/21373271/21373271/lib/print.c:250 (discriminator 3)
			buf[i] = padc;
80011140:	8fc30028 	lw	v1,40(s8)
80011144:	8fc20014 	lw	v0,20(s8)
80011148:	00000000 	nop
8001114c:	00621021 	addu	v0,v1,v0
80011150:	93c30064 	lbu	v1,100(s8)
80011154:	00000000 	nop
80011158:	a0430000 	sb	v1,0(v0)
/home/git/21373271/21373271/lib/print.c:249 (discriminator 3)
		for (i = actualLength; i < length; i++) {
8001115c:	8fc20014 	lw	v0,20(s8)
80011160:	00000000 	nop
80011164:	24420001 	addiu	v0,v0,1
80011168:	afc20014 	sw	v0,20(s8)
/home/git/21373271/21373271/lib/print.c:249 (discriminator 1)
8001116c:	8fc30014 	lw	v1,20(s8)
80011170:	8fc2005c 	lw	v0,92(s8)
80011174:	00000000 	nop
80011178:	0062102a 	slt	v0,v1,v0
8001117c:	1440fff0 	bnez	v0,80011140 <print_num+0x310>
80011180:	00000000 	nop
/home/git/21373271/21373271/lib/print.c:255
		}
	}

	/* prepare to reverse the string */
	int begin = 0;
80011184:	afc00018 	sw	zero,24(s8)
/home/git/21373271/21373271/lib/print.c:257
	int end;
	if (ladjust) {
80011188:	8fc20060 	lw	v0,96(s8)
8001118c:	00000000 	nop
80011190:	10400007 	beqz	v0,800111b0 <print_num+0x380>
80011194:	00000000 	nop
/home/git/21373271/21373271/lib/print.c:258
		end = actualLength - 1;
80011198:	8fc20020 	lw	v0,32(s8)
8001119c:	00000000 	nop
800111a0:	2442ffff 	addiu	v0,v0,-1
800111a4:	afc2001c 	sw	v0,28(s8)
800111a8:	10000027 	b	80011248 <print_num+0x418>
800111ac:	00000000 	nop
/home/git/21373271/21373271/lib/print.c:260
	} else {
		end = length - 1;
800111b0:	8fc2005c 	lw	v0,92(s8)
800111b4:	00000000 	nop
800111b8:	2442ffff 	addiu	v0,v0,-1
800111bc:	afc2001c 	sw	v0,28(s8)
/home/git/21373271/21373271/lib/print.c:264
	}

	/* adjust the string pointer */
	while (end > begin) {
800111c0:	10000021 	b	80011248 <print_num+0x418>
800111c4:	00000000 	nop
/home/git/21373271/21373271/lib/print.c:265
		char tmp = buf[begin];
800111c8:	8fc30028 	lw	v1,40(s8)
800111cc:	8fc20018 	lw	v0,24(s8)
800111d0:	00000000 	nop
800111d4:	00621021 	addu	v0,v1,v0
800111d8:	90420000 	lbu	v0,0(v0)
800111dc:	00000000 	nop
800111e0:	a3c20030 	sb	v0,48(s8)
/home/git/21373271/21373271/lib/print.c:266
		buf[begin] = buf[end];
800111e4:	8fc30028 	lw	v1,40(s8)
800111e8:	8fc2001c 	lw	v0,28(s8)
800111ec:	00000000 	nop
800111f0:	00621021 	addu	v0,v1,v0
800111f4:	80430000 	lb	v1,0(v0)
800111f8:	8fc40028 	lw	a0,40(s8)
800111fc:	8fc20018 	lw	v0,24(s8)
80011200:	00000000 	nop
80011204:	00821021 	addu	v0,a0,v0
80011208:	a0430000 	sb	v1,0(v0)
/home/git/21373271/21373271/lib/print.c:267
		buf[end] = tmp;
8001120c:	8fc30028 	lw	v1,40(s8)
80011210:	8fc2001c 	lw	v0,28(s8)
80011214:	00000000 	nop
80011218:	00621021 	addu	v0,v1,v0
8001121c:	93c30030 	lbu	v1,48(s8)
80011220:	00000000 	nop
80011224:	a0430000 	sb	v1,0(v0)
/home/git/21373271/21373271/lib/print.c:268
		begin++;
80011228:	8fc20018 	lw	v0,24(s8)
8001122c:	00000000 	nop
80011230:	24420001 	addiu	v0,v0,1
80011234:	afc20018 	sw	v0,24(s8)
/home/git/21373271/21373271/lib/print.c:269
		end--;
80011238:	8fc2001c 	lw	v0,28(s8)
8001123c:	00000000 	nop
80011240:	2442ffff 	addiu	v0,v0,-1
80011244:	afc2001c 	sw	v0,28(s8)
/home/git/21373271/21373271/lib/print.c:264
	while (end > begin) {
80011248:	8fc3001c 	lw	v1,28(s8)
8001124c:	8fc20018 	lw	v0,24(s8)
80011250:	00000000 	nop
80011254:	0043102a 	slt	v0,v0,v1
80011258:	1440ffdb 	bnez	v0,800111c8 <print_num+0x398>
8001125c:	00000000 	nop
/home/git/21373271/21373271/lib/print.c:272
	}

	out(data, buf, length);
80011260:	8fc3005c 	lw	v1,92(s8)
80011264:	8fc20048 	lw	v0,72(s8)
80011268:	00603025 	move	a2,v1
8001126c:	8fc50028 	lw	a1,40(s8)
80011270:	8fc4004c 	lw	a0,76(s8)
80011274:	0040f809 	jalr	v0
80011278:	00000000 	nop
8001127c:	0200e825 	move	sp,s0
/home/git/21373271/21373271/lib/print.c:273
}
80011280:	00000000 	nop
80011284:	03c0e825 	move	sp,s8
80011288:	8fbf0044 	lw	ra,68(sp)
8001128c:	8fbe0040 	lw	s8,64(sp)
80011290:	8fb0003c 	lw	s0,60(sp)
80011294:	27bd0048 	addiu	sp,sp,72
80011298:	03e00008 	jr	ra
8001129c:	00000000 	nop

800112a0 <memcpy>:
memcpy():
/home/git/21373271/21373271/lib/string.c:3
#include <types.h>

void *memcpy(void *dst, const void *src, size_t n) {
800112a0:	27bdfff0 	addiu	sp,sp,-16
800112a4:	afbe000c 	sw	s8,12(sp)
800112a8:	03a0f025 	move	s8,sp
800112ac:	afc40010 	sw	a0,16(s8)
800112b0:	afc50014 	sw	a1,20(s8)
800112b4:	afc60018 	sw	a2,24(s8)
/home/git/21373271/21373271/lib/string.c:4
	void *dstaddr = dst;
800112b8:	8fc20010 	lw	v0,16(s8)
800112bc:	00000000 	nop
800112c0:	afc20000 	sw	v0,0(s8)
/home/git/21373271/21373271/lib/string.c:5
	void *max = dst + n;
800112c4:	8fc30010 	lw	v1,16(s8)
800112c8:	8fc20018 	lw	v0,24(s8)
800112cc:	00000000 	nop
800112d0:	00621021 	addu	v0,v1,v0
800112d4:	afc20004 	sw	v0,4(s8)
/home/git/21373271/21373271/lib/string.c:7

	if (((u_long)src & 3) != ((u_long)dst & 3)) {
800112d8:	8fc30014 	lw	v1,20(s8)
800112dc:	8fc20010 	lw	v0,16(s8)
800112e0:	00000000 	nop
800112e4:	00621026 	xor	v0,v1,v0
800112e8:	30420003 	andi	v0,v0,0x3
800112ec:	10400022 	beqz	v0,80011378 <memcpy+0xd8>
800112f0:	00000000 	nop
/home/git/21373271/21373271/lib/string.c:8
		while (dst < max) {
800112f4:	1000000c 	b	80011328 <memcpy+0x88>
800112f8:	00000000 	nop
/home/git/21373271/21373271/lib/string.c:9
			*(char *)dst++ = *(char *)src++;
800112fc:	8fc30014 	lw	v1,20(s8)
80011300:	00000000 	nop
80011304:	24620001 	addiu	v0,v1,1
80011308:	afc20014 	sw	v0,20(s8)
8001130c:	8fc20010 	lw	v0,16(s8)
80011310:	00000000 	nop
80011314:	24440001 	addiu	a0,v0,1
80011318:	afc40010 	sw	a0,16(s8)
8001131c:	80630000 	lb	v1,0(v1)
80011320:	00000000 	nop
80011324:	a0430000 	sb	v1,0(v0)
/home/git/21373271/21373271/lib/string.c:8
		while (dst < max) {
80011328:	8fc30010 	lw	v1,16(s8)
8001132c:	8fc20004 	lw	v0,4(s8)
80011330:	00000000 	nop
80011334:	0062102b 	sltu	v0,v1,v0
80011338:	1440fff0 	bnez	v0,800112fc <memcpy+0x5c>
8001133c:	00000000 	nop
/home/git/21373271/21373271/lib/string.c:11
		}
		return dstaddr;
80011340:	8fc20000 	lw	v0,0(s8)
80011344:	10000043 	b	80011454 <memcpy+0x1b4>
80011348:	00000000 	nop
/home/git/21373271/21373271/lib/string.c:15
	}

	while (((u_long)dst & 3) && dst < max) {
		*(char *)dst++ = *(char *)src++;
8001134c:	8fc30014 	lw	v1,20(s8)
80011350:	00000000 	nop
80011354:	24620001 	addiu	v0,v1,1
80011358:	afc20014 	sw	v0,20(s8)
8001135c:	8fc20010 	lw	v0,16(s8)
80011360:	00000000 	nop
80011364:	24440001 	addiu	a0,v0,1
80011368:	afc40010 	sw	a0,16(s8)
8001136c:	80630000 	lb	v1,0(v1)
80011370:	00000000 	nop
80011374:	a0430000 	sb	v1,0(v0)
/home/git/21373271/21373271/lib/string.c:14
	while (((u_long)dst & 3) && dst < max) {
80011378:	8fc20010 	lw	v0,16(s8)
8001137c:	00000000 	nop
80011380:	30420003 	andi	v0,v0,0x3
80011384:	10400017 	beqz	v0,800113e4 <memcpy+0x144>
80011388:	00000000 	nop
/home/git/21373271/21373271/lib/string.c:14 (discriminator 1)
8001138c:	8fc30010 	lw	v1,16(s8)
80011390:	8fc20004 	lw	v0,4(s8)
80011394:	00000000 	nop
80011398:	0062102b 	sltu	v0,v1,v0
8001139c:	1440ffeb 	bnez	v0,8001134c <memcpy+0xac>
800113a0:	00000000 	nop
/home/git/21373271/21373271/lib/string.c:19
	}

	// copy machine words while possible
	while (dst + 4 <= max) {
800113a4:	1000000f 	b	800113e4 <memcpy+0x144>
800113a8:	00000000 	nop
/home/git/21373271/21373271/lib/string.c:20
		*(uint32_t *)dst = *(uint32_t *)src;
800113ac:	8fc20014 	lw	v0,20(s8)
800113b0:	00000000 	nop
800113b4:	8c430000 	lw	v1,0(v0)
800113b8:	8fc20010 	lw	v0,16(s8)
800113bc:	00000000 	nop
800113c0:	ac430000 	sw	v1,0(v0)
/home/git/21373271/21373271/lib/string.c:21
		dst += 4;
800113c4:	8fc20010 	lw	v0,16(s8)
800113c8:	00000000 	nop
800113cc:	24420004 	addiu	v0,v0,4
800113d0:	afc20010 	sw	v0,16(s8)
/home/git/21373271/21373271/lib/string.c:22
		src += 4;
800113d4:	8fc20014 	lw	v0,20(s8)
800113d8:	00000000 	nop
800113dc:	24420004 	addiu	v0,v0,4
800113e0:	afc20014 	sw	v0,20(s8)
/home/git/21373271/21373271/lib/string.c:19
	while (dst + 4 <= max) {
800113e4:	8fc20010 	lw	v0,16(s8)
800113e8:	00000000 	nop
800113ec:	24420004 	addiu	v0,v0,4
800113f0:	8fc30004 	lw	v1,4(s8)
800113f4:	00000000 	nop
800113f8:	0062102b 	sltu	v0,v1,v0
800113fc:	1040ffeb 	beqz	v0,800113ac <memcpy+0x10c>
80011400:	00000000 	nop
/home/git/21373271/21373271/lib/string.c:26
	}

	// finish the remaining 0-3 bytes
	while (dst < max) {
80011404:	1000000c 	b	80011438 <memcpy+0x198>
80011408:	00000000 	nop
/home/git/21373271/21373271/lib/string.c:27
		*(char *)dst++ = *(char *)src++;
8001140c:	8fc30014 	lw	v1,20(s8)
80011410:	00000000 	nop
80011414:	24620001 	addiu	v0,v1,1
80011418:	afc20014 	sw	v0,20(s8)
8001141c:	8fc20010 	lw	v0,16(s8)
80011420:	00000000 	nop
80011424:	24440001 	addiu	a0,v0,1
80011428:	afc40010 	sw	a0,16(s8)
8001142c:	80630000 	lb	v1,0(v1)
80011430:	00000000 	nop
80011434:	a0430000 	sb	v1,0(v0)
/home/git/21373271/21373271/lib/string.c:26
	while (dst < max) {
80011438:	8fc30010 	lw	v1,16(s8)
8001143c:	8fc20004 	lw	v0,4(s8)
80011440:	00000000 	nop
80011444:	0062102b 	sltu	v0,v1,v0
80011448:	1440fff0 	bnez	v0,8001140c <memcpy+0x16c>
8001144c:	00000000 	nop
/home/git/21373271/21373271/lib/string.c:29
	}
	return dstaddr;
80011450:	8fc20000 	lw	v0,0(s8)
/home/git/21373271/21373271/lib/string.c:30
}
80011454:	03c0e825 	move	sp,s8
80011458:	8fbe000c 	lw	s8,12(sp)
8001145c:	27bd0010 	addiu	sp,sp,16
80011460:	03e00008 	jr	ra
80011464:	00000000 	nop

80011468 <memset>:
memset():
/home/git/21373271/21373271/lib/string.c:32

void *memset(void *dst, int c, size_t n) {
80011468:	27bdffe8 	addiu	sp,sp,-24
8001146c:	afbe0014 	sw	s8,20(sp)
80011470:	03a0f025 	move	s8,sp
80011474:	afc40018 	sw	a0,24(s8)
80011478:	afc5001c 	sw	a1,28(s8)
8001147c:	afc60020 	sw	a2,32(s8)
/home/git/21373271/21373271/lib/string.c:33
	void *dstaddr = dst;
80011480:	8fc20018 	lw	v0,24(s8)
80011484:	00000000 	nop
80011488:	afc20000 	sw	v0,0(s8)
/home/git/21373271/21373271/lib/string.c:34
	void *max = dst + n;
8001148c:	8fc30018 	lw	v1,24(s8)
80011490:	8fc20020 	lw	v0,32(s8)
80011494:	00000000 	nop
80011498:	00621021 	addu	v0,v1,v0
8001149c:	afc20004 	sw	v0,4(s8)
/home/git/21373271/21373271/lib/string.c:35
	u_char byte = c & 0xff;
800114a0:	8fc2001c 	lw	v0,28(s8)
800114a4:	00000000 	nop
800114a8:	a3c20008 	sb	v0,8(s8)
/home/git/21373271/21373271/lib/string.c:36
	uint32_t word = byte | byte << 8 | byte << 16 | byte << 24;
800114ac:	93c30008 	lbu	v1,8(s8)
800114b0:	93c20008 	lbu	v0,8(s8)
800114b4:	00000000 	nop
800114b8:	00021200 	sll	v0,v0,0x8
800114bc:	00621825 	or	v1,v1,v0
800114c0:	93c20008 	lbu	v0,8(s8)
800114c4:	00000000 	nop
800114c8:	00021400 	sll	v0,v0,0x10
800114cc:	00621825 	or	v1,v1,v0
800114d0:	93c20008 	lbu	v0,8(s8)
800114d4:	00000000 	nop
800114d8:	00021600 	sll	v0,v0,0x18
800114dc:	00621025 	or	v0,v1,v0
800114e0:	afc2000c 	sw	v0,12(s8)
/home/git/21373271/21373271/lib/string.c:38

	while (((u_long)dst & 3) && dst < max) {
800114e4:	10000008 	b	80011508 <memset+0xa0>
800114e8:	00000000 	nop
/home/git/21373271/21373271/lib/string.c:39
		*(u_char *)dst++ = byte;
800114ec:	8fc20018 	lw	v0,24(s8)
800114f0:	00000000 	nop
800114f4:	24430001 	addiu	v1,v0,1
800114f8:	afc30018 	sw	v1,24(s8)
800114fc:	93c30008 	lbu	v1,8(s8)
80011500:	00000000 	nop
80011504:	a0430000 	sb	v1,0(v0)
/home/git/21373271/21373271/lib/string.c:38
	while (((u_long)dst & 3) && dst < max) {
80011508:	8fc20018 	lw	v0,24(s8)
8001150c:	00000000 	nop
80011510:	30420003 	andi	v0,v0,0x3
80011514:	10400011 	beqz	v0,8001155c <memset+0xf4>
80011518:	00000000 	nop
/home/git/21373271/21373271/lib/string.c:38 (discriminator 1)
8001151c:	8fc30018 	lw	v1,24(s8)
80011520:	8fc20004 	lw	v0,4(s8)
80011524:	00000000 	nop
80011528:	0062102b 	sltu	v0,v1,v0
8001152c:	1440ffef 	bnez	v0,800114ec <memset+0x84>
80011530:	00000000 	nop
/home/git/21373271/21373271/lib/string.c:43
	}

	// fill machine words while possible
	while (dst + 4 <= max) {
80011534:	10000009 	b	8001155c <memset+0xf4>
80011538:	00000000 	nop
/home/git/21373271/21373271/lib/string.c:44
		*(uint32_t *)dst = word;
8001153c:	8fc20018 	lw	v0,24(s8)
80011540:	8fc3000c 	lw	v1,12(s8)
80011544:	00000000 	nop
80011548:	ac430000 	sw	v1,0(v0)
/home/git/21373271/21373271/lib/string.c:45
		dst += 4;
8001154c:	8fc20018 	lw	v0,24(s8)
80011550:	00000000 	nop
80011554:	24420004 	addiu	v0,v0,4
80011558:	afc20018 	sw	v0,24(s8)
/home/git/21373271/21373271/lib/string.c:43
	while (dst + 4 <= max) {
8001155c:	8fc20018 	lw	v0,24(s8)
80011560:	00000000 	nop
80011564:	24420004 	addiu	v0,v0,4
80011568:	8fc30004 	lw	v1,4(s8)
8001156c:	00000000 	nop
80011570:	0062102b 	sltu	v0,v1,v0
80011574:	1040fff1 	beqz	v0,8001153c <memset+0xd4>
80011578:	00000000 	nop
/home/git/21373271/21373271/lib/string.c:49
	}

	// finish the remaining 0-3 bytes
	while (dst < max) {
8001157c:	10000008 	b	800115a0 <memset+0x138>
80011580:	00000000 	nop
/home/git/21373271/21373271/lib/string.c:50
		*(u_char *)dst++ = byte;
80011584:	8fc20018 	lw	v0,24(s8)
80011588:	00000000 	nop
8001158c:	24430001 	addiu	v1,v0,1
80011590:	afc30018 	sw	v1,24(s8)
80011594:	93c30008 	lbu	v1,8(s8)
80011598:	00000000 	nop
8001159c:	a0430000 	sb	v1,0(v0)
/home/git/21373271/21373271/lib/string.c:49
	while (dst < max) {
800115a0:	8fc30018 	lw	v1,24(s8)
800115a4:	8fc20004 	lw	v0,4(s8)
800115a8:	00000000 	nop
800115ac:	0062102b 	sltu	v0,v1,v0
800115b0:	1440fff4 	bnez	v0,80011584 <memset+0x11c>
800115b4:	00000000 	nop
/home/git/21373271/21373271/lib/string.c:52
	}
	return dstaddr;
800115b8:	8fc20000 	lw	v0,0(s8)
/home/git/21373271/21373271/lib/string.c:53
}
800115bc:	03c0e825 	move	sp,s8
800115c0:	8fbe0014 	lw	s8,20(sp)
800115c4:	27bd0018 	addiu	sp,sp,24
800115c8:	03e00008 	jr	ra
800115cc:	00000000 	nop

800115d0 <strlen>:
strlen():
/home/git/21373271/21373271/lib/string.c:55

size_t strlen(const char *s) {
800115d0:	27bdfff0 	addiu	sp,sp,-16
800115d4:	afbe000c 	sw	s8,12(sp)
800115d8:	03a0f025 	move	s8,sp
800115dc:	afc40010 	sw	a0,16(s8)
/home/git/21373271/21373271/lib/string.c:58
	int n;

	for (n = 0; *s; s++) {
800115e0:	afc00000 	sw	zero,0(s8)
800115e4:	10000009 	b	8001160c <strlen+0x3c>
800115e8:	00000000 	nop
/home/git/21373271/21373271/lib/string.c:59 (discriminator 3)
		n++;
800115ec:	8fc20000 	lw	v0,0(s8)
800115f0:	00000000 	nop
800115f4:	24420001 	addiu	v0,v0,1
800115f8:	afc20000 	sw	v0,0(s8)
/home/git/21373271/21373271/lib/string.c:58 (discriminator 3)
	for (n = 0; *s; s++) {
800115fc:	8fc20010 	lw	v0,16(s8)
80011600:	00000000 	nop
80011604:	24420001 	addiu	v0,v0,1
80011608:	afc20010 	sw	v0,16(s8)
/home/git/21373271/21373271/lib/string.c:58 (discriminator 1)
8001160c:	8fc20010 	lw	v0,16(s8)
80011610:	00000000 	nop
80011614:	80420000 	lb	v0,0(v0)
80011618:	00000000 	nop
8001161c:	1440fff3 	bnez	v0,800115ec <strlen+0x1c>
80011620:	00000000 	nop
/home/git/21373271/21373271/lib/string.c:62
	}

	return n;
80011624:	8fc20000 	lw	v0,0(s8)
/home/git/21373271/21373271/lib/string.c:63
}
80011628:	03c0e825 	move	sp,s8
8001162c:	8fbe000c 	lw	s8,12(sp)
80011630:	27bd0010 	addiu	sp,sp,16
80011634:	03e00008 	jr	ra
80011638:	00000000 	nop

8001163c <strcpy>:
strcpy():
/home/git/21373271/21373271/lib/string.c:65

char *strcpy(char *dst, const char *src) {
8001163c:	27bdfff0 	addiu	sp,sp,-16
80011640:	afbe000c 	sw	s8,12(sp)
80011644:	03a0f025 	move	s8,sp
80011648:	afc40010 	sw	a0,16(s8)
8001164c:	afc50014 	sw	a1,20(s8)
/home/git/21373271/21373271/lib/string.c:66
	char *ret = dst;
80011650:	8fc20010 	lw	v0,16(s8)
80011654:	00000000 	nop
80011658:	afc20000 	sw	v0,0(s8)
/home/git/21373271/21373271/lib/string.c:68

	while ((*dst++ = *src++) != 0) {
8001165c:	00000000 	nop
/home/git/21373271/21373271/lib/string.c:68 (discriminator 1)
80011660:	8fc30014 	lw	v1,20(s8)
80011664:	00000000 	nop
80011668:	24620001 	addiu	v0,v1,1
8001166c:	afc20014 	sw	v0,20(s8)
80011670:	8fc20010 	lw	v0,16(s8)
80011674:	00000000 	nop
80011678:	24440001 	addiu	a0,v0,1
8001167c:	afc40010 	sw	a0,16(s8)
80011680:	80630000 	lb	v1,0(v1)
80011684:	00000000 	nop
80011688:	a0430000 	sb	v1,0(v0)
8001168c:	80420000 	lb	v0,0(v0)
80011690:	00000000 	nop
80011694:	1440fff2 	bnez	v0,80011660 <strcpy+0x24>
80011698:	00000000 	nop
/home/git/21373271/21373271/lib/string.c:71
	}

	return ret;
8001169c:	8fc20000 	lw	v0,0(s8)
/home/git/21373271/21373271/lib/string.c:72
}
800116a0:	03c0e825 	move	sp,s8
800116a4:	8fbe000c 	lw	s8,12(sp)
800116a8:	27bd0010 	addiu	sp,sp,16
800116ac:	03e00008 	jr	ra
800116b0:	00000000 	nop

800116b4 <strchr>:
strchr():
/home/git/21373271/21373271/lib/string.c:74

const char *strchr(const char *s, int c) {
800116b4:	27bdfff8 	addiu	sp,sp,-8
800116b8:	afbe0004 	sw	s8,4(sp)
800116bc:	03a0f025 	move	s8,sp
800116c0:	afc40008 	sw	a0,8(s8)
800116c4:	afc5000c 	sw	a1,12(s8)
/home/git/21373271/21373271/lib/string.c:75
	for (; *s; s++) {
800116c8:	10000011 	b	80011710 <strchr+0x5c>
800116cc:	00000000 	nop
/home/git/21373271/21373271/lib/string.c:76
		if (*s == c) {
800116d0:	8fc20008 	lw	v0,8(s8)
800116d4:	00000000 	nop
800116d8:	80420000 	lb	v0,0(v0)
800116dc:	00000000 	nop
800116e0:	00401825 	move	v1,v0
800116e4:	8fc2000c 	lw	v0,12(s8)
800116e8:	00000000 	nop
800116ec:	14430004 	bne	v0,v1,80011700 <strchr+0x4c>
800116f0:	00000000 	nop
/home/git/21373271/21373271/lib/string.c:77
			return s;
800116f4:	8fc20008 	lw	v0,8(s8)
800116f8:	1000000c 	b	8001172c <strchr+0x78>
800116fc:	00000000 	nop
/home/git/21373271/21373271/lib/string.c:75
	for (; *s; s++) {
80011700:	8fc20008 	lw	v0,8(s8)
80011704:	00000000 	nop
80011708:	24420001 	addiu	v0,v0,1
8001170c:	afc20008 	sw	v0,8(s8)
/home/git/21373271/21373271/lib/string.c:75 (discriminator 1)
80011710:	8fc20008 	lw	v0,8(s8)
80011714:	00000000 	nop
80011718:	80420000 	lb	v0,0(v0)
8001171c:	00000000 	nop
80011720:	1440ffeb 	bnez	v0,800116d0 <strchr+0x1c>
80011724:	00000000 	nop
/home/git/21373271/21373271/lib/string.c:80
		}
	}
	return 0;
80011728:	00001025 	move	v0,zero
/home/git/21373271/21373271/lib/string.c:81
}
8001172c:	03c0e825 	move	sp,s8
80011730:	8fbe0004 	lw	s8,4(sp)
80011734:	27bd0008 	addiu	sp,sp,8
80011738:	03e00008 	jr	ra
8001173c:	00000000 	nop

80011740 <strcmp>:
strcmp():
/home/git/21373271/21373271/lib/string.c:83

int strcmp(const char *p, const char *q) {
80011740:	27bdfff8 	addiu	sp,sp,-8
80011744:	afbe0004 	sw	s8,4(sp)
80011748:	03a0f025 	move	s8,sp
8001174c:	afc40008 	sw	a0,8(s8)
80011750:	afc5000c 	sw	a1,12(s8)
/home/git/21373271/21373271/lib/string.c:84
	while (*p && *p == *q) {
80011754:	10000009 	b	8001177c <strcmp+0x3c>
80011758:	00000000 	nop
/home/git/21373271/21373271/lib/string.c:85
		p++, q++;
8001175c:	8fc20008 	lw	v0,8(s8)
80011760:	00000000 	nop
80011764:	24420001 	addiu	v0,v0,1
80011768:	afc20008 	sw	v0,8(s8)
8001176c:	8fc2000c 	lw	v0,12(s8)
80011770:	00000000 	nop
80011774:	24420001 	addiu	v0,v0,1
80011778:	afc2000c 	sw	v0,12(s8)
/home/git/21373271/21373271/lib/string.c:84
	while (*p && *p == *q) {
8001177c:	8fc20008 	lw	v0,8(s8)
80011780:	00000000 	nop
80011784:	80420000 	lb	v0,0(v0)
80011788:	00000000 	nop
8001178c:	1040000a 	beqz	v0,800117b8 <strcmp+0x78>
80011790:	00000000 	nop
/home/git/21373271/21373271/lib/string.c:84 (discriminator 1)
80011794:	8fc20008 	lw	v0,8(s8)
80011798:	00000000 	nop
8001179c:	80430000 	lb	v1,0(v0)
800117a0:	8fc2000c 	lw	v0,12(s8)
800117a4:	00000000 	nop
800117a8:	80420000 	lb	v0,0(v0)
800117ac:	00000000 	nop
800117b0:	1062ffea 	beq	v1,v0,8001175c <strcmp+0x1c>
800117b4:	00000000 	nop
/home/git/21373271/21373271/lib/string.c:88
	}

	if ((u_int)*p < (u_int)*q) {
800117b8:	8fc20008 	lw	v0,8(s8)
800117bc:	00000000 	nop
800117c0:	80420000 	lb	v0,0(v0)
800117c4:	00000000 	nop
800117c8:	304300ff 	andi	v1,v0,0xff
800117cc:	8fc2000c 	lw	v0,12(s8)
800117d0:	00000000 	nop
800117d4:	80420000 	lb	v0,0(v0)
800117d8:	00000000 	nop
800117dc:	304200ff 	andi	v0,v0,0xff
800117e0:	0062102b 	sltu	v0,v1,v0
800117e4:	10400004 	beqz	v0,800117f8 <strcmp+0xb8>
800117e8:	00000000 	nop
/home/git/21373271/21373271/lib/string.c:89
		return -1;
800117ec:	2402ffff 	li	v0,-1
800117f0:	10000012 	b	8001183c <strcmp+0xfc>
800117f4:	00000000 	nop
/home/git/21373271/21373271/lib/string.c:92
	}

	if ((u_int)*p > (u_int)*q) {
800117f8:	8fc20008 	lw	v0,8(s8)
800117fc:	00000000 	nop
80011800:	80420000 	lb	v0,0(v0)
80011804:	00000000 	nop
80011808:	304300ff 	andi	v1,v0,0xff
8001180c:	8fc2000c 	lw	v0,12(s8)
80011810:	00000000 	nop
80011814:	80420000 	lb	v0,0(v0)
80011818:	00000000 	nop
8001181c:	304200ff 	andi	v0,v0,0xff
80011820:	0043102b 	sltu	v0,v0,v1
80011824:	10400004 	beqz	v0,80011838 <strcmp+0xf8>
80011828:	00000000 	nop
/home/git/21373271/21373271/lib/string.c:93
		return 1;
8001182c:	24020001 	li	v0,1
80011830:	10000002 	b	8001183c <strcmp+0xfc>
80011834:	00000000 	nop
/home/git/21373271/21373271/lib/string.c:96
	}

	return 0;
80011838:	00001025 	move	v0,zero
/home/git/21373271/21373271/lib/string.c:97
}
8001183c:	03c0e825 	move	sp,s8
80011840:	8fbe0004 	lw	s8,4(sp)
80011844:	27bd0008 	addiu	sp,sp,8
80011848:	03e00008 	jr	ra
8001184c:	00000000 	nop

80011850 <page2ppn>:
page2ppn():
/home/git/21373271/21373271/init/../include/pmap.h:28
};

extern struct Page *pages;
extern struct Page_list page_free_list;

static inline u_long page2ppn(struct Page *pp) {
80011850:	27bdfff8 	addiu	sp,sp,-8
80011854:	afbe0004 	sw	s8,4(sp)
80011858:	03a0f025 	move	s8,sp
8001185c:	afc40008 	sw	a0,8(s8)
/home/git/21373271/21373271/init/../include/pmap.h:29
	return pp - pages;
80011860:	3c028001 	lui	v0,0x8001
80011864:	8c425c38 	lw	v0,23608(v0)
80011868:	8fc30008 	lw	v1,8(s8)
8001186c:	00000000 	nop
80011870:	00621023 	subu	v0,v1,v0
80011874:	00021883 	sra	v1,v0,0x2
80011878:	00601025 	move	v0,v1
8001187c:	00021080 	sll	v0,v0,0x2
80011880:	00431021 	addu	v0,v0,v1
80011884:	00021900 	sll	v1,v0,0x4
80011888:	00431021 	addu	v0,v0,v1
8001188c:	00021a00 	sll	v1,v0,0x8
80011890:	00431021 	addu	v0,v0,v1
80011894:	00021c00 	sll	v1,v0,0x10
80011898:	00431021 	addu	v0,v0,v1
8001189c:	00021023 	negu	v0,v0
/home/git/21373271/21373271/init/../include/pmap.h:30
}
800118a0:	03c0e825 	move	sp,s8
800118a4:	8fbe0004 	lw	s8,4(sp)
800118a8:	27bd0008 	addiu	sp,sp,8
800118ac:	03e00008 	jr	ra
800118b0:	00000000 	nop

800118b4 <page2pa>:
page2pa():
/home/git/21373271/21373271/init/../include/pmap.h:32

static inline u_long page2pa(struct Page *pp) {
800118b4:	27bdffe8 	addiu	sp,sp,-24
800118b8:	afbf0014 	sw	ra,20(sp)
800118bc:	afbe0010 	sw	s8,16(sp)
800118c0:	03a0f025 	move	s8,sp
800118c4:	afc40018 	sw	a0,24(s8)
/home/git/21373271/21373271/init/../include/pmap.h:33
	return page2ppn(pp) << PGSHIFT;
800118c8:	8fc40018 	lw	a0,24(s8)
800118cc:	0c004614 	jal	80011850 <page2ppn>
800118d0:	00000000 	nop
800118d4:	00021300 	sll	v0,v0,0xc
/home/git/21373271/21373271/init/../include/pmap.h:34
}
800118d8:	03c0e825 	move	sp,s8
800118dc:	8fbf0014 	lw	ra,20(sp)
800118e0:	8fbe0010 	lw	s8,16(sp)
800118e4:	27bd0018 	addiu	sp,sp,24
800118e8:	03e00008 	jr	ra
800118ec:	00000000 	nop

800118f0 <va2pa>:
va2pa():
/home/git/21373271/21373271/init/../include/pmap.h:47

static inline u_long page2kva(struct Page *pp) {
	return KADDR(page2pa(pp));
}

static inline u_long va2pa(Pde *pgdir, u_long va) {
800118f0:	27bdffd8 	addiu	sp,sp,-40
800118f4:	afbf0024 	sw	ra,36(sp)
800118f8:	afbe0020 	sw	s8,32(sp)
800118fc:	03a0f025 	move	s8,sp
80011900:	afc40028 	sw	a0,40(s8)
80011904:	afc5002c 	sw	a1,44(s8)
/home/git/21373271/21373271/init/../include/pmap.h:50
	Pte *p;

	pgdir = &pgdir[PDX(va)];
80011908:	8fc2002c 	lw	v0,44(s8)
8001190c:	00000000 	nop
80011910:	00021582 	srl	v0,v0,0x16
80011914:	00021080 	sll	v0,v0,0x2
80011918:	8fc30028 	lw	v1,40(s8)
8001191c:	00000000 	nop
80011920:	00621021 	addu	v0,v1,v0
80011924:	afc20028 	sw	v0,40(s8)
/home/git/21373271/21373271/init/../include/pmap.h:51
	if (!(*pgdir & PTE_V)) {
80011928:	8fc20028 	lw	v0,40(s8)
8001192c:	00000000 	nop
80011930:	8c420000 	lw	v0,0(v0)
80011934:	00000000 	nop
80011938:	30420200 	andi	v0,v0,0x200
8001193c:	14400004 	bnez	v0,80011950 <va2pa+0x60>
80011940:	00000000 	nop
/home/git/21373271/21373271/init/../include/pmap.h:52
		return ~0;
80011944:	2402ffff 	li	v0,-1
80011948:	10000040 	b	80011a4c <va2pa+0x15c>
8001194c:	00000000 	nop
/home/git/21373271/21373271/init/../include/pmap.h:54
	}
	p = (Pte *)KADDR(PTE_ADDR(*pgdir));
80011950:	8fc20028 	lw	v0,40(s8)
80011954:	00000000 	nop
80011958:	8c420000 	lw	v0,0(v0)
8001195c:	00000000 	nop
80011960:	00021302 	srl	v0,v0,0xc
80011964:	afc20018 	sw	v0,24(s8)
80011968:	3c028001 	lui	v0,0x8001
8001196c:	8c425c30 	lw	v0,23600(v0)
80011970:	8fc30018 	lw	v1,24(s8)
80011974:	00000000 	nop
80011978:	0062102b 	sltu	v0,v1,v0
8001197c:	14400010 	bnez	v0,800119c0 <va2pa+0xd0>
80011980:	00000000 	nop
/home/git/21373271/21373271/init/../include/pmap.h:54 (discriminator 1)
80011984:	8fc20028 	lw	v0,40(s8)
80011988:	00000000 	nop
8001198c:	8c430000 	lw	v1,0(v0)
80011990:	2402f000 	li	v0,-4096
80011994:	00621024 	and	v0,v1,v0
80011998:	afa20010 	sw	v0,16(sp)
8001199c:	3c028001 	lui	v0,0x8001
800119a0:	24475090 	addiu	a3,v0,20624
800119a4:	3c028001 	lui	v0,0x8001
800119a8:	244653b4 	addiu	a2,v0,21428
800119ac:	24050036 	li	a1,54
800119b0:	3c028001 	lui	v0,0x8001
800119b4:	244450b4 	addiu	a0,v0,20660
800119b8:	0c004870 	jal	800121c0 <_panic>
800119bc:	00000000 	nop
/home/git/21373271/21373271/init/../include/pmap.h:54 (discriminator 3)
800119c0:	8fc20028 	lw	v0,40(s8)
800119c4:	00000000 	nop
800119c8:	8c430000 	lw	v1,0(v0)
800119cc:	2402f000 	li	v0,-4096
800119d0:	00621824 	and	v1,v1,v0
800119d4:	3c028000 	lui	v0,0x8000
800119d8:	00621021 	addu	v0,v1,v0
800119dc:	afc2001c 	sw	v0,28(s8)
/home/git/21373271/21373271/init/../include/pmap.h:55 (discriminator 3)
	if (!(p[PTX(va)] & PTE_V)) {
800119e0:	8fc2002c 	lw	v0,44(s8)
800119e4:	00000000 	nop
800119e8:	00021302 	srl	v0,v0,0xc
800119ec:	304203ff 	andi	v0,v0,0x3ff
800119f0:	00021080 	sll	v0,v0,0x2
800119f4:	8fc3001c 	lw	v1,28(s8)
800119f8:	00000000 	nop
800119fc:	00621021 	addu	v0,v1,v0
80011a00:	8c420000 	lw	v0,0(v0)
80011a04:	00000000 	nop
80011a08:	30420200 	andi	v0,v0,0x200
80011a0c:	14400004 	bnez	v0,80011a20 <va2pa+0x130>
80011a10:	00000000 	nop
/home/git/21373271/21373271/init/../include/pmap.h:56
		return ~0;
80011a14:	2402ffff 	li	v0,-1
80011a18:	1000000c 	b	80011a4c <va2pa+0x15c>
80011a1c:	00000000 	nop
/home/git/21373271/21373271/init/../include/pmap.h:58
	}
	return PTE_ADDR(p[PTX(va)]);
80011a20:	8fc2002c 	lw	v0,44(s8)
80011a24:	00000000 	nop
80011a28:	00021302 	srl	v0,v0,0xc
80011a2c:	304203ff 	andi	v0,v0,0x3ff
80011a30:	00021080 	sll	v0,v0,0x2
80011a34:	8fc3001c 	lw	v1,28(s8)
80011a38:	00000000 	nop
80011a3c:	00621021 	addu	v0,v1,v0
80011a40:	8c430000 	lw	v1,0(v0)
80011a44:	2402f000 	li	v0,-4096
80011a48:	00621024 	and	v0,v1,v0
/home/git/21373271/21373271/init/../include/pmap.h:59
}
80011a4c:	03c0e825 	move	sp,s8
80011a50:	8fbf0024 	lw	ra,36(sp)
80011a54:	8fbe0020 	lw	s8,32(sp)
80011a58:	27bd0028 	addiu	sp,sp,40
80011a5c:	03e00008 	jr	ra
80011a60:	00000000 	nop

80011a64 <tlb_refill_check>:
tlb_refill_check():
/home/git/21373271/21373271/tests/lab2_3/init.c:1
80011a64:	27bdffa0 	addiu	sp,sp,-96
80011a68:	afbf005c 	sw	ra,92(sp)
80011a6c:	afbe0058 	sw	s8,88(sp)
80011a70:	afb00054 	sw	s0,84(sp)
80011a74:	03a0f025 	move	s8,sp
/home/git/21373271/21373271/tests/lab2_3/init.c:2
80011a78:	24060001 	li	a2,1
80011a7c:	24051000 	li	a1,4096
80011a80:	24041000 	li	a0,4096
80011a84:	0c0049b0 	jal	800126c0 <alloc>
80011a88:	00000000 	nop
80011a8c:	afc20018 	sw	v0,24(s8)
/home/git/21373271/21373271/tests/lab2_3/init.c:3
80011a90:	3c028001 	lui	v0,0x8001
80011a94:	8fc30018 	lw	v1,24(s8)
80011a98:	00000000 	nop
80011a9c:	ac435c34 	sw	v1,23604(v0)
/home/git/21373271/21373271/tests/lab2_3/init.c:7
80011aa0:	afc00044 	sw	zero,68(s8)
80011aa4:	8fc20044 	lw	v0,68(s8)
80011aa8:	00000000 	nop
80011aac:	afc20040 	sw	v0,64(s8)
80011ab0:	8fc20040 	lw	v0,64(s8)
80011ab4:	00000000 	nop
80011ab8:	afc2003c 	sw	v0,60(s8)
80011abc:	8fc2003c 	lw	v0,60(s8)
80011ac0:	00000000 	nop
80011ac4:	afc20038 	sw	v0,56(s8)
80011ac8:	8fc20038 	lw	v0,56(s8)
80011acc:	00000000 	nop
80011ad0:	afc20034 	sw	v0,52(s8)
/home/git/21373271/21373271/tests/lab2_3/init.c:8
80011ad4:	27c20034 	addiu	v0,s8,52
80011ad8:	00402025 	move	a0,v0
80011adc:	0c004ae0 	jal	80012b80 <page_alloc>
80011ae0:	00000000 	nop
80011ae4:	1040000d 	beqz	v0,80011b1c <tlb_refill_check+0xb8>
80011ae8:	00000000 	nop
/home/git/21373271/21373271/tests/lab2_3/init.c:8 (discriminator 1)
80011aec:	3c028001 	lui	v0,0x8001
80011af0:	24425110 	addiu	v0,v0,20752
80011af4:	afa20010 	sw	v0,16(sp)
80011af8:	3c028001 	lui	v0,0x8001
80011afc:	244750c8 	addiu	a3,v0,20680
80011b00:	3c028001 	lui	v0,0x8001
80011b04:	244653a0 	addiu	a2,v0,21408
80011b08:	24050008 	li	a1,8
80011b0c:	3c028001 	lui	v0,0x8001
80011b10:	244450e0 	addiu	a0,v0,20704
80011b14:	0c004870 	jal	800121c0 <_panic>
80011b18:	00000000 	nop
/home/git/21373271/21373271/tests/lab2_3/init.c:9
80011b1c:	27c20038 	addiu	v0,s8,56
80011b20:	00402025 	move	a0,v0
80011b24:	0c004ae0 	jal	80012b80 <page_alloc>
80011b28:	00000000 	nop
80011b2c:	1040000d 	beqz	v0,80011b64 <tlb_refill_check+0x100>
80011b30:	00000000 	nop
/home/git/21373271/21373271/tests/lab2_3/init.c:9 (discriminator 1)
80011b34:	3c028001 	lui	v0,0x8001
80011b38:	24425128 	addiu	v0,v0,20776
80011b3c:	afa20010 	sw	v0,16(sp)
80011b40:	3c028001 	lui	v0,0x8001
80011b44:	244750c8 	addiu	a3,v0,20680
80011b48:	3c028001 	lui	v0,0x8001
80011b4c:	244653a0 	addiu	a2,v0,21408
80011b50:	24050009 	li	a1,9
80011b54:	3c028001 	lui	v0,0x8001
80011b58:	244450e0 	addiu	a0,v0,20704
80011b5c:	0c004870 	jal	800121c0 <_panic>
80011b60:	00000000 	nop
/home/git/21373271/21373271/tests/lab2_3/init.c:10
80011b64:	27c2003c 	addiu	v0,s8,60
80011b68:	00402025 	move	a0,v0
80011b6c:	0c004ae0 	jal	80012b80 <page_alloc>
80011b70:	00000000 	nop
80011b74:	1040000d 	beqz	v0,80011bac <tlb_refill_check+0x148>
80011b78:	00000000 	nop
/home/git/21373271/21373271/tests/lab2_3/init.c:10 (discriminator 1)
80011b7c:	3c028001 	lui	v0,0x8001
80011b80:	24425140 	addiu	v0,v0,20800
80011b84:	afa20010 	sw	v0,16(sp)
80011b88:	3c028001 	lui	v0,0x8001
80011b8c:	244750c8 	addiu	a3,v0,20680
80011b90:	3c028001 	lui	v0,0x8001
80011b94:	244653a0 	addiu	a2,v0,21408
80011b98:	2405000a 	li	a1,10
80011b9c:	3c028001 	lui	v0,0x8001
80011ba0:	244450e0 	addiu	a0,v0,20704
80011ba4:	0c004870 	jal	800121c0 <_panic>
80011ba8:	00000000 	nop
/home/git/21373271/21373271/tests/lab2_3/init.c:11
80011bac:	27c20040 	addiu	v0,s8,64
80011bb0:	00402025 	move	a0,v0
80011bb4:	0c004ae0 	jal	80012b80 <page_alloc>
80011bb8:	00000000 	nop
80011bbc:	1040000d 	beqz	v0,80011bf4 <tlb_refill_check+0x190>
80011bc0:	00000000 	nop
/home/git/21373271/21373271/tests/lab2_3/init.c:11 (discriminator 1)
80011bc4:	3c028001 	lui	v0,0x8001
80011bc8:	24425158 	addiu	v0,v0,20824
80011bcc:	afa20010 	sw	v0,16(sp)
80011bd0:	3c028001 	lui	v0,0x8001
80011bd4:	244750c8 	addiu	a3,v0,20680
80011bd8:	3c028001 	lui	v0,0x8001
80011bdc:	244653a0 	addiu	a2,v0,21408
80011be0:	2405000b 	li	a1,11
80011be4:	3c028001 	lui	v0,0x8001
80011be8:	244450e0 	addiu	a0,v0,20704
80011bec:	0c004870 	jal	800121c0 <_panic>
80011bf0:	00000000 	nop
/home/git/21373271/21373271/tests/lab2_3/init.c:12
80011bf4:	27c20044 	addiu	v0,s8,68
80011bf8:	00402025 	move	a0,v0
80011bfc:	0c004ae0 	jal	80012b80 <page_alloc>
80011c00:	00000000 	nop
80011c04:	1040000d 	beqz	v0,80011c3c <tlb_refill_check+0x1d8>
80011c08:	00000000 	nop
/home/git/21373271/21373271/tests/lab2_3/init.c:12 (discriminator 1)
80011c0c:	3c028001 	lui	v0,0x8001
80011c10:	24425170 	addiu	v0,v0,20848
80011c14:	afa20010 	sw	v0,16(sp)
80011c18:	3c028001 	lui	v0,0x8001
80011c1c:	244750c8 	addiu	a3,v0,20680
80011c20:	3c028001 	lui	v0,0x8001
80011c24:	244653a0 	addiu	a2,v0,21408
80011c28:	2405000c 	li	a1,12
80011c2c:	3c028001 	lui	v0,0x8001
80011c30:	244450e0 	addiu	a0,v0,20704
80011c34:	0c004870 	jal	800121c0 <_panic>
80011c38:	00000000 	nop
/home/git/21373271/21373271/tests/lab2_3/init.c:16
80011c3c:	3c028001 	lui	v0,0x8001
80011c40:	ac405c3c 	sw	zero,23612(v0)
/home/git/21373271/21373271/tests/lab2_3/init.c:19
80011c44:	8fc20034 	lw	v0,52(s8)
80011c48:	00000000 	nop
80011c4c:	00402025 	move	a0,v0
80011c50:	0c004b1a 	jal	80012c68 <page_free>
80011c54:	00000000 	nop
/home/git/21373271/21373271/tests/lab2_3/init.c:21
80011c58:	8fc20038 	lw	v0,56(s8)
80011c5c:	afa00010 	sw	zero,16(sp)
80011c60:	00003825 	move	a3,zero
80011c64:	00403025 	move	a2,v0
80011c68:	00002825 	move	a1,zero
80011c6c:	8fc40018 	lw	a0,24(s8)
80011c70:	0c004bb6 	jal	80012ed8 <page_insert>
80011c74:	00000000 	nop
80011c78:	1040000d 	beqz	v0,80011cb0 <tlb_refill_check+0x24c>
80011c7c:	00000000 	nop
/home/git/21373271/21373271/tests/lab2_3/init.c:21 (discriminator 1)
80011c80:	3c028001 	lui	v0,0x8001
80011c84:	24425188 	addiu	v0,v0,20872
80011c88:	afa20010 	sw	v0,16(sp)
80011c8c:	3c028001 	lui	v0,0x8001
80011c90:	244750c8 	addiu	a3,v0,20680
80011c94:	3c028001 	lui	v0,0x8001
80011c98:	244653a0 	addiu	a2,v0,21408
80011c9c:	24050015 	li	a1,21
80011ca0:	3c028001 	lui	v0,0x8001
80011ca4:	244450e0 	addiu	a0,v0,20704
80011ca8:	0c004870 	jal	800121c0 <_panic>
80011cac:	00000000 	nop
/home/git/21373271/21373271/tests/lab2_3/init.c:23
80011cb0:	8fc2003c 	lw	v0,60(s8)
80011cb4:	afa00010 	sw	zero,16(sp)
80011cb8:	24071000 	li	a3,4096
80011cbc:	00403025 	move	a2,v0
80011cc0:	00002825 	move	a1,zero
80011cc4:	8fc40018 	lw	a0,24(s8)
80011cc8:	0c004bb6 	jal	80012ed8 <page_insert>
80011ccc:	00000000 	nop
80011cd0:	1040000d 	beqz	v0,80011d08 <tlb_refill_check+0x2a4>
80011cd4:	00000000 	nop
/home/git/21373271/21373271/tests/lab2_3/init.c:23 (discriminator 1)
80011cd8:	3c028001 	lui	v0,0x8001
80011cdc:	244251b8 	addiu	v0,v0,20920
80011ce0:	afa20010 	sw	v0,16(sp)
80011ce4:	3c028001 	lui	v0,0x8001
80011ce8:	244750c8 	addiu	a3,v0,20680
80011cec:	3c028001 	lui	v0,0x8001
80011cf0:	244653a0 	addiu	a2,v0,21408
80011cf4:	24050017 	li	a1,23
80011cf8:	3c028001 	lui	v0,0x8001
80011cfc:	244450e0 	addiu	a0,v0,20704
80011d00:	0c004870 	jal	800121c0 <_panic>
80011d04:	00000000 	nop
/home/git/21373271/21373271/tests/lab2_3/init.c:25
80011d08:	3c028001 	lui	v0,0x8001
80011d0c:	244451e8 	addiu	a0,v0,20968
80011d10:	0c005289 	jal	80014a24 <printk>
80011d14:	00000000 	nop
/home/git/21373271/21373271/tests/lab2_3/init.c:31
80011d18:	00002825 	move	a1,zero
80011d1c:	24041000 	li	a0,4096
80011d20:	0c0053bc 	jal	80014ef0 <_do_tlb_refill>
80011d24:	00000000 	nop
80011d28:	afc2001c 	sw	v0,28(s8)
/home/git/21373271/21373271/tests/lab2_3/init.c:32
80011d2c:	27c20048 	addiu	v0,s8,72
80011d30:	00403025 	move	a2,v0
80011d34:	24051000 	li	a1,4096
80011d38:	8fc40018 	lw	a0,24(s8)
80011d3c:	0c004c1e 	jal	80013078 <page_lookup>
80011d40:	00000000 	nop
80011d44:	1440000d 	bnez	v0,80011d7c <tlb_refill_check+0x318>
80011d48:	00000000 	nop
/home/git/21373271/21373271/tests/lab2_3/init.c:32 (discriminator 1)
80011d4c:	3c028001 	lui	v0,0x8001
80011d50:	24425204 	addiu	v0,v0,20996
80011d54:	afa20010 	sw	v0,16(sp)
80011d58:	3c028001 	lui	v0,0x8001
80011d5c:	244750c8 	addiu	a3,v0,20680
80011d60:	3c028001 	lui	v0,0x8001
80011d64:	244653a0 	addiu	a2,v0,21408
80011d68:	24050020 	li	a1,32
80011d6c:	3c028001 	lui	v0,0x8001
80011d70:	244450e0 	addiu	a0,v0,20704
80011d74:	0c004870 	jal	800121c0 <_panic>
80011d78:	00000000 	nop
/home/git/21373271/21373271/tests/lab2_3/init.c:33
80011d7c:	8fc20048 	lw	v0,72(s8)
80011d80:	00000000 	nop
80011d84:	8c420000 	lw	v0,0(v0)
80011d88:	8fc3001c 	lw	v1,28(s8)
80011d8c:	00000000 	nop
80011d90:	1062000d 	beq	v1,v0,80011dc8 <tlb_refill_check+0x364>
80011d94:	00000000 	nop
/home/git/21373271/21373271/tests/lab2_3/init.c:33 (discriminator 1)
80011d98:	3c028001 	lui	v0,0x8001
80011d9c:	24425238 	addiu	v0,v0,21048
80011da0:	afa20010 	sw	v0,16(sp)
80011da4:	3c028001 	lui	v0,0x8001
80011da8:	244750c8 	addiu	a3,v0,20680
80011dac:	3c028001 	lui	v0,0x8001
80011db0:	244653a0 	addiu	a2,v0,21408
80011db4:	24050021 	li	a1,33
80011db8:	3c028001 	lui	v0,0x8001
80011dbc:	244450e0 	addiu	a0,v0,20704
80011dc0:	0c004870 	jal	800121c0 <_panic>
80011dc4:	00000000 	nop
/home/git/21373271/21373271/tests/lab2_3/init.c:34
80011dc8:	8fc2003c 	lw	v0,60(s8)
80011dcc:	00000000 	nop
80011dd0:	00402025 	move	a0,v0
80011dd4:	0c00462d 	jal	800118b4 <page2pa>
80011dd8:	00000000 	nop
80011ddc:	00408025 	move	s0,v0
80011de0:	24051000 	li	a1,4096
80011de4:	8fc40018 	lw	a0,24(s8)
80011de8:	0c00463c 	jal	800118f0 <va2pa>
80011dec:	00000000 	nop
80011df0:	1202000d 	beq	s0,v0,80011e28 <tlb_refill_check+0x3c4>
80011df4:	00000000 	nop
/home/git/21373271/21373271/tests/lab2_3/init.c:34 (discriminator 1)
80011df8:	3c028001 	lui	v0,0x8001
80011dfc:	24425250 	addiu	v0,v0,21072
80011e00:	afa20010 	sw	v0,16(sp)
80011e04:	3c028001 	lui	v0,0x8001
80011e08:	244750c8 	addiu	a3,v0,20680
80011e0c:	3c028001 	lui	v0,0x8001
80011e10:	244653a0 	addiu	a2,v0,21408
80011e14:	24050022 	li	a1,34
80011e18:	3c028001 	lui	v0,0x8001
80011e1c:	244450e0 	addiu	a0,v0,20704
80011e20:	0c004870 	jal	800121c0 <_panic>
80011e24:	00000000 	nop
/home/git/21373271/21373271/tests/lab2_3/init.c:36
80011e28:	3c028001 	lui	v0,0x8001
80011e2c:	2444527c 	addiu	a0,v0,21116
80011e30:	0c005289 	jal	80014a24 <printk>
80011e34:	00000000 	nop
/home/git/21373271/21373271/tests/lab2_3/init.c:38
80011e38:	8fc20044 	lw	v0,68(s8)
80011e3c:	00000000 	nop
80011e40:	00402025 	move	a0,v0
80011e44:	0c004b1a 	jal	80012c68 <page_free>
80011e48:	00000000 	nop
/home/git/21373271/21373271/tests/lab2_3/init.c:39
80011e4c:	8fc20040 	lw	v0,64(s8)
80011e50:	00000000 	nop
80011e54:	00402025 	move	a0,v0
80011e58:	0c004b1a 	jal	80012c68 <page_free>
80011e5c:	00000000 	nop
/home/git/21373271/21373271/tests/lab2_3/init.c:41
80011e60:	27c20048 	addiu	v0,s8,72
80011e64:	00403025 	move	a2,v0
80011e68:	3c050040 	lui	a1,0x40
80011e6c:	8fc40018 	lw	a0,24(s8)
80011e70:	0c004c1e 	jal	80013078 <page_lookup>
80011e74:	00000000 	nop
80011e78:	1040000d 	beqz	v0,80011eb0 <tlb_refill_check+0x44c>
80011e7c:	00000000 	nop
/home/git/21373271/21373271/tests/lab2_3/init.c:41 (discriminator 1)
80011e80:	3c028001 	lui	v0,0x8001
80011e84:	24425290 	addiu	v0,v0,21136
80011e88:	afa20010 	sw	v0,16(sp)
80011e8c:	3c028001 	lui	v0,0x8001
80011e90:	244750c8 	addiu	a3,v0,20680
80011e94:	3c028001 	lui	v0,0x8001
80011e98:	244653a0 	addiu	a2,v0,21408
80011e9c:	24050029 	li	a1,41
80011ea0:	3c028001 	lui	v0,0x8001
80011ea4:	244450e0 	addiu	a0,v0,20704
80011ea8:	0c004870 	jal	800121c0 <_panic>
80011eac:	00000000 	nop
/home/git/21373271/21373271/tests/lab2_3/init.c:42
80011eb0:	00002825 	move	a1,zero
80011eb4:	3c040040 	lui	a0,0x40
80011eb8:	0c0053bc 	jal	80014ef0 <_do_tlb_refill>
80011ebc:	00000000 	nop
80011ec0:	afc2001c 	sw	v0,28(s8)
/home/git/21373271/21373271/tests/lab2_3/init.c:43
80011ec4:	27c20048 	addiu	v0,s8,72
80011ec8:	00403025 	move	a2,v0
80011ecc:	3c050040 	lui	a1,0x40
80011ed0:	8fc40018 	lw	a0,24(s8)
80011ed4:	0c004c1e 	jal	80013078 <page_lookup>
80011ed8:	00000000 	nop
80011edc:	afc20020 	sw	v0,32(s8)
80011ee0:	8fc20020 	lw	v0,32(s8)
80011ee4:	00000000 	nop
80011ee8:	1440000d 	bnez	v0,80011f20 <tlb_refill_check+0x4bc>
80011eec:	00000000 	nop
/home/git/21373271/21373271/tests/lab2_3/init.c:43 (discriminator 1)
80011ef0:	3c028001 	lui	v0,0x8001
80011ef4:	244252c8 	addiu	v0,v0,21192
80011ef8:	afa20010 	sw	v0,16(sp)
80011efc:	3c028001 	lui	v0,0x8001
80011f00:	244750c8 	addiu	a3,v0,20680
80011f04:	3c028001 	lui	v0,0x8001
80011f08:	244653a0 	addiu	a2,v0,21408
80011f0c:	2405002b 	li	a1,43
80011f10:	3c028001 	lui	v0,0x8001
80011f14:	244450e0 	addiu	a0,v0,20704
80011f18:	0c004870 	jal	800121c0 <_panic>
80011f1c:	00000000 	nop
/home/git/21373271/21373271/tests/lab2_3/init.c:44
80011f20:	3c050040 	lui	a1,0x40
80011f24:	8fc40018 	lw	a0,24(s8)
80011f28:	0c00463c 	jal	800118f0 <va2pa>
80011f2c:	00000000 	nop
80011f30:	00408025 	move	s0,v0
80011f34:	8fc20040 	lw	v0,64(s8)
80011f38:	00000000 	nop
80011f3c:	00402025 	move	a0,v0
80011f40:	0c00462d 	jal	800118b4 <page2pa>
80011f44:	00000000 	nop
80011f48:	1202000d 	beq	s0,v0,80011f80 <tlb_refill_check+0x51c>
80011f4c:	00000000 	nop
/home/git/21373271/21373271/tests/lab2_3/init.c:44 (discriminator 1)
80011f50:	3c028001 	lui	v0,0x8001
80011f54:	24425308 	addiu	v0,v0,21256
80011f58:	afa20010 	sw	v0,16(sp)
80011f5c:	3c028001 	lui	v0,0x8001
80011f60:	244750c8 	addiu	a3,v0,20680
80011f64:	3c028001 	lui	v0,0x8001
80011f68:	244653a0 	addiu	a2,v0,21408
80011f6c:	2405002c 	li	a1,44
80011f70:	3c028001 	lui	v0,0x8001
80011f74:	244450e0 	addiu	a0,v0,20704
80011f78:	0c004870 	jal	800121c0 <_panic>
80011f7c:	00000000 	nop
/home/git/21373271/21373271/tests/lab2_3/init.c:46
80011f80:	3c028001 	lui	v0,0x8001
80011f84:	24445338 	addiu	a0,v0,21304
80011f88:	0c005289 	jal	80014a24 <printk>
80011f8c:	00000000 	nop
/home/git/21373271/21373271/tests/lab2_3/init.c:49
80011f90:	3c020040 	lui	v0,0x40
80011f94:	afc20024 	sw	v0,36(s8)
/home/git/21373271/21373271/tests/lab2_3/init.c:50
80011f98:	8fc30024 	lw	v1,36(s8)
80011f9c:	2402f000 	li	v0,-4096
80011fa0:	00621024 	and	v0,v1,v0
80011fa4:	afc20028 	sw	v0,40(s8)
/home/git/21373271/21373271/tests/lab2_3/init.c:51
80011fa8:	8fc20024 	lw	v0,36(s8)
80011fac:	00000000 	nop
80011fb0:	40824000 	mtc0	v0,c0_badvaddr
/home/git/21373271/21373271/tests/lab2_3/init.c:52
80011fb4:	8fc20028 	lw	v0,40(s8)
80011fb8:	00000000 	nop
80011fbc:	40825000 	mtc0	v0,c0_entryhi
/home/git/21373271/21373271/tests/lab2_3/init.c:53
80011fc0:	0c005311 	jal	80014c44 <do_tlb_refill>
80011fc4:	00000000 	nop
/home/git/21373271/21373271/tests/lab2_3/init.c:55
80011fc8:	afc0002c 	sw	zero,44(s8)
/home/git/21373271/21373271/tests/lab2_3/init.c:56
80011fcc:	2402ffff 	li	v0,-1
80011fd0:	afc20030 	sw	v0,48(s8)
/home/git/21373271/21373271/tests/lab2_3/init.c:57
80011fd4:	3c020040 	lui	v0,0x40
80011fd8:	afc20024 	sw	v0,36(s8)
/home/git/21373271/21373271/tests/lab2_3/init.c:58
80011fdc:	8fc30024 	lw	v1,36(s8)
80011fe0:	2402f000 	li	v0,-4096
80011fe4:	00621024 	and	v0,v1,v0
80011fe8:	afc20028 	sw	v0,40(s8)
/home/git/21373271/21373271/tests/lab2_3/init.c:59
80011fec:	8fc20028 	lw	v0,40(s8)
80011ff0:	00000000 	nop
80011ff4:	40825000 	mtc0	v0,c0_entryhi
/home/git/21373271/21373271/tests/lab2_3/init.c:60
80011ff8:	8fc2002c 	lw	v0,44(s8)
80011ffc:	00000000 	nop
80012000:	40821000 	mtc0	v0,c0_entrylo
/home/git/21373271/21373271/tests/lab2_3/init.c:61
80012004:	8fc20030 	lw	v0,48(s8)
80012008:	00000000 	nop
8001200c:	40820000 	mtc0	v0,c0_index
/home/git/21373271/21373271/tests/lab2_3/init.c:62
80012010:	42000008 	tlbp
/home/git/21373271/21373271/tests/lab2_3/init.c:63
80012014:	00000000 	nop
/home/git/21373271/21373271/tests/lab2_3/init.c:65
80012018:	40020000 	mfc0	v0,c0_index
8001201c:	00000000 	nop
80012020:	afc20030 	sw	v0,48(s8)
/home/git/21373271/21373271/tests/lab2_3/init.c:67
80012024:	42000001 	tlbr
/home/git/21373271/21373271/tests/lab2_3/init.c:68
80012028:	40021000 	mfc0	v0,c0_entrylo
8001202c:	00000000 	nop
80012030:	afc2002c 	sw	v0,44(s8)
/home/git/21373271/21373271/tests/lab2_3/init.c:69
80012034:	8fc3002c 	lw	v1,44(s8)
80012038:	8fc2001c 	lw	v0,28(s8)
8001203c:	00000000 	nop
80012040:	1062000d 	beq	v1,v0,80012078 <tlb_refill_check+0x614>
80012044:	00000000 	nop
/home/git/21373271/21373271/tests/lab2_3/init.c:69 (discriminator 1)
80012048:	3c028001 	lui	v0,0x8001
8001204c:	2442534c 	addiu	v0,v0,21324
80012050:	afa20010 	sw	v0,16(sp)
80012054:	3c028001 	lui	v0,0x8001
80012058:	244750c8 	addiu	a3,v0,20680
8001205c:	3c028001 	lui	v0,0x8001
80012060:	244653a0 	addiu	a2,v0,21408
80012064:	24050045 	li	a1,69
80012068:	3c028001 	lui	v0,0x8001
8001206c:	244450e0 	addiu	a0,v0,20704
80012070:	0c004870 	jal	800121c0 <_panic>
80012074:	00000000 	nop
/home/git/21373271/21373271/tests/lab2_3/init.c:71
80012078:	3c028001 	lui	v0,0x8001
8001207c:	24445360 	addiu	a0,v0,21344
80012080:	0c005289 	jal	80014a24 <printk>
80012084:	00000000 	nop
/home/git/21373271/21373271/tests/lab2_3/init.c:72
80012088:	00000000 	nop
8001208c:	03c0e825 	move	sp,s8
80012090:	8fbf005c 	lw	ra,92(sp)
80012094:	8fbe0058 	lw	s8,88(sp)
80012098:	8fb00054 	lw	s0,84(sp)
8001209c:	27bd0060 	addiu	sp,sp,96
800120a0:	03e00008 	jr	ra
800120a4:	00000000 	nop

800120a8 <mips_init>:
mips_init():
/home/git/21373271/21373271/tests/lab2_3/init.c:74
800120a8:	27bdffe8 	addiu	sp,sp,-24
800120ac:	afbf0014 	sw	ra,20(sp)
800120b0:	afbe0010 	sw	s8,16(sp)
800120b4:	03a0f025 	move	s8,sp
/home/git/21373271/21373271/tests/lab2_3/init.c:75
800120b8:	3c028001 	lui	v0,0x8001
800120bc:	24445380 	addiu	a0,v0,21376
800120c0:	0c005289 	jal	80014a24 <printk>
800120c4:	00000000 	nop
/home/git/21373271/21373271/tests/lab2_3/init.c:77
800120c8:	0c00498d 	jal	80012634 <mips_detect_memory>
800120cc:	00000000 	nop
/home/git/21373271/21373271/tests/lab2_3/init.c:78
800120d0:	0c004a16 	jal	80012858 <mips_vm_init>
800120d4:	00000000 	nop
/home/git/21373271/21373271/tests/lab2_3/init.c:79
800120d8:	0c004a3c 	jal	800128f0 <page_init>
800120dc:	00000000 	nop
/home/git/21373271/21373271/tests/lab2_3/init.c:81
800120e0:	0c004699 	jal	80011a64 <tlb_refill_check>
800120e4:	00000000 	nop
/home/git/21373271/21373271/tests/lab2_3/init.c:82
800120e8:	0c004864 	jal	80012190 <halt>
800120ec:	00000000 	nop
/home/git/21373271/21373271/tests/lab2_3/init.c:83
800120f0:	00000000 	nop
800120f4:	03c0e825 	move	sp,s8
800120f8:	8fbf0014 	lw	ra,20(sp)
800120fc:	8fbe0010 	lw	s8,16(sp)
80012100:	27bd0018 	addiu	sp,sp,24
80012104:	03e00008 	jr	ra
80012108:	00000000 	nop
8001210c:	00000000 	nop

80012110 <_start>:
_start():
/home/git/21373271/21373271/init/start.S:9
.text
EXPORT(_start)
.set at
.set reorder
	/* disable interrupts */
	mtc0    zero, CP0_STATUS
80012110:	40806000 	mtc0	zero,c0_sr
/home/git/21373271/21373271/init/start.S:14

	/* hint: you can reference the memory layout in include/mmu.h */
	/* set up the kernel stack */
	/* Exercise 1.3: Your code here. (1/2) */
	lui sp,0x8040
80012114:	3c1d8040 	lui	sp,0x8040
/home/git/21373271/21373271/init/start.S:17
	/* jump to mips_init */
	/* Exercise 1.3: Your code here. (2/2) */
	j mips_init
80012118:	0800482a 	j	800120a8 <mips_init>
8001211c:	00000000 	nop

80012120 <printcharc>:
printcharc():
/home/git/21373271/21373271/kern/console.c:4
#include <drivers/dev_cons.h>
#include <mmu.h>

void printcharc(char ch) {
80012120:	27bdfff8 	addiu	sp,sp,-8
80012124:	afbe0004 	sw	s8,4(sp)
80012128:	03a0f025 	move	s8,sp
8001212c:	00801025 	move	v0,a0
80012130:	a3c20008 	sb	v0,8(s8)
/home/git/21373271/21373271/kern/console.c:5
	*((volatile char *)(KSEG1 + DEV_CONS_ADDRESS + DEV_CONS_PUTGETCHAR)) = ch;
80012134:	3c02b000 	lui	v0,0xb000
80012138:	93c30008 	lbu	v1,8(s8)
8001213c:	00000000 	nop
80012140:	a0430000 	sb	v1,0(v0)
/home/git/21373271/21373271/kern/console.c:6
}
80012144:	00000000 	nop
80012148:	03c0e825 	move	sp,s8
8001214c:	8fbe0004 	lw	s8,4(sp)
80012150:	27bd0008 	addiu	sp,sp,8
80012154:	03e00008 	jr	ra
80012158:	00000000 	nop

8001215c <scancharc>:
scancharc():
/home/git/21373271/21373271/kern/console.c:8

char scancharc(void) {
8001215c:	27bdfff8 	addiu	sp,sp,-8
80012160:	afbe0004 	sw	s8,4(sp)
80012164:	03a0f025 	move	s8,sp
/home/git/21373271/21373271/kern/console.c:9
	return *((volatile char *)(KSEG1 + DEV_CONS_ADDRESS + DEV_CONS_PUTGETCHAR));
80012168:	3c02b000 	lui	v0,0xb000
8001216c:	90420000 	lbu	v0,0(v0)
80012170:	00000000 	nop
80012174:	00021600 	sll	v0,v0,0x18
80012178:	00021603 	sra	v0,v0,0x18
/home/git/21373271/21373271/kern/console.c:10
}
8001217c:	03c0e825 	move	sp,s8
80012180:	8fbe0004 	lw	s8,4(sp)
80012184:	27bd0008 	addiu	sp,sp,8
80012188:	03e00008 	jr	ra
8001218c:	00000000 	nop

80012190 <halt>:
halt():
/home/git/21373271/21373271/kern/console.c:12

void halt(void) {
80012190:	27bdfff8 	addiu	sp,sp,-8
80012194:	afbe0004 	sw	s8,4(sp)
80012198:	03a0f025 	move	s8,sp
/home/git/21373271/21373271/kern/console.c:13
	*((volatile char *)(KSEG1 + DEV_CONS_ADDRESS + DEV_CONS_HALT)) = 0;
8001219c:	3c02b000 	lui	v0,0xb000
800121a0:	34420010 	ori	v0,v0,0x10
800121a4:	a0400000 	sb	zero,0(v0)
/home/git/21373271/21373271/kern/console.c:14
}
800121a8:	00000000 	nop
800121ac:	03c0e825 	move	sp,s8
800121b0:	8fbe0004 	lw	s8,4(sp)
800121b4:	27bd0008 	addiu	sp,sp,8
800121b8:	03e00008 	jr	ra
800121bc:	00000000 	nop

800121c0 <_panic>:
_panic():
/home/git/21373271/21373271/kern/panic.c:7
#include <print.h>
#include <printk.h>

void outputk(void *data, const char *buf, size_t len);

void _panic(const char *file, int line, const char *func, const char *fmt, ...) {
800121c0:	27bdffb8 	addiu	sp,sp,-72
800121c4:	afbf0044 	sw	ra,68(sp)
800121c8:	afbe0040 	sw	s8,64(sp)
800121cc:	03a0f025 	move	s8,sp
800121d0:	afc40048 	sw	a0,72(s8)
800121d4:	afc5004c 	sw	a1,76(s8)
800121d8:	afc60050 	sw	a2,80(s8)
800121dc:	afc70054 	sw	a3,84(s8)
/home/git/21373271/21373271/kern/panic.c:9
	u_long sp, ra, badva, sr, cause, epc;
	asm("move %0, $29" : "=r"(sp) :);
800121e0:	03a01025 	move	v0,sp
800121e4:	afc20020 	sw	v0,32(s8)
/home/git/21373271/21373271/kern/panic.c:10
	asm("move %0, $31" : "=r"(ra) :);
800121e8:	03e01025 	move	v0,ra
800121ec:	afc20024 	sw	v0,36(s8)
/home/git/21373271/21373271/kern/panic.c:11
	asm("mfc0 %0, $8" : "=r"(badva) :);
800121f0:	40024000 	mfc0	v0,c0_badvaddr
800121f4:	00000000 	nop
800121f8:	afc20028 	sw	v0,40(s8)
/home/git/21373271/21373271/kern/panic.c:12
	asm("mfc0 %0, $12" : "=r"(sr) :);
800121fc:	40026000 	mfc0	v0,c0_sr
80012200:	00000000 	nop
80012204:	afc2002c 	sw	v0,44(s8)
/home/git/21373271/21373271/kern/panic.c:13
	asm("mfc0 %0, $13" : "=r"(cause) :);
80012208:	40026800 	mfc0	v0,c0_cause
8001220c:	00000000 	nop
80012210:	afc20030 	sw	v0,48(s8)
/home/git/21373271/21373271/kern/panic.c:14
	asm("mfc0 %0, $14" : "=r"(epc) :);
80012214:	40027000 	mfc0	v0,c0_epc
80012218:	00000000 	nop
8001221c:	afc20034 	sw	v0,52(s8)
/home/git/21373271/21373271/kern/panic.c:16

	printk("panic at %s:%d (%s): ", file, line, func);
80012220:	8fc70050 	lw	a3,80(s8)
80012224:	8fc6004c 	lw	a2,76(s8)
80012228:	8fc50048 	lw	a1,72(s8)
8001222c:	3c028001 	lui	v0,0x8001
80012230:	244453c0 	addiu	a0,v0,21440
80012234:	0c005289 	jal	80014a24 <printk>
80012238:	00000000 	nop
/home/git/21373271/21373271/kern/panic.c:19

	va_list ap;
	va_start(ap, fmt);
8001223c:	27c20058 	addiu	v0,s8,88
80012240:	afc20038 	sw	v0,56(s8)
/home/git/21373271/21373271/kern/panic.c:20
	vprintfmt(outputk, NULL, fmt, ap);
80012244:	8fc20038 	lw	v0,56(s8)
80012248:	00000000 	nop
8001224c:	00403825 	move	a3,v0
80012250:	8fc60054 	lw	a2,84(s8)
80012254:	00002825 	move	a1,zero
80012258:	3c028001 	lui	v0,0x8001
8001225c:	24444990 	addiu	a0,v0,18832
80012260:	0c004104 	jal	80010410 <vprintfmt>
80012264:	00000000 	nop
/home/git/21373271/21373271/kern/panic.c:23
	va_end(ap);

	printk("\n"
80012268:	8fc20028 	lw	v0,40(s8)
8001226c:	00000000 	nop
80012270:	afa20018 	sw	v0,24(sp)
80012274:	8fc20034 	lw	v0,52(s8)
80012278:	00000000 	nop
8001227c:	afa20014 	sw	v0,20(sp)
80012280:	8fc20030 	lw	v0,48(s8)
80012284:	00000000 	nop
80012288:	afa20010 	sw	v0,16(sp)
8001228c:	8fc7002c 	lw	a3,44(s8)
80012290:	8fc60020 	lw	a2,32(s8)
80012294:	8fc50024 	lw	a1,36(s8)
80012298:	3c028001 	lui	v0,0x8001
8001229c:	244453d8 	addiu	a0,v0,21464
800122a0:	0c005289 	jal	80014a24 <printk>
800122a4:	00000000 	nop
/home/git/21373271/21373271/kern/panic.c:55

#ifdef MOS_HANG_ON_PANIC
	while (1) {
	}
#else
	halt();
800122a8:	0c004864 	jal	80012190 <halt>
800122ac:	00000000 	nop
/home/git/21373271/21373271/kern/panic.c:57
#endif
}
800122b0:	00000000 	nop
800122b4:	03c0e825 	move	sp,s8
800122b8:	8fbf0044 	lw	ra,68(sp)
800122bc:	8fbe0040 	lw	s8,64(sp)
800122c0:	27bd0048 	addiu	sp,sp,72
800122c4:	03e00008 	jr	ra
800122c8:	00000000 	nop
800122cc:	00000000 	nop

800122d0 <page2ppn>:
page2ppn():
/home/git/21373271/21373271/kern/../include/pmap.h:28
};

extern struct Page *pages;
extern struct Page_list page_free_list;

static inline u_long page2ppn(struct Page *pp) {
800122d0:	27bdfff8 	addiu	sp,sp,-8
800122d4:	afbe0004 	sw	s8,4(sp)
800122d8:	03a0f025 	move	s8,sp
800122dc:	afc40008 	sw	a0,8(s8)
/home/git/21373271/21373271/kern/../include/pmap.h:29
	return pp - pages;
800122e0:	3c028001 	lui	v0,0x8001
800122e4:	8c425c38 	lw	v0,23608(v0)
800122e8:	8fc30008 	lw	v1,8(s8)
800122ec:	00000000 	nop
800122f0:	00621023 	subu	v0,v1,v0
800122f4:	00021883 	sra	v1,v0,0x2
800122f8:	00601025 	move	v0,v1
800122fc:	00021080 	sll	v0,v0,0x2
80012300:	00431021 	addu	v0,v0,v1
80012304:	00021900 	sll	v1,v0,0x4
80012308:	00431021 	addu	v0,v0,v1
8001230c:	00021a00 	sll	v1,v0,0x8
80012310:	00431021 	addu	v0,v0,v1
80012314:	00021c00 	sll	v1,v0,0x10
80012318:	00431021 	addu	v0,v0,v1
8001231c:	00021023 	negu	v0,v0
/home/git/21373271/21373271/kern/../include/pmap.h:30
}
80012320:	03c0e825 	move	sp,s8
80012324:	8fbe0004 	lw	s8,4(sp)
80012328:	27bd0008 	addiu	sp,sp,8
8001232c:	03e00008 	jr	ra
80012330:	00000000 	nop

80012334 <page2pa>:
page2pa():
/home/git/21373271/21373271/kern/../include/pmap.h:32

static inline u_long page2pa(struct Page *pp) {
80012334:	27bdffe8 	addiu	sp,sp,-24
80012338:	afbf0014 	sw	ra,20(sp)
8001233c:	afbe0010 	sw	s8,16(sp)
80012340:	03a0f025 	move	s8,sp
80012344:	afc40018 	sw	a0,24(s8)
/home/git/21373271/21373271/kern/../include/pmap.h:33
	return page2ppn(pp) << PGSHIFT;
80012348:	8fc40018 	lw	a0,24(s8)
8001234c:	0c0048b4 	jal	800122d0 <page2ppn>
80012350:	00000000 	nop
80012354:	00021300 	sll	v0,v0,0xc
/home/git/21373271/21373271/kern/../include/pmap.h:34
}
80012358:	03c0e825 	move	sp,s8
8001235c:	8fbf0014 	lw	ra,20(sp)
80012360:	8fbe0010 	lw	s8,16(sp)
80012364:	27bd0018 	addiu	sp,sp,24
80012368:	03e00008 	jr	ra
8001236c:	00000000 	nop

80012370 <pa2page>:
pa2page():
/home/git/21373271/21373271/kern/../include/pmap.h:36

static inline struct Page *pa2page(u_long pa) {
80012370:	27bdffe0 	addiu	sp,sp,-32
80012374:	afbf001c 	sw	ra,28(sp)
80012378:	afbe0018 	sw	s8,24(sp)
8001237c:	03a0f025 	move	s8,sp
80012380:	afc40020 	sw	a0,32(s8)
/home/git/21373271/21373271/kern/../include/pmap.h:37
	if (PPN(pa) >= npage) {
80012384:	8fc20020 	lw	v0,32(s8)
80012388:	00000000 	nop
8001238c:	00021b02 	srl	v1,v0,0xc
80012390:	3c028001 	lui	v0,0x8001
80012394:	8c425c30 	lw	v0,23600(v0)
80012398:	00000000 	nop
8001239c:	0062102b 	sltu	v0,v1,v0
800123a0:	1440000d 	bnez	v0,800123d8 <pa2page+0x68>
800123a4:	00000000 	nop
/home/git/21373271/21373271/kern/../include/pmap.h:38
		panic("pa2page called with invalid pa: %x", pa);
800123a8:	8fc20020 	lw	v0,32(s8)
800123ac:	00000000 	nop
800123b0:	afa20010 	sw	v0,16(sp)
800123b4:	3c028001 	lui	v0,0x8001
800123b8:	24475430 	addiu	a3,v0,21552
800123bc:	3c028001 	lui	v0,0x8001
800123c0:	24465a8c 	addiu	a2,v0,23180
800123c4:	24050026 	li	a1,38
800123c8:	3c028001 	lui	v0,0x8001
800123cc:	24445454 	addiu	a0,v0,21588
800123d0:	0c004870 	jal	800121c0 <_panic>
800123d4:	00000000 	nop
/home/git/21373271/21373271/kern/../include/pmap.h:40
	}
	return &pages[PPN(pa)];
800123d8:	3c028001 	lui	v0,0x8001
800123dc:	8c445c38 	lw	a0,23608(v0)
800123e0:	8fc20020 	lw	v0,32(s8)
800123e4:	00000000 	nop
800123e8:	00021b02 	srl	v1,v0,0xc
800123ec:	00601025 	move	v0,v1
800123f0:	00021040 	sll	v0,v0,0x1
800123f4:	00431021 	addu	v0,v0,v1
800123f8:	00021080 	sll	v0,v0,0x2
800123fc:	00821021 	addu	v0,a0,v0
/home/git/21373271/21373271/kern/../include/pmap.h:41
}
80012400:	03c0e825 	move	sp,s8
80012404:	8fbf001c 	lw	ra,28(sp)
80012408:	8fbe0018 	lw	s8,24(sp)
8001240c:	27bd0020 	addiu	sp,sp,32
80012410:	03e00008 	jr	ra
80012414:	00000000 	nop

80012418 <page2kva>:
page2kva():
/home/git/21373271/21373271/kern/../include/pmap.h:43

static inline u_long page2kva(struct Page *pp) {
80012418:	27bdffd8 	addiu	sp,sp,-40
8001241c:	afbf0024 	sw	ra,36(sp)
80012420:	afbe0020 	sw	s8,32(sp)
80012424:	03a0f025 	move	s8,sp
80012428:	afc40028 	sw	a0,40(s8)
/home/git/21373271/21373271/kern/../include/pmap.h:44
	return KADDR(page2pa(pp));
8001242c:	8fc40028 	lw	a0,40(s8)
80012430:	0c0048cd 	jal	80012334 <page2pa>
80012434:	00000000 	nop
80012438:	00021302 	srl	v0,v0,0xc
8001243c:	afc20018 	sw	v0,24(s8)
80012440:	3c028001 	lui	v0,0x8001
80012444:	8c425c30 	lw	v0,23600(v0)
80012448:	8fc30018 	lw	v1,24(s8)
8001244c:	00000000 	nop
80012450:	0062102b 	sltu	v0,v1,v0
80012454:	1440000e 	bnez	v0,80012490 <page2kva+0x78>
80012458:	00000000 	nop
/home/git/21373271/21373271/kern/../include/pmap.h:44 (discriminator 1)
8001245c:	8fc40028 	lw	a0,40(s8)
80012460:	0c0048cd 	jal	80012334 <page2pa>
80012464:	00000000 	nop
80012468:	afa20010 	sw	v0,16(sp)
8001246c:	3c028001 	lui	v0,0x8001
80012470:	24475468 	addiu	a3,v0,21608
80012474:	3c028001 	lui	v0,0x8001
80012478:	24465a68 	addiu	a2,v0,23144
8001247c:	2405002c 	li	a1,44
80012480:	3c028001 	lui	v0,0x8001
80012484:	24445454 	addiu	a0,v0,21588
80012488:	0c004870 	jal	800121c0 <_panic>
8001248c:	00000000 	nop
/home/git/21373271/21373271/kern/../include/pmap.h:44 (discriminator 3)
80012490:	8fc40028 	lw	a0,40(s8)
80012494:	0c0048cd 	jal	80012334 <page2pa>
80012498:	00000000 	nop
8001249c:	00401825 	move	v1,v0
800124a0:	3c028000 	lui	v0,0x8000
800124a4:	00621021 	addu	v0,v1,v0
/home/git/21373271/21373271/kern/../include/pmap.h:45 (discriminator 3)
}
800124a8:	03c0e825 	move	sp,s8
800124ac:	8fbf0024 	lw	ra,36(sp)
800124b0:	8fbe0020 	lw	s8,32(sp)
800124b4:	27bd0028 	addiu	sp,sp,40
800124b8:	03e00008 	jr	ra
800124bc:	00000000 	nop

800124c0 <va2pa>:
va2pa():
/home/git/21373271/21373271/kern/../include/pmap.h:47

static inline u_long va2pa(Pde *pgdir, u_long va) {
800124c0:	27bdffd8 	addiu	sp,sp,-40
800124c4:	afbf0024 	sw	ra,36(sp)
800124c8:	afbe0020 	sw	s8,32(sp)
800124cc:	03a0f025 	move	s8,sp
800124d0:	afc40028 	sw	a0,40(s8)
800124d4:	afc5002c 	sw	a1,44(s8)
/home/git/21373271/21373271/kern/../include/pmap.h:50
	Pte *p;

	pgdir = &pgdir[PDX(va)];
800124d8:	8fc2002c 	lw	v0,44(s8)
800124dc:	00000000 	nop
800124e0:	00021582 	srl	v0,v0,0x16
800124e4:	00021080 	sll	v0,v0,0x2
800124e8:	8fc30028 	lw	v1,40(s8)
800124ec:	00000000 	nop
800124f0:	00621021 	addu	v0,v1,v0
800124f4:	afc20028 	sw	v0,40(s8)
/home/git/21373271/21373271/kern/../include/pmap.h:51
	if (!(*pgdir & PTE_V)) {
800124f8:	8fc20028 	lw	v0,40(s8)
800124fc:	00000000 	nop
80012500:	8c420000 	lw	v0,0(v0)
80012504:	00000000 	nop
80012508:	30420200 	andi	v0,v0,0x200
8001250c:	14400004 	bnez	v0,80012520 <va2pa+0x60>
80012510:	00000000 	nop
/home/git/21373271/21373271/kern/../include/pmap.h:52
		return ~0;
80012514:	2402ffff 	li	v0,-1
80012518:	10000040 	b	8001261c <va2pa+0x15c>
8001251c:	00000000 	nop
/home/git/21373271/21373271/kern/../include/pmap.h:54
	}
	p = (Pte *)KADDR(PTE_ADDR(*pgdir));
80012520:	8fc20028 	lw	v0,40(s8)
80012524:	00000000 	nop
80012528:	8c420000 	lw	v0,0(v0)
8001252c:	00000000 	nop
80012530:	00021302 	srl	v0,v0,0xc
80012534:	afc20018 	sw	v0,24(s8)
80012538:	3c028001 	lui	v0,0x8001
8001253c:	8c425c30 	lw	v0,23600(v0)
80012540:	8fc30018 	lw	v1,24(s8)
80012544:	00000000 	nop
80012548:	0062102b 	sltu	v0,v1,v0
8001254c:	14400010 	bnez	v0,80012590 <va2pa+0xd0>
80012550:	00000000 	nop
/home/git/21373271/21373271/kern/../include/pmap.h:54 (discriminator 1)
80012554:	8fc20028 	lw	v0,40(s8)
80012558:	00000000 	nop
8001255c:	8c430000 	lw	v1,0(v0)
80012560:	2402f000 	li	v0,-4096
80012564:	00621024 	and	v0,v1,v0
80012568:	afa20010 	sw	v0,16(sp)
8001256c:	3c028001 	lui	v0,0x8001
80012570:	24475468 	addiu	a3,v0,21608
80012574:	3c028001 	lui	v0,0x8001
80012578:	24465acc 	addiu	a2,v0,23244
8001257c:	24050036 	li	a1,54
80012580:	3c028001 	lui	v0,0x8001
80012584:	24445454 	addiu	a0,v0,21588
80012588:	0c004870 	jal	800121c0 <_panic>
8001258c:	00000000 	nop
/home/git/21373271/21373271/kern/../include/pmap.h:54 (discriminator 3)
80012590:	8fc20028 	lw	v0,40(s8)
80012594:	00000000 	nop
80012598:	8c430000 	lw	v1,0(v0)
8001259c:	2402f000 	li	v0,-4096
800125a0:	00621824 	and	v1,v1,v0
800125a4:	3c028000 	lui	v0,0x8000
800125a8:	00621021 	addu	v0,v1,v0
800125ac:	afc2001c 	sw	v0,28(s8)
/home/git/21373271/21373271/kern/../include/pmap.h:55 (discriminator 3)
	if (!(p[PTX(va)] & PTE_V)) {
800125b0:	8fc2002c 	lw	v0,44(s8)
800125b4:	00000000 	nop
800125b8:	00021302 	srl	v0,v0,0xc
800125bc:	304203ff 	andi	v0,v0,0x3ff
800125c0:	00021080 	sll	v0,v0,0x2
800125c4:	8fc3001c 	lw	v1,28(s8)
800125c8:	00000000 	nop
800125cc:	00621021 	addu	v0,v1,v0
800125d0:	8c420000 	lw	v0,0(v0)
800125d4:	00000000 	nop
800125d8:	30420200 	andi	v0,v0,0x200
800125dc:	14400004 	bnez	v0,800125f0 <va2pa+0x130>
800125e0:	00000000 	nop
/home/git/21373271/21373271/kern/../include/pmap.h:56
		return ~0;
800125e4:	2402ffff 	li	v0,-1
800125e8:	1000000c 	b	8001261c <va2pa+0x15c>
800125ec:	00000000 	nop
/home/git/21373271/21373271/kern/../include/pmap.h:58
	}
	return PTE_ADDR(p[PTX(va)]);
800125f0:	8fc2002c 	lw	v0,44(s8)
800125f4:	00000000 	nop
800125f8:	00021302 	srl	v0,v0,0xc
800125fc:	304203ff 	andi	v0,v0,0x3ff
80012600:	00021080 	sll	v0,v0,0x2
80012604:	8fc3001c 	lw	v1,28(s8)
80012608:	00000000 	nop
8001260c:	00621021 	addu	v0,v1,v0
80012610:	8c430000 	lw	v1,0(v0)
80012614:	2402f000 	li	v0,-4096
80012618:	00621024 	and	v0,v1,v0
/home/git/21373271/21373271/kern/../include/pmap.h:59
}
8001261c:	03c0e825 	move	sp,s8
80012620:	8fbf0024 	lw	ra,36(sp)
80012624:	8fbe0020 	lw	s8,32(sp)
80012628:	27bd0028 	addiu	sp,sp,40
8001262c:	03e00008 	jr	ra
80012630:	00000000 	nop

80012634 <mips_detect_memory>:
mips_detect_memory():
/home/git/21373271/21373271/kern/pmap.c:22
80012634:	27bdffe8 	addiu	sp,sp,-24
80012638:	afbf0014 	sw	ra,20(sp)
8001263c:	afbe0010 	sw	s8,16(sp)
80012640:	03a0f025 	move	s8,sp
/home/git/21373271/21373271/kern/pmap.c:24
80012644:	3c02b100 	lui	v0,0xb100
80012648:	34420090 	ori	v0,v0,0x90
8001264c:	8c430000 	lw	v1,0(v0)
80012650:	3c028001 	lui	v0,0x8001
80012654:	ac435c40 	sw	v1,23616(v0)
/home/git/21373271/21373271/kern/pmap.c:28
80012658:	3c028001 	lui	v0,0x8001
8001265c:	8c425c40 	lw	v0,23616(v0)
80012660:	00000000 	nop
80012664:	00021b02 	srl	v1,v0,0xc
80012668:	3c028001 	lui	v0,0x8001
8001266c:	ac435c30 	sw	v1,23600(v0)
/home/git/21373271/21373271/kern/pmap.c:29
80012670:	3c028001 	lui	v0,0x8001
80012674:	8c425c40 	lw	v0,23616(v0)
80012678:	00000000 	nop
8001267c:	00021a82 	srl	v1,v0,0xa
80012680:	3c028001 	lui	v0,0x8001
80012684:	8c425c30 	lw	v0,23600(v0)
80012688:	00000000 	nop
8001268c:	00403025 	move	a2,v0
80012690:	00602825 	move	a1,v1
80012694:	3c028001 	lui	v0,0x8001
80012698:	2444548c 	addiu	a0,v0,21644
8001269c:	0c005289 	jal	80014a24 <printk>
800126a0:	00000000 	nop
/home/git/21373271/21373271/kern/pmap.c:30
800126a4:	00000000 	nop
800126a8:	03c0e825 	move	sp,s8
800126ac:	8fbf0014 	lw	ra,20(sp)
800126b0:	8fbe0010 	lw	s8,16(sp)
800126b4:	27bd0018 	addiu	sp,sp,24
800126b8:	03e00008 	jr	ra
800126bc:	00000000 	nop

800126c0 <alloc>:
alloc():
/home/git/21373271/21373271/kern/pmap.c:38
800126c0:	27bdffd0 	addiu	sp,sp,-48
800126c4:	afbf002c 	sw	ra,44(sp)
800126c8:	afbe0028 	sw	s8,40(sp)
800126cc:	03a0f025 	move	s8,sp
800126d0:	afc40030 	sw	a0,48(s8)
800126d4:	afc50034 	sw	a1,52(s8)
800126d8:	afc60038 	sw	a2,56(s8)
/home/git/21373271/21373271/kern/pmap.c:44
800126dc:	3c028001 	lui	v0,0x8001
800126e0:	8c425c44 	lw	v0,23620(v0)
800126e4:	00000000 	nop
800126e8:	14400005 	bnez	v0,80012700 <alloc+0x40>
800126ec:	00000000 	nop
/home/git/21373271/21373271/kern/pmap.c:45
800126f0:	3c028040 	lui	v0,0x8040
800126f4:	24430000 	addiu	v1,v0,0
800126f8:	3c028001 	lui	v0,0x8001
800126fc:	ac435c44 	sw	v1,23620(v0)
/home/git/21373271/21373271/kern/pmap.c:49
80012700:	3c028001 	lui	v0,0x8001
80012704:	8c435c44 	lw	v1,23620(v0)
80012708:	8fc20034 	lw	v0,52(s8)
8001270c:	00000000 	nop
80012710:	00621021 	addu	v0,v1,v0
80012714:	2443ffff 	addiu	v1,v0,-1
80012718:	8fc20034 	lw	v0,52(s8)
8001271c:	00000000 	nop
80012720:	00021023 	negu	v0,v0
80012724:	00621824 	and	v1,v1,v0
80012728:	3c028001 	lui	v0,0x8001
8001272c:	ac435c44 	sw	v1,23620(v0)
/home/git/21373271/21373271/kern/pmap.c:52
80012730:	3c028001 	lui	v0,0x8001
80012734:	8c425c44 	lw	v0,23620(v0)
80012738:	00000000 	nop
8001273c:	afc20018 	sw	v0,24(s8)
/home/git/21373271/21373271/kern/pmap.c:55
80012740:	3c028001 	lui	v0,0x8001
80012744:	8c435c44 	lw	v1,23620(v0)
80012748:	8fc20030 	lw	v0,48(s8)
8001274c:	00000000 	nop
80012750:	00621821 	addu	v1,v1,v0
80012754:	3c028001 	lui	v0,0x8001
80012758:	ac435c44 	sw	v1,23620(v0)
/home/git/21373271/21373271/kern/pmap.c:58
8001275c:	3c028001 	lui	v0,0x8001
80012760:	8c425c44 	lw	v0,23620(v0)
80012764:	00000000 	nop
80012768:	afc2001c 	sw	v0,28(s8)
8001276c:	8fc2001c 	lw	v0,28(s8)
80012770:	00000000 	nop
80012774:	0440000d 	bltz	v0,800127ac <alloc+0xec>
80012778:	00000000 	nop
/home/git/21373271/21373271/kern/pmap.c:58 (discriminator 1)
8001277c:	8fc2001c 	lw	v0,28(s8)
80012780:	00000000 	nop
80012784:	afa20010 	sw	v0,16(sp)
80012788:	3c028001 	lui	v0,0x8001
8001278c:	244754b8 	addiu	a3,v0,21688
80012790:	3c028001 	lui	v0,0x8001
80012794:	24465a54 	addiu	a2,v0,23124
80012798:	2405003a 	li	a1,58
8001279c:	3c028001 	lui	v0,0x8001
800127a0:	244454dc 	addiu	a0,v0,21724
800127a4:	0c004870 	jal	800121c0 <_panic>
800127a8:	00000000 	nop
/home/git/21373271/21373271/kern/pmap.c:58 (discriminator 3)
800127ac:	8fc3001c 	lw	v1,28(s8)
800127b0:	3c028000 	lui	v0,0x8000
800127b4:	00621821 	addu	v1,v1,v0
800127b8:	3c028001 	lui	v0,0x8001
800127bc:	8c425c40 	lw	v0,23616(v0)
800127c0:	00000000 	nop
800127c4:	0062102b 	sltu	v0,v1,v0
800127c8:	38420001 	xori	v0,v0,0x1
800127cc:	304200ff 	andi	v0,v0,0xff
800127d0:	afc20020 	sw	v0,32(s8)
800127d4:	8fc20020 	lw	v0,32(s8)
800127d8:	00000000 	nop
800127dc:	1040000d 	beqz	v0,80012814 <alloc+0x154>
800127e0:	00000000 	nop
/home/git/21373271/21373271/kern/pmap.c:58 (discriminator 4)
800127e4:	8fc20020 	lw	v0,32(s8)
800127e8:	00000000 	nop
800127ec:	afa20010 	sw	v0,16(sp)
800127f0:	3c028001 	lui	v0,0x8001
800127f4:	244754e4 	addiu	a3,v0,21732
800127f8:	3c028001 	lui	v0,0x8001
800127fc:	24465a54 	addiu	a2,v0,23124
80012800:	2405003a 	li	a1,58
80012804:	3c028001 	lui	v0,0x8001
80012808:	244454dc 	addiu	a0,v0,21724
8001280c:	0c004870 	jal	800121c0 <_panic>
80012810:	00000000 	nop
/home/git/21373271/21373271/kern/pmap.c:61
80012814:	8fc20038 	lw	v0,56(s8)
80012818:	00000000 	nop
8001281c:	10400007 	beqz	v0,8001283c <alloc+0x17c>
80012820:	00000000 	nop
/home/git/21373271/21373271/kern/pmap.c:62
80012824:	8fc20018 	lw	v0,24(s8)
80012828:	8fc60030 	lw	a2,48(s8)
8001282c:	00002825 	move	a1,zero
80012830:	00402025 	move	a0,v0
80012834:	0c00451a 	jal	80011468 <memset>
80012838:	00000000 	nop
/home/git/21373271/21373271/kern/pmap.c:66
8001283c:	8fc20018 	lw	v0,24(s8)
/home/git/21373271/21373271/kern/pmap.c:67
80012840:	03c0e825 	move	sp,s8
80012844:	8fbf002c 	lw	ra,44(sp)
80012848:	8fbe0028 	lw	s8,40(sp)
8001284c:	27bd0030 	addiu	sp,sp,48
80012850:	03e00008 	jr	ra
80012854:	00000000 	nop

80012858 <mips_vm_init>:
mips_vm_init():
/home/git/21373271/21373271/kern/pmap.c:73
80012858:	27bdffe8 	addiu	sp,sp,-24
8001285c:	afbf0014 	sw	ra,20(sp)
80012860:	afbe0010 	sw	s8,16(sp)
80012864:	03a0f025 	move	s8,sp
/home/git/21373271/21373271/kern/pmap.c:78
80012868:	3c028001 	lui	v0,0x8001
8001286c:	8c435c30 	lw	v1,23600(v0)
80012870:	00000000 	nop
80012874:	00601025 	move	v0,v1
80012878:	00021040 	sll	v0,v0,0x1
8001287c:	00431021 	addu	v0,v0,v1
80012880:	00021080 	sll	v0,v0,0x2
80012884:	24060001 	li	a2,1
80012888:	24051000 	li	a1,4096
8001288c:	00402025 	move	a0,v0
80012890:	0c0049b0 	jal	800126c0 <alloc>
80012894:	00000000 	nop
80012898:	00401825 	move	v1,v0
8001289c:	3c028001 	lui	v0,0x8001
800128a0:	ac435c38 	sw	v1,23608(v0)
/home/git/21373271/21373271/kern/pmap.c:79
800128a4:	3c028001 	lui	v0,0x8001
800128a8:	8c425c44 	lw	v0,23620(v0)
800128ac:	00000000 	nop
800128b0:	00402825 	move	a1,v0
800128b4:	3c028001 	lui	v0,0x8001
800128b8:	2444550c 	addiu	a0,v0,21772
800128bc:	0c005289 	jal	80014a24 <printk>
800128c0:	00000000 	nop
/home/git/21373271/21373271/kern/pmap.c:80
800128c4:	3c028001 	lui	v0,0x8001
800128c8:	2444552c 	addiu	a0,v0,21804
800128cc:	0c005289 	jal	80014a24 <printk>
800128d0:	00000000 	nop
/home/git/21373271/21373271/kern/pmap.c:81
800128d4:	00000000 	nop
800128d8:	03c0e825 	move	sp,s8
800128dc:	8fbf0014 	lw	ra,20(sp)
800128e0:	8fbe0010 	lw	s8,16(sp)
800128e4:	27bd0018 	addiu	sp,sp,24
800128e8:	03e00008 	jr	ra
800128ec:	00000000 	nop

800128f0 <page_init>:
page_init():
/home/git/21373271/21373271/kern/pmap.c:89
800128f0:	27bdffd0 	addiu	sp,sp,-48
800128f4:	afbf002c 	sw	ra,44(sp)
800128f8:	afbe0028 	sw	s8,40(sp)
800128fc:	03a0f025 	move	s8,sp
/home/git/21373271/21373271/kern/pmap.c:91
80012900:	3c028001 	lui	v0,0x8001
80012904:	ac405c3c 	sw	zero,23612(v0)
/home/git/21373271/21373271/kern/pmap.c:96
80012908:	3c028001 	lui	v0,0x8001
8001290c:	8c425c44 	lw	v0,23620(v0)
80012910:	00000000 	nop
80012914:	24430fff 	addiu	v1,v0,4095
80012918:	2402f000 	li	v0,-4096
8001291c:	00621824 	and	v1,v1,v0
80012920:	3c028001 	lui	v0,0x8001
80012924:	ac435c44 	sw	v1,23620(v0)
/home/git/21373271/21373271/kern/pmap.c:98
80012928:	afc00018 	sw	zero,24(s8)
/home/git/21373271/21373271/kern/pmap.c:99
8001292c:	3c028001 	lui	v0,0x8001
80012930:	8c425c44 	lw	v0,23620(v0)
80012934:	00000000 	nop
80012938:	afc2001c 	sw	v0,28(s8)
8001293c:	8fc2001c 	lw	v0,28(s8)
80012940:	00000000 	nop
80012944:	0440000d 	bltz	v0,8001297c <page_init+0x8c>
80012948:	00000000 	nop
/home/git/21373271/21373271/kern/pmap.c:99 (discriminator 1)
8001294c:	8fc2001c 	lw	v0,28(s8)
80012950:	00000000 	nop
80012954:	afa20010 	sw	v0,16(sp)
80012958:	3c028001 	lui	v0,0x8001
8001295c:	244754b8 	addiu	a3,v0,21688
80012960:	3c028001 	lui	v0,0x8001
80012964:	24465a5c 	addiu	a2,v0,23132
80012968:	24050063 	li	a1,99
8001296c:	3c028001 	lui	v0,0x8001
80012970:	244454dc 	addiu	a0,v0,21724
80012974:	0c004870 	jal	800121c0 <_panic>
80012978:	00000000 	nop
/home/git/21373271/21373271/kern/pmap.c:99 (discriminator 3)
8001297c:	8fc3001c 	lw	v1,28(s8)
80012980:	3c028000 	lui	v0,0x8000
80012984:	00621021 	addu	v0,v1,v0
80012988:	00021302 	srl	v0,v0,0xc
8001298c:	afc20020 	sw	v0,32(s8)
/home/git/21373271/21373271/kern/pmap.c:112 (discriminator 3)
80012990:	afc00018 	sw	zero,24(s8)
80012994:	10000010 	b	800129d8 <page_init+0xe8>
80012998:	00000000 	nop
/home/git/21373271/21373271/kern/pmap.c:114 (discriminator 3)
8001299c:	3c028001 	lui	v0,0x8001
800129a0:	8c445c38 	lw	a0,23608(v0)
800129a4:	8fc30018 	lw	v1,24(s8)
800129a8:	00000000 	nop
800129ac:	00601025 	move	v0,v1
800129b0:	00021040 	sll	v0,v0,0x1
800129b4:	00431021 	addu	v0,v0,v1
800129b8:	00021080 	sll	v0,v0,0x2
800129bc:	00821021 	addu	v0,a0,v0
800129c0:	24030001 	li	v1,1
800129c4:	a4430008 	sh	v1,8(v0)
/home/git/21373271/21373271/kern/pmap.c:112 (discriminator 3)
800129c8:	8fc20018 	lw	v0,24(s8)
800129cc:	00000000 	nop
800129d0:	24420001 	addiu	v0,v0,1
800129d4:	afc20018 	sw	v0,24(s8)
/home/git/21373271/21373271/kern/pmap.c:112 (discriminator 1)
800129d8:	8fc30018 	lw	v1,24(s8)
800129dc:	8fc20020 	lw	v0,32(s8)
800129e0:	00000000 	nop
800129e4:	0062102a 	slt	v0,v1,v0
800129e8:	1440ffec 	bnez	v0,8001299c <page_init+0xac>
800129ec:	00000000 	nop
/home/git/21373271/21373271/kern/pmap.c:117
800129f0:	8fc20020 	lw	v0,32(s8)
800129f4:	00000000 	nop
800129f8:	afc20018 	sw	v0,24(s8)
800129fc:	10000051 	b	80012b44 <page_init+0x254>
80012a00:	00000000 	nop
/home/git/21373271/21373271/kern/pmap.c:119
80012a04:	3c028001 	lui	v0,0x8001
80012a08:	8c445c38 	lw	a0,23608(v0)
80012a0c:	8fc30018 	lw	v1,24(s8)
80012a10:	00000000 	nop
80012a14:	00601025 	move	v0,v1
80012a18:	00021040 	sll	v0,v0,0x1
80012a1c:	00431021 	addu	v0,v0,v1
80012a20:	00021080 	sll	v0,v0,0x2
80012a24:	00821021 	addu	v0,a0,v0
80012a28:	94430008 	lhu	v1,8(v0)
80012a2c:	24020001 	li	v0,1
80012a30:	10620040 	beq	v1,v0,80012b34 <page_init+0x244>
80012a34:	00000000 	nop
/home/git/21373271/21373271/kern/pmap.c:121
80012a38:	3c028001 	lui	v0,0x8001
80012a3c:	8c445c38 	lw	a0,23608(v0)
80012a40:	8fc30018 	lw	v1,24(s8)
80012a44:	00000000 	nop
80012a48:	00601025 	move	v0,v1
80012a4c:	00021040 	sll	v0,v0,0x1
80012a50:	00431021 	addu	v0,v0,v1
80012a54:	00021080 	sll	v0,v0,0x2
80012a58:	00821021 	addu	v0,a0,v0
80012a5c:	a4400008 	sh	zero,8(v0)
/home/git/21373271/21373271/kern/pmap.c:122
80012a60:	3c028001 	lui	v0,0x8001
80012a64:	8c445c38 	lw	a0,23608(v0)
80012a68:	8fc30018 	lw	v1,24(s8)
80012a6c:	00000000 	nop
80012a70:	00601025 	move	v0,v1
80012a74:	00021040 	sll	v0,v0,0x1
80012a78:	00431021 	addu	v0,v0,v1
80012a7c:	00021080 	sll	v0,v0,0x2
80012a80:	00821021 	addu	v0,a0,v0
80012a84:	3c038001 	lui	v1,0x8001
80012a88:	8c635c3c 	lw	v1,23612(v1)
80012a8c:	00000000 	nop
80012a90:	ac430000 	sw	v1,0(v0)
80012a94:	8c420000 	lw	v0,0(v0)
80012a98:	00000000 	nop
80012a9c:	1040000e 	beqz	v0,80012ad8 <page_init+0x1e8>
80012aa0:	00000000 	nop
/home/git/21373271/21373271/kern/pmap.c:122 (discriminator 1)
80012aa4:	3c028001 	lui	v0,0x8001
80012aa8:	8c445c38 	lw	a0,23608(v0)
80012aac:	8fc30018 	lw	v1,24(s8)
80012ab0:	00000000 	nop
80012ab4:	00601025 	move	v0,v1
80012ab8:	00021040 	sll	v0,v0,0x1
80012abc:	00431021 	addu	v0,v0,v1
80012ac0:	00021080 	sll	v0,v0,0x2
80012ac4:	00821821 	addu	v1,a0,v0
80012ac8:	3c028001 	lui	v0,0x8001
80012acc:	8c425c3c 	lw	v0,23612(v0)
80012ad0:	00000000 	nop
80012ad4:	ac430004 	sw	v1,4(v0)
/home/git/21373271/21373271/kern/pmap.c:122 (discriminator 3)
80012ad8:	3c028001 	lui	v0,0x8001
80012adc:	8c445c38 	lw	a0,23608(v0)
80012ae0:	8fc30018 	lw	v1,24(s8)
80012ae4:	00000000 	nop
80012ae8:	00601025 	move	v0,v1
80012aec:	00021040 	sll	v0,v0,0x1
80012af0:	00431021 	addu	v0,v0,v1
80012af4:	00021080 	sll	v0,v0,0x2
80012af8:	00821821 	addu	v1,a0,v0
80012afc:	3c028001 	lui	v0,0x8001
80012b00:	ac435c3c 	sw	v1,23612(v0)
80012b04:	3c028001 	lui	v0,0x8001
80012b08:	8c445c38 	lw	a0,23608(v0)
80012b0c:	8fc30018 	lw	v1,24(s8)
80012b10:	00000000 	nop
80012b14:	00601025 	move	v0,v1
80012b18:	00021040 	sll	v0,v0,0x1
80012b1c:	00431021 	addu	v0,v0,v1
80012b20:	00021080 	sll	v0,v0,0x2
80012b24:	00821021 	addu	v0,a0,v0
80012b28:	3c038001 	lui	v1,0x8001
80012b2c:	24635c3c 	addiu	v1,v1,23612
80012b30:	ac430004 	sw	v1,4(v0)
/home/git/21373271/21373271/kern/pmap.c:117 (discriminator 2)
80012b34:	8fc20018 	lw	v0,24(s8)
80012b38:	00000000 	nop
80012b3c:	24420001 	addiu	v0,v0,1
80012b40:	afc20018 	sw	v0,24(s8)
/home/git/21373271/21373271/kern/pmap.c:117 (discriminator 1)
80012b44:	8fc30018 	lw	v1,24(s8)
80012b48:	3c028001 	lui	v0,0x8001
80012b4c:	8c425c30 	lw	v0,23600(v0)
80012b50:	00000000 	nop
80012b54:	0062102b 	sltu	v0,v1,v0
80012b58:	1440ffaa 	bnez	v0,80012a04 <page_init+0x114>
80012b5c:	00000000 	nop
	...
/home/git/21373271/21373271/kern/pmap.c:128
80012b68:	03c0e825 	move	sp,s8
80012b6c:	8fbf002c 	lw	ra,44(sp)
80012b70:	8fbe0028 	lw	s8,40(sp)
80012b74:	27bd0030 	addiu	sp,sp,48
80012b78:	03e00008 	jr	ra
80012b7c:	00000000 	nop

80012b80 <page_alloc>:
page_alloc():
/home/git/21373271/21373271/kern/pmap.c:143
80012b80:	27bdffe0 	addiu	sp,sp,-32
80012b84:	afbf001c 	sw	ra,28(sp)
80012b88:	afbe0018 	sw	s8,24(sp)
80012b8c:	03a0f025 	move	s8,sp
80012b90:	afc40020 	sw	a0,32(s8)
/home/git/21373271/21373271/kern/pmap.c:147
80012b94:	3c028001 	lui	v0,0x8001
80012b98:	8c425c3c 	lw	v0,23612(v0)
80012b9c:	00000000 	nop
80012ba0:	14400004 	bnez	v0,80012bb4 <page_alloc+0x34>
80012ba4:	00000000 	nop
/home/git/21373271/21373271/kern/pmap.c:149
80012ba8:	2402fffc 	li	v0,-4
80012bac:	10000028 	b	80012c50 <page_alloc+0xd0>
80012bb0:	00000000 	nop
/home/git/21373271/21373271/kern/pmap.c:151
80012bb4:	3c028001 	lui	v0,0x8001
80012bb8:	8c425c3c 	lw	v0,23612(v0)
80012bbc:	00000000 	nop
80012bc0:	afc20010 	sw	v0,16(s8)
/home/git/21373271/21373271/kern/pmap.c:152
80012bc4:	8fc20010 	lw	v0,16(s8)
80012bc8:	00000000 	nop
80012bcc:	8c420000 	lw	v0,0(v0)
80012bd0:	00000000 	nop
80012bd4:	10400009 	beqz	v0,80012bfc <page_alloc+0x7c>
80012bd8:	00000000 	nop
/home/git/21373271/21373271/kern/pmap.c:152 (discriminator 1)
80012bdc:	8fc20010 	lw	v0,16(s8)
80012be0:	00000000 	nop
80012be4:	8c420000 	lw	v0,0(v0)
80012be8:	8fc30010 	lw	v1,16(s8)
80012bec:	00000000 	nop
80012bf0:	8c630004 	lw	v1,4(v1)
80012bf4:	00000000 	nop
80012bf8:	ac430004 	sw	v1,4(v0)
/home/git/21373271/21373271/kern/pmap.c:152 (discriminator 3)
80012bfc:	8fc20010 	lw	v0,16(s8)
80012c00:	00000000 	nop
80012c04:	8c420004 	lw	v0,4(v0)
80012c08:	8fc30010 	lw	v1,16(s8)
80012c0c:	00000000 	nop
80012c10:	8c630000 	lw	v1,0(v1)
80012c14:	00000000 	nop
80012c18:	ac430000 	sw	v1,0(v0)
/home/git/21373271/21373271/kern/pmap.c:153 (discriminator 3)
80012c1c:	8fc40010 	lw	a0,16(s8)
80012c20:	0c004906 	jal	80012418 <page2kva>
80012c24:	00000000 	nop
80012c28:	24061000 	li	a2,4096
80012c2c:	00002825 	move	a1,zero
80012c30:	00402025 	move	a0,v0
80012c34:	0c00451a 	jal	80011468 <memset>
80012c38:	00000000 	nop
/home/git/21373271/21373271/kern/pmap.c:157 (discriminator 3)
80012c3c:	8fc20020 	lw	v0,32(s8)
80012c40:	8fc30010 	lw	v1,16(s8)
80012c44:	00000000 	nop
80012c48:	ac430000 	sw	v1,0(v0)
/home/git/21373271/21373271/kern/pmap.c:158 (discriminator 3)
80012c4c:	00001025 	move	v0,zero
/home/git/21373271/21373271/kern/pmap.c:159
80012c50:	03c0e825 	move	sp,s8
80012c54:	8fbf001c 	lw	ra,28(sp)
80012c58:	8fbe0018 	lw	s8,24(sp)
80012c5c:	27bd0020 	addiu	sp,sp,32
80012c60:	03e00008 	jr	ra
80012c64:	00000000 	nop

80012c68 <page_free>:
page_free():
/home/git/21373271/21373271/kern/pmap.c:167
80012c68:	27bdffe0 	addiu	sp,sp,-32
80012c6c:	afbf001c 	sw	ra,28(sp)
80012c70:	afbe0018 	sw	s8,24(sp)
80012c74:	03a0f025 	move	s8,sp
80012c78:	afc40020 	sw	a0,32(s8)
/home/git/21373271/21373271/kern/pmap.c:168
80012c7c:	8fc20020 	lw	v0,32(s8)
80012c80:	00000000 	nop
80012c84:	94420008 	lhu	v0,8(v0)
80012c88:	00000000 	nop
80012c8c:	1040000d 	beqz	v0,80012cc4 <page_free+0x5c>
80012c90:	00000000 	nop
/home/git/21373271/21373271/kern/pmap.c:168 (discriminator 1)
80012c94:	3c028001 	lui	v0,0x8001
80012c98:	24425564 	addiu	v0,v0,21860
80012c9c:	afa20010 	sw	v0,16(sp)
80012ca0:	3c028001 	lui	v0,0x8001
80012ca4:	2447554c 	addiu	a3,v0,21836
80012ca8:	3c028001 	lui	v0,0x8001
80012cac:	24465a74 	addiu	a2,v0,23156
80012cb0:	240500a8 	li	a1,168
80012cb4:	3c028001 	lui	v0,0x8001
80012cb8:	244454dc 	addiu	a0,v0,21724
80012cbc:	0c004870 	jal	800121c0 <_panic>
80012cc0:	00000000 	nop
/home/git/21373271/21373271/kern/pmap.c:169
80012cc4:	3c028001 	lui	v0,0x8001
80012cc8:	8c435c3c 	lw	v1,23612(v0)
80012ccc:	8fc20020 	lw	v0,32(s8)
80012cd0:	00000000 	nop
80012cd4:	ac430000 	sw	v1,0(v0)
80012cd8:	8fc20020 	lw	v0,32(s8)
80012cdc:	00000000 	nop
80012ce0:	8c420000 	lw	v0,0(v0)
80012ce4:	00000000 	nop
80012ce8:	10400006 	beqz	v0,80012d04 <page_free+0x9c>
80012cec:	00000000 	nop
/home/git/21373271/21373271/kern/pmap.c:169 (discriminator 1)
80012cf0:	3c028001 	lui	v0,0x8001
80012cf4:	8c425c3c 	lw	v0,23612(v0)
80012cf8:	8fc30020 	lw	v1,32(s8)
80012cfc:	00000000 	nop
80012d00:	ac430004 	sw	v1,4(v0)
/home/git/21373271/21373271/kern/pmap.c:169 (discriminator 3)
80012d04:	3c028001 	lui	v0,0x8001
80012d08:	8fc30020 	lw	v1,32(s8)
80012d0c:	00000000 	nop
80012d10:	ac435c3c 	sw	v1,23612(v0)
80012d14:	8fc20020 	lw	v0,32(s8)
80012d18:	3c038001 	lui	v1,0x8001
80012d1c:	24635c3c 	addiu	v1,v1,23612
80012d20:	ac430004 	sw	v1,4(v0)
/home/git/21373271/21373271/kern/pmap.c:170 (discriminator 3)
80012d24:	00000000 	nop
/home/git/21373271/21373271/kern/pmap.c:173 (discriminator 3)
80012d28:	03c0e825 	move	sp,s8
80012d2c:	8fbf001c 	lw	ra,28(sp)
80012d30:	8fbe0018 	lw	s8,24(sp)
80012d34:	27bd0020 	addiu	sp,sp,32
80012d38:	03e00008 	jr	ra
80012d3c:	00000000 	nop

80012d40 <pgdir_walk>:
pgdir_walk():
/home/git/21373271/21373271/kern/pmap.c:190
80012d40:	27bdffc8 	addiu	sp,sp,-56
80012d44:	afbf0034 	sw	ra,52(sp)
80012d48:	afbe0030 	sw	s8,48(sp)
80012d4c:	afb0002c 	sw	s0,44(sp)
80012d50:	03a0f025 	move	s8,sp
80012d54:	afc40038 	sw	a0,56(s8)
80012d58:	afc5003c 	sw	a1,60(s8)
80012d5c:	afc60040 	sw	a2,64(s8)
80012d60:	afc70044 	sw	a3,68(s8)
/home/git/21373271/21373271/kern/pmap.c:196
80012d64:	8fc2003c 	lw	v0,60(s8)
80012d68:	00000000 	nop
80012d6c:	00021582 	srl	v0,v0,0x16
80012d70:	00021080 	sll	v0,v0,0x2
80012d74:	8fc30038 	lw	v1,56(s8)
80012d78:	00000000 	nop
80012d7c:	00621021 	addu	v0,v1,v0
80012d80:	afc20018 	sw	v0,24(s8)
/home/git/21373271/21373271/kern/pmap.c:201
80012d84:	8fc20018 	lw	v0,24(s8)
80012d88:	00000000 	nop
80012d8c:	8c420000 	lw	v0,0(v0)
80012d90:	00000000 	nop
80012d94:	30420200 	andi	v0,v0,0x200
80012d98:	1440001a 	bnez	v0,80012e04 <pgdir_walk+0xc4>
80012d9c:	00000000 	nop
/home/git/21373271/21373271/kern/pmap.c:203
80012da0:	8fc20040 	lw	v0,64(s8)
80012da4:	00000000 	nop
80012da8:	10400016 	beqz	v0,80012e04 <pgdir_walk+0xc4>
80012dac:	00000000 	nop
/home/git/21373271/21373271/kern/pmap.c:205
80012db0:	27c20020 	addiu	v0,s8,32
80012db4:	00402025 	move	a0,v0
80012db8:	0c004ae0 	jal	80012b80 <page_alloc>
80012dbc:	00000000 	nop
80012dc0:	04410004 	bgez	v0,80012dd4 <pgdir_walk+0x94>
80012dc4:	00000000 	nop
/home/git/21373271/21373271/kern/pmap.c:207
80012dc8:	2402fffc 	li	v0,-4
80012dcc:	1000003b 	b	80012ebc <pgdir_walk+0x17c>
80012dd0:	00000000 	nop
/home/git/21373271/21373271/kern/pmap.c:210
80012dd4:	8fc20020 	lw	v0,32(s8)
80012dd8:	00000000 	nop
80012ddc:	00402025 	move	a0,v0
80012de0:	0c0048cd 	jal	80012334 <page2pa>
80012de4:	00000000 	nop
80012de8:	34430200 	ori	v1,v0,0x200
80012dec:	8fc20018 	lw	v0,24(s8)
80012df0:	00000000 	nop
80012df4:	ac430000 	sw	v1,0(v0)
/home/git/21373271/21373271/kern/pmap.c:211
80012df8:	8fc20020 	lw	v0,32(s8)
80012dfc:	24030001 	li	v1,1
80012e00:	a4430008 	sh	v1,8(v0)
/home/git/21373271/21373271/kern/pmap.c:220
80012e04:	8fc2003c 	lw	v0,60(s8)
80012e08:	00000000 	nop
80012e0c:	00021302 	srl	v0,v0,0xc
80012e10:	304203ff 	andi	v0,v0,0x3ff
80012e14:	00028080 	sll	s0,v0,0x2
80012e18:	8fc20018 	lw	v0,24(s8)
80012e1c:	00000000 	nop
80012e20:	8c420000 	lw	v0,0(v0)
80012e24:	00000000 	nop
80012e28:	00021302 	srl	v0,v0,0xc
80012e2c:	afc2001c 	sw	v0,28(s8)
80012e30:	3c028001 	lui	v0,0x8001
80012e34:	8c425c30 	lw	v0,23600(v0)
80012e38:	8fc3001c 	lw	v1,28(s8)
80012e3c:	00000000 	nop
80012e40:	0062102b 	sltu	v0,v1,v0
80012e44:	14400010 	bnez	v0,80012e88 <pgdir_walk+0x148>
80012e48:	00000000 	nop
/home/git/21373271/21373271/kern/pmap.c:220 (discriminator 1)
80012e4c:	8fc20018 	lw	v0,24(s8)
80012e50:	00000000 	nop
80012e54:	8c430000 	lw	v1,0(v0)
80012e58:	2402f000 	li	v0,-4096
80012e5c:	00621024 	and	v0,v1,v0
80012e60:	afa20010 	sw	v0,16(sp)
80012e64:	3c028001 	lui	v0,0x8001
80012e68:	24475468 	addiu	a3,v0,21608
80012e6c:	3c028001 	lui	v0,0x8001
80012e70:	24465a80 	addiu	a2,v0,23168
80012e74:	240500dc 	li	a1,220
80012e78:	3c028001 	lui	v0,0x8001
80012e7c:	244454dc 	addiu	a0,v0,21724
80012e80:	0c004870 	jal	800121c0 <_panic>
80012e84:	00000000 	nop
/home/git/21373271/21373271/kern/pmap.c:220 (discriminator 3)
80012e88:	8fc20018 	lw	v0,24(s8)
80012e8c:	00000000 	nop
80012e90:	8c430000 	lw	v1,0(v0)
80012e94:	2402f000 	li	v0,-4096
80012e98:	00621824 	and	v1,v1,v0
80012e9c:	3c028000 	lui	v0,0x8000
80012ea0:	00621021 	addu	v0,v1,v0
80012ea4:	00501021 	addu	v0,v0,s0
80012ea8:	00401825 	move	v1,v0
80012eac:	8fc20044 	lw	v0,68(s8)
80012eb0:	00000000 	nop
80012eb4:	ac430000 	sw	v1,0(v0)
/home/git/21373271/21373271/kern/pmap.c:221 (discriminator 3)
80012eb8:	00001025 	move	v0,zero
/home/git/21373271/21373271/kern/pmap.c:222 (discriminator 1)
80012ebc:	03c0e825 	move	sp,s8
80012ec0:	8fbf0034 	lw	ra,52(sp)
80012ec4:	8fbe0030 	lw	s8,48(sp)
80012ec8:	8fb0002c 	lw	s0,44(sp)
80012ecc:	27bd0038 	addiu	sp,sp,56
80012ed0:	03e00008 	jr	ra
80012ed4:	00000000 	nop

80012ed8 <page_insert>:
page_insert():
/home/git/21373271/21373271/kern/pmap.c:236
80012ed8:	27bdffe0 	addiu	sp,sp,-32
80012edc:	afbf001c 	sw	ra,28(sp)
80012ee0:	afbe0018 	sw	s8,24(sp)
80012ee4:	03a0f025 	move	s8,sp
80012ee8:	afc40020 	sw	a0,32(s8)
80012eec:	afc50024 	sw	a1,36(s8)
80012ef0:	afc60028 	sw	a2,40(s8)
80012ef4:	afc7002c 	sw	a3,44(s8)
/home/git/21373271/21373271/kern/pmap.c:240
80012ef8:	27c20010 	addiu	v0,s8,16
80012efc:	00403825 	move	a3,v0
80012f00:	00003025 	move	a2,zero
80012f04:	8fc5002c 	lw	a1,44(s8)
80012f08:	8fc40020 	lw	a0,32(s8)
80012f0c:	0c004b50 	jal	80012d40 <pgdir_walk>
80012f10:	00000000 	nop
/home/git/21373271/21373271/kern/pmap.c:242
80012f14:	8fc20010 	lw	v0,16(s8)
80012f18:	00000000 	nop
80012f1c:	1040002c 	beqz	v0,80012fd0 <page_insert+0xf8>
80012f20:	00000000 	nop
/home/git/21373271/21373271/kern/pmap.c:242 (discriminator 1)
80012f24:	8fc20010 	lw	v0,16(s8)
80012f28:	00000000 	nop
80012f2c:	8c420000 	lw	v0,0(v0)
80012f30:	00000000 	nop
80012f34:	30420200 	andi	v0,v0,0x200
80012f38:	10400025 	beqz	v0,80012fd0 <page_insert+0xf8>
80012f3c:	00000000 	nop
/home/git/21373271/21373271/kern/pmap.c:243
80012f40:	8fc20010 	lw	v0,16(s8)
80012f44:	00000000 	nop
80012f48:	8c420000 	lw	v0,0(v0)
80012f4c:	00000000 	nop
80012f50:	00402025 	move	a0,v0
80012f54:	0c0048dc 	jal	80012370 <pa2page>
80012f58:	00000000 	nop
80012f5c:	00401825 	move	v1,v0
80012f60:	8fc20028 	lw	v0,40(s8)
80012f64:	00000000 	nop
80012f68:	10430008 	beq	v0,v1,80012f8c <page_insert+0xb4>
80012f6c:	00000000 	nop
/home/git/21373271/21373271/kern/pmap.c:244
80012f70:	8fc6002c 	lw	a2,44(s8)
80012f74:	8fc50024 	lw	a1,36(s8)
80012f78:	8fc40020 	lw	a0,32(s8)
80012f7c:	0c004c81 	jal	80013204 <page_remove>
80012f80:	00000000 	nop
80012f84:	10000012 	b	80012fd0 <page_insert+0xf8>
80012f88:	00000000 	nop
/home/git/21373271/21373271/kern/pmap.c:246
80012f8c:	8fc5002c 	lw	a1,44(s8)
80012f90:	8fc40024 	lw	a0,36(s8)
80012f94:	0c004ca6 	jal	80013298 <tlb_invalidate>
80012f98:	00000000 	nop
/home/git/21373271/21373271/kern/pmap.c:247
80012f9c:	8fc40028 	lw	a0,40(s8)
80012fa0:	0c0048cd 	jal	80012334 <page2pa>
80012fa4:	00000000 	nop
80012fa8:	00401825 	move	v1,v0
80012fac:	8fc20030 	lw	v0,48(s8)
80012fb0:	00000000 	nop
80012fb4:	00621825 	or	v1,v1,v0
80012fb8:	8fc20010 	lw	v0,16(s8)
80012fbc:	34630200 	ori	v1,v1,0x200
80012fc0:	ac430000 	sw	v1,0(v0)
/home/git/21373271/21373271/kern/pmap.c:248
80012fc4:	00001025 	move	v0,zero
80012fc8:	10000025 	b	80013060 <page_insert+0x188>
80012fcc:	00000000 	nop
/home/git/21373271/21373271/kern/pmap.c:254
80012fd0:	8fc5002c 	lw	a1,44(s8)
80012fd4:	8fc40024 	lw	a0,36(s8)
80012fd8:	0c004ca6 	jal	80013298 <tlb_invalidate>
80012fdc:	00000000 	nop
/home/git/21373271/21373271/kern/pmap.c:259
80012fe0:	27c20010 	addiu	v0,s8,16
80012fe4:	00403825 	move	a3,v0
80012fe8:	24060001 	li	a2,1
80012fec:	8fc5002c 	lw	a1,44(s8)
80012ff0:	8fc40020 	lw	a0,32(s8)
80012ff4:	0c004b50 	jal	80012d40 <pgdir_walk>
80012ff8:	00000000 	nop
80012ffc:	04410004 	bgez	v0,80013010 <page_insert+0x138>
80013000:	00000000 	nop
/home/git/21373271/21373271/kern/pmap.c:261
80013004:	2402fffc 	li	v0,-4
80013008:	10000015 	b	80013060 <page_insert+0x188>
8001300c:	00000000 	nop
/home/git/21373271/21373271/kern/pmap.c:265
80013010:	8fc40028 	lw	a0,40(s8)
80013014:	0c0048cd 	jal	80012334 <page2pa>
80013018:	00000000 	nop
8001301c:	00401825 	move	v1,v0
80013020:	8fc20030 	lw	v0,48(s8)
80013024:	00000000 	nop
80013028:	00621825 	or	v1,v1,v0
8001302c:	8fc20010 	lw	v0,16(s8)
80013030:	34630200 	ori	v1,v1,0x200
80013034:	ac430000 	sw	v1,0(v0)
/home/git/21373271/21373271/kern/pmap.c:266
80013038:	8fc20028 	lw	v0,40(s8)
8001303c:	00000000 	nop
80013040:	94420008 	lhu	v0,8(v0)
80013044:	00000000 	nop
80013048:	24420001 	addiu	v0,v0,1
8001304c:	3043ffff 	andi	v1,v0,0xffff
80013050:	8fc20028 	lw	v0,40(s8)
80013054:	00000000 	nop
80013058:	a4430008 	sh	v1,8(v0)
/home/git/21373271/21373271/kern/pmap.c:269
8001305c:	00001025 	move	v0,zero
/home/git/21373271/21373271/kern/pmap.c:270 (discriminator 1)
80013060:	03c0e825 	move	sp,s8
80013064:	8fbf001c 	lw	ra,28(sp)
80013068:	8fbe0018 	lw	s8,24(sp)
8001306c:	27bd0020 	addiu	sp,sp,32
80013070:	03e00008 	jr	ra
80013074:	00000000 	nop

80013078 <page_lookup>:
page_lookup():
/home/git/21373271/21373271/kern/pmap.c:277
80013078:	27bdffe0 	addiu	sp,sp,-32
8001307c:	afbf001c 	sw	ra,28(sp)
80013080:	afbe0018 	sw	s8,24(sp)
80013084:	03a0f025 	move	s8,sp
80013088:	afc40020 	sw	a0,32(s8)
8001308c:	afc50024 	sw	a1,36(s8)
80013090:	afc60028 	sw	a2,40(s8)
/home/git/21373271/21373271/kern/pmap.c:282
80013094:	27c20014 	addiu	v0,s8,20
80013098:	00403825 	move	a3,v0
8001309c:	00003025 	move	a2,zero
800130a0:	8fc50024 	lw	a1,36(s8)
800130a4:	8fc40020 	lw	a0,32(s8)
800130a8:	0c004b50 	jal	80012d40 <pgdir_walk>
800130ac:	00000000 	nop
/home/git/21373271/21373271/kern/pmap.c:285
800130b0:	8fc20014 	lw	v0,20(s8)
800130b4:	00000000 	nop
800130b8:	10400008 	beqz	v0,800130dc <page_lookup+0x64>
800130bc:	00000000 	nop
/home/git/21373271/21373271/kern/pmap.c:285 (discriminator 1)
800130c0:	8fc20014 	lw	v0,20(s8)
800130c4:	00000000 	nop
800130c8:	8c420000 	lw	v0,0(v0)
800130cc:	00000000 	nop
800130d0:	30420200 	andi	v0,v0,0x200
800130d4:	14400004 	bnez	v0,800130e8 <page_lookup+0x70>
800130d8:	00000000 	nop
/home/git/21373271/21373271/kern/pmap.c:286
800130dc:	00001025 	move	v0,zero
800130e0:	10000012 	b	8001312c <page_lookup+0xb4>
800130e4:	00000000 	nop
/home/git/21373271/21373271/kern/pmap.c:291
800130e8:	8fc20014 	lw	v0,20(s8)
800130ec:	00000000 	nop
800130f0:	8c420000 	lw	v0,0(v0)
800130f4:	00000000 	nop
800130f8:	00402025 	move	a0,v0
800130fc:	0c0048dc 	jal	80012370 <pa2page>
80013100:	00000000 	nop
80013104:	afc20010 	sw	v0,16(s8)
/home/git/21373271/21373271/kern/pmap.c:292
80013108:	8fc20028 	lw	v0,40(s8)
8001310c:	00000000 	nop
80013110:	10400005 	beqz	v0,80013128 <page_lookup+0xb0>
80013114:	00000000 	nop
/home/git/21373271/21373271/kern/pmap.c:293
80013118:	8fc30014 	lw	v1,20(s8)
8001311c:	8fc20028 	lw	v0,40(s8)
80013120:	00000000 	nop
80013124:	ac430000 	sw	v1,0(v0)
/home/git/21373271/21373271/kern/pmap.c:296
80013128:	8fc20010 	lw	v0,16(s8)
/home/git/21373271/21373271/kern/pmap.c:297 (discriminator 1)
8001312c:	03c0e825 	move	sp,s8
80013130:	8fbf001c 	lw	ra,28(sp)
80013134:	8fbe0018 	lw	s8,24(sp)
80013138:	27bd0020 	addiu	sp,sp,32
8001313c:	03e00008 	jr	ra
80013140:	00000000 	nop

80013144 <page_decref>:
page_decref():
/home/git/21373271/21373271/kern/pmap.c:303
80013144:	27bdffe0 	addiu	sp,sp,-32
80013148:	afbf001c 	sw	ra,28(sp)
8001314c:	afbe0018 	sw	s8,24(sp)
80013150:	03a0f025 	move	s8,sp
80013154:	afc40020 	sw	a0,32(s8)
/home/git/21373271/21373271/kern/pmap.c:304
80013158:	8fc20020 	lw	v0,32(s8)
8001315c:	00000000 	nop
80013160:	94420008 	lhu	v0,8(v0)
80013164:	00000000 	nop
80013168:	1440000d 	bnez	v0,800131a0 <page_decref+0x5c>
8001316c:	00000000 	nop
/home/git/21373271/21373271/kern/pmap.c:304 (discriminator 1)
80013170:	3c028001 	lui	v0,0x8001
80013174:	24425574 	addiu	v0,v0,21876
80013178:	afa20010 	sw	v0,16(sp)
8001317c:	3c028001 	lui	v0,0x8001
80013180:	2447554c 	addiu	a3,v0,21836
80013184:	3c028001 	lui	v0,0x8001
80013188:	24465a94 	addiu	a2,v0,23188
8001318c:	24050130 	li	a1,304
80013190:	3c028001 	lui	v0,0x8001
80013194:	244454dc 	addiu	a0,v0,21724
80013198:	0c004870 	jal	800121c0 <_panic>
8001319c:	00000000 	nop
/home/git/21373271/21373271/kern/pmap.c:307
800131a0:	8fc20020 	lw	v0,32(s8)
800131a4:	00000000 	nop
800131a8:	94420008 	lhu	v0,8(v0)
800131ac:	00000000 	nop
800131b0:	2442ffff 	addiu	v0,v0,-1
800131b4:	3043ffff 	andi	v1,v0,0xffff
800131b8:	8fc20020 	lw	v0,32(s8)
800131bc:	00000000 	nop
800131c0:	a4430008 	sh	v1,8(v0)
800131c4:	8fc20020 	lw	v0,32(s8)
800131c8:	00000000 	nop
800131cc:	94420008 	lhu	v0,8(v0)
800131d0:	00000000 	nop
800131d4:	14400004 	bnez	v0,800131e8 <page_decref+0xa4>
800131d8:	00000000 	nop
/home/git/21373271/21373271/kern/pmap.c:308
800131dc:	8fc40020 	lw	a0,32(s8)
800131e0:	0c004b1a 	jal	80012c68 <page_free>
800131e4:	00000000 	nop
/home/git/21373271/21373271/kern/pmap.c:310
800131e8:	00000000 	nop
800131ec:	03c0e825 	move	sp,s8
800131f0:	8fbf001c 	lw	ra,28(sp)
800131f4:	8fbe0018 	lw	s8,24(sp)
800131f8:	27bd0020 	addiu	sp,sp,32
800131fc:	03e00008 	jr	ra
80013200:	00000000 	nop

80013204 <page_remove>:
page_remove():
/home/git/21373271/21373271/kern/pmap.c:314
80013204:	27bdffe0 	addiu	sp,sp,-32
80013208:	afbf001c 	sw	ra,28(sp)
8001320c:	afbe0018 	sw	s8,24(sp)
80013210:	03a0f025 	move	s8,sp
80013214:	afc40020 	sw	a0,32(s8)
80013218:	afc50024 	sw	a1,36(s8)
8001321c:	afc60028 	sw	a2,40(s8)
/home/git/21373271/21373271/kern/pmap.c:318
80013220:	27c20014 	addiu	v0,s8,20
80013224:	00403025 	move	a2,v0
80013228:	8fc50028 	lw	a1,40(s8)
8001322c:	8fc40020 	lw	a0,32(s8)
80013230:	0c004c1e 	jal	80013078 <page_lookup>
80013234:	00000000 	nop
80013238:	afc20010 	sw	v0,16(s8)
/home/git/21373271/21373271/kern/pmap.c:319
8001323c:	8fc20010 	lw	v0,16(s8)
80013240:	00000000 	nop
80013244:	1040000d 	beqz	v0,8001327c <page_remove+0x78>
80013248:	00000000 	nop
/home/git/21373271/21373271/kern/pmap.c:324
8001324c:	8fc40010 	lw	a0,16(s8)
80013250:	0c004c51 	jal	80013144 <page_decref>
80013254:	00000000 	nop
/home/git/21373271/21373271/kern/pmap.c:327
80013258:	8fc20014 	lw	v0,20(s8)
8001325c:	00000000 	nop
80013260:	ac400000 	sw	zero,0(v0)
/home/git/21373271/21373271/kern/pmap.c:328
80013264:	8fc50028 	lw	a1,40(s8)
80013268:	8fc40024 	lw	a0,36(s8)
8001326c:	0c004ca6 	jal	80013298 <tlb_invalidate>
80013270:	00000000 	nop
/home/git/21373271/21373271/kern/pmap.c:329
80013274:	10000002 	b	80013280 <page_remove+0x7c>
80013278:	00000000 	nop
/home/git/21373271/21373271/kern/pmap.c:320
8001327c:	00000000 	nop
/home/git/21373271/21373271/kern/pmap.c:330
80013280:	03c0e825 	move	sp,s8
80013284:	8fbf001c 	lw	ra,28(sp)
80013288:	8fbe0018 	lw	s8,24(sp)
8001328c:	27bd0020 	addiu	sp,sp,32
80013290:	03e00008 	jr	ra
80013294:	00000000 	nop

80013298 <tlb_invalidate>:
tlb_invalidate():
/home/git/21373271/21373271/kern/pmap.c:339
80013298:	27bdffe8 	addiu	sp,sp,-24
8001329c:	afbf0014 	sw	ra,20(sp)
800132a0:	afbe0010 	sw	s8,16(sp)
800132a4:	03a0f025 	move	s8,sp
800132a8:	afc40018 	sw	a0,24(s8)
800132ac:	afc5001c 	sw	a1,28(s8)
/home/git/21373271/21373271/kern/pmap.c:340
800132b0:	8fc3001c 	lw	v1,28(s8)
800132b4:	2402f000 	li	v0,-4096
800132b8:	00621824 	and	v1,v1,v0
800132bc:	8fc20018 	lw	v0,24(s8)
800132c0:	00000000 	nop
800132c4:	00021180 	sll	v0,v0,0x6
800132c8:	00621025 	or	v0,v1,v0
800132cc:	00402025 	move	a0,v0
800132d0:	0c005300 	jal	80014c00 <tlb_out>
800132d4:	00000000 	nop
/home/git/21373271/21373271/kern/pmap.c:341
800132d8:	00000000 	nop
800132dc:	03c0e825 	move	sp,s8
800132e0:	8fbf0014 	lw	ra,20(sp)
800132e4:	8fbe0010 	lw	s8,16(sp)
800132e8:	27bd0018 	addiu	sp,sp,24
800132ec:	03e00008 	jr	ra
800132f0:	00000000 	nop

800132f4 <physical_memory_manage_check>:
physical_memory_manage_check():
/home/git/21373271/21373271/kern/pmap.c:343
800132f4:	27bdff58 	addiu	sp,sp,-168
800132f8:	afbf00a4 	sw	ra,164(sp)
800132fc:	afbe00a0 	sw	s8,160(sp)
80013300:	03a0f025 	move	s8,sp
/home/git/21373271/21373271/kern/pmap.c:349
80013304:	afc0003c 	sw	zero,60(s8)
80013308:	8fc2003c 	lw	v0,60(s8)
8001330c:	00000000 	nop
80013310:	afc20038 	sw	v0,56(s8)
80013314:	8fc20038 	lw	v0,56(s8)
80013318:	00000000 	nop
8001331c:	afc20034 	sw	v0,52(s8)
/home/git/21373271/21373271/kern/pmap.c:350
80013320:	27c20034 	addiu	v0,s8,52
80013324:	00402025 	move	a0,v0
80013328:	0c004ae0 	jal	80012b80 <page_alloc>
8001332c:	00000000 	nop
80013330:	1040000d 	beqz	v0,80013368 <physical_memory_manage_check+0x74>
80013334:	00000000 	nop
/home/git/21373271/21373271/kern/pmap.c:350 (discriminator 1)
80013338:	3c028001 	lui	v0,0x8001
8001333c:	24425584 	addiu	v0,v0,21892
80013340:	afa20010 	sw	v0,16(sp)
80013344:	3c028001 	lui	v0,0x8001
80013348:	2447554c 	addiu	a3,v0,21836
8001334c:	3c028001 	lui	v0,0x8001
80013350:	24465aa0 	addiu	a2,v0,23200
80013354:	2405015e 	li	a1,350
80013358:	3c028001 	lui	v0,0x8001
8001335c:	244454dc 	addiu	a0,v0,21724
80013360:	0c004870 	jal	800121c0 <_panic>
80013364:	00000000 	nop
/home/git/21373271/21373271/kern/pmap.c:351
80013368:	27c20038 	addiu	v0,s8,56
8001336c:	00402025 	move	a0,v0
80013370:	0c004ae0 	jal	80012b80 <page_alloc>
80013374:	00000000 	nop
80013378:	1040000d 	beqz	v0,800133b0 <physical_memory_manage_check+0xbc>
8001337c:	00000000 	nop
/home/git/21373271/21373271/kern/pmap.c:351 (discriminator 1)
80013380:	3c028001 	lui	v0,0x8001
80013384:	2442559c 	addiu	v0,v0,21916
80013388:	afa20010 	sw	v0,16(sp)
8001338c:	3c028001 	lui	v0,0x8001
80013390:	2447554c 	addiu	a3,v0,21836
80013394:	3c028001 	lui	v0,0x8001
80013398:	24465aa0 	addiu	a2,v0,23200
8001339c:	2405015f 	li	a1,351
800133a0:	3c028001 	lui	v0,0x8001
800133a4:	244454dc 	addiu	a0,v0,21724
800133a8:	0c004870 	jal	800121c0 <_panic>
800133ac:	00000000 	nop
/home/git/21373271/21373271/kern/pmap.c:352
800133b0:	27c2003c 	addiu	v0,s8,60
800133b4:	00402025 	move	a0,v0
800133b8:	0c004ae0 	jal	80012b80 <page_alloc>
800133bc:	00000000 	nop
800133c0:	1040000d 	beqz	v0,800133f8 <physical_memory_manage_check+0x104>
800133c4:	00000000 	nop
/home/git/21373271/21373271/kern/pmap.c:352 (discriminator 1)
800133c8:	3c028001 	lui	v0,0x8001
800133cc:	244255b4 	addiu	v0,v0,21940
800133d0:	afa20010 	sw	v0,16(sp)
800133d4:	3c028001 	lui	v0,0x8001
800133d8:	2447554c 	addiu	a3,v0,21836
800133dc:	3c028001 	lui	v0,0x8001
800133e0:	24465aa0 	addiu	a2,v0,23200
800133e4:	24050160 	li	a1,352
800133e8:	3c028001 	lui	v0,0x8001
800133ec:	244454dc 	addiu	a0,v0,21724
800133f0:	0c004870 	jal	800121c0 <_panic>
800133f4:	00000000 	nop
/home/git/21373271/21373271/kern/pmap.c:354
800133f8:	8fc20034 	lw	v0,52(s8)
800133fc:	00000000 	nop
80013400:	1440000d 	bnez	v0,80013438 <physical_memory_manage_check+0x144>
80013404:	00000000 	nop
/home/git/21373271/21373271/kern/pmap.c:354 (discriminator 1)
80013408:	3c028001 	lui	v0,0x8001
8001340c:	244255cc 	addiu	v0,v0,21964
80013410:	afa20010 	sw	v0,16(sp)
80013414:	3c028001 	lui	v0,0x8001
80013418:	2447554c 	addiu	a3,v0,21836
8001341c:	3c028001 	lui	v0,0x8001
80013420:	24465aa0 	addiu	a2,v0,23200
80013424:	24050162 	li	a1,354
80013428:	3c028001 	lui	v0,0x8001
8001342c:	244454dc 	addiu	a0,v0,21724
80013430:	0c004870 	jal	800121c0 <_panic>
80013434:	00000000 	nop
/home/git/21373271/21373271/kern/pmap.c:355
80013438:	8fc20038 	lw	v0,56(s8)
8001343c:	00000000 	nop
80013440:	10400006 	beqz	v0,8001345c <physical_memory_manage_check+0x168>
80013444:	00000000 	nop
/home/git/21373271/21373271/kern/pmap.c:355 (discriminator 2)
80013448:	8fc30038 	lw	v1,56(s8)
8001344c:	8fc20034 	lw	v0,52(s8)
80013450:	00000000 	nop
80013454:	1462000d 	bne	v1,v0,8001348c <physical_memory_manage_check+0x198>
80013458:	00000000 	nop
/home/git/21373271/21373271/kern/pmap.c:355 (discriminator 3)
8001345c:	3c028001 	lui	v0,0x8001
80013460:	244255d0 	addiu	v0,v0,21968
80013464:	afa20010 	sw	v0,16(sp)
80013468:	3c028001 	lui	v0,0x8001
8001346c:	2447554c 	addiu	a3,v0,21836
80013470:	3c028001 	lui	v0,0x8001
80013474:	24465aa0 	addiu	a2,v0,23200
80013478:	24050163 	li	a1,355
8001347c:	3c028001 	lui	v0,0x8001
80013480:	244454dc 	addiu	a0,v0,21724
80013484:	0c004870 	jal	800121c0 <_panic>
80013488:	00000000 	nop
/home/git/21373271/21373271/kern/pmap.c:356
8001348c:	8fc2003c 	lw	v0,60(s8)
80013490:	00000000 	nop
80013494:	1040000b 	beqz	v0,800134c4 <physical_memory_manage_check+0x1d0>
80013498:	00000000 	nop
/home/git/21373271/21373271/kern/pmap.c:356 (discriminator 2)
8001349c:	8fc3003c 	lw	v1,60(s8)
800134a0:	8fc20038 	lw	v0,56(s8)
800134a4:	00000000 	nop
800134a8:	10620006 	beq	v1,v0,800134c4 <physical_memory_manage_check+0x1d0>
800134ac:	00000000 	nop
/home/git/21373271/21373271/kern/pmap.c:356 (discriminator 4)
800134b0:	8fc3003c 	lw	v1,60(s8)
800134b4:	8fc20034 	lw	v0,52(s8)
800134b8:	00000000 	nop
800134bc:	1462000d 	bne	v1,v0,800134f4 <physical_memory_manage_check+0x200>
800134c0:	00000000 	nop
/home/git/21373271/21373271/kern/pmap.c:356 (discriminator 5)
800134c4:	3c028001 	lui	v0,0x8001
800134c8:	244255e4 	addiu	v0,v0,21988
800134cc:	afa20010 	sw	v0,16(sp)
800134d0:	3c028001 	lui	v0,0x8001
800134d4:	2447554c 	addiu	a3,v0,21836
800134d8:	3c028001 	lui	v0,0x8001
800134dc:	24465aa0 	addiu	a2,v0,23200
800134e0:	24050164 	li	a1,356
800134e4:	3c028001 	lui	v0,0x8001
800134e8:	244454dc 	addiu	a0,v0,21724
800134ec:	0c004870 	jal	800121c0 <_panic>
800134f0:	00000000 	nop
/home/git/21373271/21373271/kern/pmap.c:359
800134f4:	3c028001 	lui	v0,0x8001
800134f8:	8c425c3c 	lw	v0,23612(v0)
800134fc:	00000000 	nop
80013500:	afc20040 	sw	v0,64(s8)
/home/git/21373271/21373271/kern/pmap.c:361
80013504:	3c028001 	lui	v0,0x8001
80013508:	ac405c3c 	sw	zero,23612(v0)
/home/git/21373271/21373271/kern/pmap.c:363
8001350c:	27c20030 	addiu	v0,s8,48
80013510:	00402025 	move	a0,v0
80013514:	0c004ae0 	jal	80012b80 <page_alloc>
80013518:	00000000 	nop
8001351c:	00401825 	move	v1,v0
80013520:	2402fffc 	li	v0,-4
80013524:	1062000d 	beq	v1,v0,8001355c <physical_memory_manage_check+0x268>
80013528:	00000000 	nop
/home/git/21373271/21373271/kern/pmap.c:363 (discriminator 1)
8001352c:	3c028001 	lui	v0,0x8001
80013530:	24425604 	addiu	v0,v0,22020
80013534:	afa20010 	sw	v0,16(sp)
80013538:	3c028001 	lui	v0,0x8001
8001353c:	2447554c 	addiu	a3,v0,21836
80013540:	3c028001 	lui	v0,0x8001
80013544:	24465aa0 	addiu	a2,v0,23200
80013548:	2405016b 	li	a1,363
8001354c:	3c028001 	lui	v0,0x8001
80013550:	244454dc 	addiu	a0,v0,21724
80013554:	0c004870 	jal	800121c0 <_panic>
80013558:	00000000 	nop
/home/git/21373271/21373271/kern/pmap.c:365
8001355c:	8fc20034 	lw	v0,52(s8)
80013560:	00000000 	nop
80013564:	00402025 	move	a0,v0
80013568:	0c004906 	jal	80012418 <page2kva>
8001356c:	00000000 	nop
80013570:	afc20024 	sw	v0,36(s8)
/home/git/21373271/21373271/kern/pmap.c:367
80013574:	8fc20024 	lw	v0,36(s8)
80013578:	240303e8 	li	v1,1000
8001357c:	ac430000 	sw	v1,0(v0)
/home/git/21373271/21373271/kern/pmap.c:369
80013580:	8fc20034 	lw	v0,52(s8)
80013584:	00000000 	nop
80013588:	00402025 	move	a0,v0
8001358c:	0c004b1a 	jal	80012c68 <page_free>
80013590:	00000000 	nop
/home/git/21373271/21373271/kern/pmap.c:370
80013594:	8fc20024 	lw	v0,36(s8)
80013598:	00000000 	nop
8001359c:	8c420000 	lw	v0,0(v0)
800135a0:	00000000 	nop
800135a4:	00402825 	move	a1,v0
800135a8:	3c028001 	lui	v0,0x8001
800135ac:	24445624 	addiu	a0,v0,22052
800135b0:	0c005289 	jal	80014a24 <printk>
800135b4:	00000000 	nop
/home/git/21373271/21373271/kern/pmap.c:373
800135b8:	27c20034 	addiu	v0,s8,52
800135bc:	00402025 	move	a0,v0
800135c0:	0c004ae0 	jal	80012b80 <page_alloc>
800135c4:	00000000 	nop
800135c8:	1040000d 	beqz	v0,80013600 <physical_memory_manage_check+0x30c>
800135cc:	00000000 	nop
/home/git/21373271/21373271/kern/pmap.c:373 (discriminator 1)
800135d0:	3c028001 	lui	v0,0x8001
800135d4:	24425584 	addiu	v0,v0,21892
800135d8:	afa20010 	sw	v0,16(sp)
800135dc:	3c028001 	lui	v0,0x8001
800135e0:	2447554c 	addiu	a3,v0,21836
800135e4:	3c028001 	lui	v0,0x8001
800135e8:	24465aa0 	addiu	a2,v0,23200
800135ec:	24050175 	li	a1,373
800135f0:	3c028001 	lui	v0,0x8001
800135f4:	244454dc 	addiu	a0,v0,21724
800135f8:	0c004870 	jal	800121c0 <_panic>
800135fc:	00000000 	nop
/home/git/21373271/21373271/kern/pmap.c:374
80013600:	8fc20034 	lw	v0,52(s8)
80013604:	00000000 	nop
80013608:	1440000d 	bnez	v0,80013640 <physical_memory_manage_check+0x34c>
8001360c:	00000000 	nop
/home/git/21373271/21373271/kern/pmap.c:374 (discriminator 1)
80013610:	3c028001 	lui	v0,0x8001
80013614:	244255cc 	addiu	v0,v0,21964
80013618:	afa20010 	sw	v0,16(sp)
8001361c:	3c028001 	lui	v0,0x8001
80013620:	2447554c 	addiu	a3,v0,21836
80013624:	3c028001 	lui	v0,0x8001
80013628:	24465aa0 	addiu	a2,v0,23200
8001362c:	24050176 	li	a1,374
80013630:	3c028001 	lui	v0,0x8001
80013634:	244454dc 	addiu	a0,v0,21724
80013638:	0c004870 	jal	800121c0 <_panic>
8001363c:	00000000 	nop
/home/git/21373271/21373271/kern/pmap.c:377
80013640:	8fc20034 	lw	v0,52(s8)
80013644:	00000000 	nop
80013648:	00402025 	move	a0,v0
8001364c:	0c004906 	jal	80012418 <page2kva>
80013650:	00000000 	nop
80013654:	00401825 	move	v1,v0
80013658:	8fc20024 	lw	v0,36(s8)
8001365c:	00000000 	nop
80013660:	1043000d 	beq	v0,v1,80013698 <physical_memory_manage_check+0x3a4>
80013664:	00000000 	nop
/home/git/21373271/21373271/kern/pmap.c:377 (discriminator 1)
80013668:	3c028001 	lui	v0,0x8001
8001366c:	24425648 	addiu	v0,v0,22088
80013670:	afa20010 	sw	v0,16(sp)
80013674:	3c028001 	lui	v0,0x8001
80013678:	2447554c 	addiu	a3,v0,21836
8001367c:	3c028001 	lui	v0,0x8001
80013680:	24465aa0 	addiu	a2,v0,23200
80013684:	24050179 	li	a1,377
80013688:	3c028001 	lui	v0,0x8001
8001368c:	244454dc 	addiu	a0,v0,21724
80013690:	0c004870 	jal	800121c0 <_panic>
80013694:	00000000 	nop
/home/git/21373271/21373271/kern/pmap.c:379
80013698:	8fc20024 	lw	v0,36(s8)
8001369c:	00000000 	nop
800136a0:	8c420000 	lw	v0,0(v0)
800136a4:	00000000 	nop
800136a8:	1040000d 	beqz	v0,800136e0 <physical_memory_manage_check+0x3ec>
800136ac:	00000000 	nop
/home/git/21373271/21373271/kern/pmap.c:379 (discriminator 1)
800136b0:	3c028001 	lui	v0,0x8001
800136b4:	24425668 	addiu	v0,v0,22120
800136b8:	afa20010 	sw	v0,16(sp)
800136bc:	3c028001 	lui	v0,0x8001
800136c0:	2447554c 	addiu	a3,v0,21836
800136c4:	3c028001 	lui	v0,0x8001
800136c8:	24465aa0 	addiu	a2,v0,23200
800136cc:	2405017b 	li	a1,379
800136d0:	3c028001 	lui	v0,0x8001
800136d4:	244454dc 	addiu	a0,v0,21724
800136d8:	0c004870 	jal	800121c0 <_panic>
800136dc:	00000000 	nop
/home/git/21373271/21373271/kern/pmap.c:381
800136e0:	3c028001 	lui	v0,0x8001
800136e4:	8fc30040 	lw	v1,64(s8)
800136e8:	00000000 	nop
800136ec:	ac435c3c 	sw	v1,23612(v0)
/home/git/21373271/21373271/kern/pmap.c:382
800136f0:	8fc20034 	lw	v0,52(s8)
800136f4:	00000000 	nop
800136f8:	00402025 	move	a0,v0
800136fc:	0c004b1a 	jal	80012c68 <page_free>
80013700:	00000000 	nop
/home/git/21373271/21373271/kern/pmap.c:383
80013704:	8fc20038 	lw	v0,56(s8)
80013708:	00000000 	nop
8001370c:	00402025 	move	a0,v0
80013710:	0c004b1a 	jal	80012c68 <page_free>
80013714:	00000000 	nop
/home/git/21373271/21373271/kern/pmap.c:384
80013718:	8fc2003c 	lw	v0,60(s8)
8001371c:	00000000 	nop
80013720:	00402025 	move	a0,v0
80013724:	0c004b1a 	jal	80012c68 <page_free>
80013728:	00000000 	nop
/home/git/21373271/21373271/kern/pmap.c:387
8001372c:	24060001 	li	a2,1
80013730:	24051000 	li	a1,4096
80013734:	24040078 	li	a0,120
80013738:	0c0049b0 	jal	800126c0 <alloc>
8001373c:	00000000 	nop
80013740:	afc20028 	sw	v0,40(s8)
/home/git/21373271/21373271/kern/pmap.c:388
80013744:	afc00044 	sw	zero,68(s8)
/home/git/21373271/21373271/kern/pmap.c:390
80013748:	afc0001c 	sw	zero,28(s8)
/home/git/21373271/21373271/kern/pmap.c:392
8001374c:	24020009 	li	v0,9
80013750:	afc20018 	sw	v0,24(s8)
80013754:	10000048 	b	80013878 <physical_memory_manage_check+0x584>
80013758:	00000000 	nop
/home/git/21373271/21373271/kern/pmap.c:393
8001375c:	8fc30018 	lw	v1,24(s8)
80013760:	00000000 	nop
80013764:	00601025 	move	v0,v1
80013768:	00021040 	sll	v0,v0,0x1
8001376c:	00431021 	addu	v0,v0,v1
80013770:	00021080 	sll	v0,v0,0x2
80013774:	00401825 	move	v1,v0
80013778:	8fc20028 	lw	v0,40(s8)
8001377c:	00000000 	nop
80013780:	00431021 	addu	v0,v0,v1
80013784:	8fc30018 	lw	v1,24(s8)
80013788:	00000000 	nop
8001378c:	3063ffff 	andi	v1,v1,0xffff
80013790:	a4430008 	sh	v1,8(v0)
/home/git/21373271/21373271/kern/pmap.c:396
80013794:	8fc30018 	lw	v1,24(s8)
80013798:	00000000 	nop
8001379c:	00601025 	move	v0,v1
800137a0:	00021040 	sll	v0,v0,0x1
800137a4:	00431021 	addu	v0,v0,v1
800137a8:	00021080 	sll	v0,v0,0x2
800137ac:	00401825 	move	v1,v0
800137b0:	8fc20028 	lw	v0,40(s8)
800137b4:	00000000 	nop
800137b8:	00431021 	addu	v0,v0,v1
800137bc:	8fc30044 	lw	v1,68(s8)
800137c0:	00000000 	nop
800137c4:	ac430000 	sw	v1,0(v0)
800137c8:	8c420000 	lw	v0,0(v0)
800137cc:	00000000 	nop
800137d0:	1040000e 	beqz	v0,8001380c <physical_memory_manage_check+0x518>
800137d4:	00000000 	nop
/home/git/21373271/21373271/kern/pmap.c:396 (discriminator 1)
800137d8:	8fc30018 	lw	v1,24(s8)
800137dc:	00000000 	nop
800137e0:	00601025 	move	v0,v1
800137e4:	00021040 	sll	v0,v0,0x1
800137e8:	00431021 	addu	v0,v0,v1
800137ec:	00021080 	sll	v0,v0,0x2
800137f0:	00401825 	move	v1,v0
800137f4:	8fc20028 	lw	v0,40(s8)
800137f8:	00000000 	nop
800137fc:	00431821 	addu	v1,v0,v1
80013800:	8fc20044 	lw	v0,68(s8)
80013804:	00000000 	nop
80013808:	ac430004 	sw	v1,4(v0)
/home/git/21373271/21373271/kern/pmap.c:396 (discriminator 3)
8001380c:	8fc30018 	lw	v1,24(s8)
80013810:	00000000 	nop
80013814:	00601025 	move	v0,v1
80013818:	00021040 	sll	v0,v0,0x1
8001381c:	00431021 	addu	v0,v0,v1
80013820:	00021080 	sll	v0,v0,0x2
80013824:	00401825 	move	v1,v0
80013828:	8fc20028 	lw	v0,40(s8)
8001382c:	00000000 	nop
80013830:	00431021 	addu	v0,v0,v1
80013834:	afc20044 	sw	v0,68(s8)
80013838:	8fc30018 	lw	v1,24(s8)
8001383c:	00000000 	nop
80013840:	00601025 	move	v0,v1
80013844:	00021040 	sll	v0,v0,0x1
80013848:	00431021 	addu	v0,v0,v1
8001384c:	00021080 	sll	v0,v0,0x2
80013850:	00401825 	move	v1,v0
80013854:	8fc20028 	lw	v0,40(s8)
80013858:	00000000 	nop
8001385c:	00431021 	addu	v0,v0,v1
80013860:	27c30044 	addiu	v1,s8,68
80013864:	ac430004 	sw	v1,4(v0)
/home/git/21373271/21373271/kern/pmap.c:392 (discriminator 3)
80013868:	8fc20018 	lw	v0,24(s8)
8001386c:	00000000 	nop
80013870:	2442ffff 	addiu	v0,v0,-1
80013874:	afc20018 	sw	v0,24(s8)
/home/git/21373271/21373271/kern/pmap.c:392 (discriminator 2)
80013878:	8fc20018 	lw	v0,24(s8)
8001387c:	00000000 	nop
80013880:	0441ffb6 	bgez	v0,8001375c <physical_memory_manage_check+0x468>
80013884:	00000000 	nop
/home/git/21373271/21373271/kern/pmap.c:399
80013888:	8fc20044 	lw	v0,68(s8)
8001388c:	00000000 	nop
80013890:	afc20020 	sw	v0,32(s8)
/home/git/21373271/21373271/kern/pmap.c:400
80013894:	3c028001 	lui	v0,0x8001
80013898:	27c40048 	addiu	a0,s8,72
8001389c:	244256e4 	addiu	v0,v0,22244
800138a0:	24030028 	li	v1,40
800138a4:	00603025 	move	a2,v1
800138a8:	00402825 	move	a1,v0
800138ac:	0c0044a8 	jal	800112a0 <memcpy>
800138b0:	00000000 	nop
/home/git/21373271/21373271/kern/pmap.c:401
800138b4:	8fc20020 	lw	v0,32(s8)
800138b8:	00000000 	nop
800138bc:	14400030 	bnez	v0,80013980 <physical_memory_manage_check+0x68c>
800138c0:	00000000 	nop
/home/git/21373271/21373271/kern/pmap.c:401 (discriminator 1)
800138c4:	3c028001 	lui	v0,0x8001
800138c8:	24425674 	addiu	v0,v0,22132
800138cc:	afa20010 	sw	v0,16(sp)
800138d0:	3c028001 	lui	v0,0x8001
800138d4:	2447554c 	addiu	a3,v0,21836
800138d8:	3c028001 	lui	v0,0x8001
800138dc:	24465aa0 	addiu	a2,v0,23200
800138e0:	24050191 	li	a1,401
800138e4:	3c028001 	lui	v0,0x8001
800138e8:	244454dc 	addiu	a0,v0,21724
800138ec:	0c004870 	jal	800121c0 <_panic>
800138f0:	00000000 	nop
/home/git/21373271/21373271/kern/pmap.c:402 (discriminator 1)
800138f4:	10000022 	b	80013980 <physical_memory_manage_check+0x68c>
800138f8:	00000000 	nop
/home/git/21373271/21373271/kern/pmap.c:404
800138fc:	8fc20020 	lw	v0,32(s8)
80013900:	00000000 	nop
80013904:	94420008 	lhu	v0,8(v0)
80013908:	00000000 	nop
8001390c:	00402025 	move	a0,v0
80013910:	8fc2001c 	lw	v0,28(s8)
80013914:	00000000 	nop
80013918:	24430001 	addiu	v1,v0,1
8001391c:	afc3001c 	sw	v1,28(s8)
80013920:	00021080 	sll	v0,v0,0x2
80013924:	27c30018 	addiu	v1,s8,24
80013928:	00621021 	addu	v0,v1,v0
8001392c:	8c420030 	lw	v0,48(v0)
80013930:	00000000 	nop
80013934:	1082000d 	beq	a0,v0,8001396c <physical_memory_manage_check+0x678>
80013938:	00000000 	nop
/home/git/21373271/21373271/kern/pmap.c:404 (discriminator 1)
8001393c:	3c028001 	lui	v0,0x8001
80013940:	24425680 	addiu	v0,v0,22144
80013944:	afa20010 	sw	v0,16(sp)
80013948:	3c028001 	lui	v0,0x8001
8001394c:	2447554c 	addiu	a3,v0,21836
80013950:	3c028001 	lui	v0,0x8001
80013954:	24465aa0 	addiu	a2,v0,23200
80013958:	24050194 	li	a1,404
8001395c:	3c028001 	lui	v0,0x8001
80013960:	244454dc 	addiu	a0,v0,21724
80013964:	0c004870 	jal	800121c0 <_panic>
80013968:	00000000 	nop
/home/git/21373271/21373271/kern/pmap.c:406
8001396c:	8fc20020 	lw	v0,32(s8)
80013970:	00000000 	nop
80013974:	8c420000 	lw	v0,0(v0)
80013978:	00000000 	nop
8001397c:	afc20020 	sw	v0,32(s8)
/home/git/21373271/21373271/kern/pmap.c:402
80013980:	8fc20020 	lw	v0,32(s8)
80013984:	00000000 	nop
80013988:	1440ffdc 	bnez	v0,800138fc <physical_memory_manage_check+0x608>
8001398c:	00000000 	nop
/home/git/21373271/21373271/kern/pmap.c:409
80013990:	3c028001 	lui	v0,0x8001
80013994:	27c40070 	addiu	a0,s8,112
80013998:	2442570c 	addiu	v0,v0,22284
8001399c:	2403002c 	li	v1,44
800139a0:	00603025 	move	a2,v1
800139a4:	00402825 	move	a1,v0
800139a8:	0c0044a8 	jal	800112a0 <memcpy>
800139ac:	00000000 	nop
/home/git/21373271/21373271/kern/pmap.c:410
800139b0:	24060001 	li	a2,1
800139b4:	24051000 	li	a1,4096
800139b8:	2404000c 	li	a0,12
800139bc:	0c0049b0 	jal	800126c0 <alloc>
800139c0:	00000000 	nop
800139c4:	afc2002c 	sw	v0,44(s8)
/home/git/21373271/21373271/kern/pmap.c:411
800139c8:	8fc2002c 	lw	v0,44(s8)
800139cc:	24030014 	li	v1,20
800139d0:	a4430008 	sh	v1,8(v0)
/home/git/21373271/21373271/kern/pmap.c:414
800139d4:	8fc20028 	lw	v0,40(s8)
800139d8:	00000000 	nop
800139dc:	24420030 	addiu	v0,v0,48
800139e0:	8c430000 	lw	v1,0(v0)
800139e4:	8fc2002c 	lw	v0,44(s8)
800139e8:	00000000 	nop
800139ec:	ac430000 	sw	v1,0(v0)
800139f0:	8fc20028 	lw	v0,40(s8)
800139f4:	00000000 	nop
800139f8:	24420030 	addiu	v0,v0,48
800139fc:	8c420000 	lw	v0,0(v0)
80013a00:	00000000 	nop
80013a04:	10400008 	beqz	v0,80013a28 <physical_memory_manage_check+0x734>
80013a08:	00000000 	nop
/home/git/21373271/21373271/kern/pmap.c:414 (discriminator 1)
80013a0c:	8fc20028 	lw	v0,40(s8)
80013a10:	00000000 	nop
80013a14:	24420030 	addiu	v0,v0,48
80013a18:	8c420000 	lw	v0,0(v0)
80013a1c:	8fc3002c 	lw	v1,44(s8)
80013a20:	00000000 	nop
80013a24:	ac430004 	sw	v1,4(v0)
/home/git/21373271/21373271/kern/pmap.c:414 (discriminator 3)
80013a28:	8fc20028 	lw	v0,40(s8)
80013a2c:	00000000 	nop
80013a30:	24420030 	addiu	v0,v0,48
80013a34:	8fc3002c 	lw	v1,44(s8)
80013a38:	00000000 	nop
80013a3c:	ac430000 	sw	v1,0(v0)
80013a40:	8fc20028 	lw	v0,40(s8)
80013a44:	00000000 	nop
80013a48:	24420030 	addiu	v0,v0,48
80013a4c:	00401825 	move	v1,v0
80013a50:	8fc2002c 	lw	v0,44(s8)
80013a54:	00000000 	nop
80013a58:	ac430004 	sw	v1,4(v0)
/home/git/21373271/21373271/kern/pmap.c:416 (discriminator 3)
80013a5c:	8fc20044 	lw	v0,68(s8)
80013a60:	00000000 	nop
80013a64:	afc20020 	sw	v0,32(s8)
/home/git/21373271/21373271/kern/pmap.c:417 (discriminator 3)
80013a68:	afc0001c 	sw	zero,28(s8)
/home/git/21373271/21373271/kern/pmap.c:419 (discriminator 3)
80013a6c:	10000022 	b	80013af8 <physical_memory_manage_check+0x804>
80013a70:	00000000 	nop
/home/git/21373271/21373271/kern/pmap.c:421
80013a74:	8fc20020 	lw	v0,32(s8)
80013a78:	00000000 	nop
80013a7c:	94420008 	lhu	v0,8(v0)
80013a80:	00000000 	nop
80013a84:	00402025 	move	a0,v0
80013a88:	8fc2001c 	lw	v0,28(s8)
80013a8c:	00000000 	nop
80013a90:	24430001 	addiu	v1,v0,1
80013a94:	afc3001c 	sw	v1,28(s8)
80013a98:	00021080 	sll	v0,v0,0x2
80013a9c:	27c30018 	addiu	v1,s8,24
80013aa0:	00621021 	addu	v0,v1,v0
80013aa4:	8c420058 	lw	v0,88(v0)
80013aa8:	00000000 	nop
80013aac:	1082000d 	beq	a0,v0,80013ae4 <physical_memory_manage_check+0x7f0>
80013ab0:	00000000 	nop
/home/git/21373271/21373271/kern/pmap.c:421 (discriminator 1)
80013ab4:	3c028001 	lui	v0,0x8001
80013ab8:	2442569c 	addiu	v0,v0,22172
80013abc:	afa20010 	sw	v0,16(sp)
80013ac0:	3c028001 	lui	v0,0x8001
80013ac4:	2447554c 	addiu	a3,v0,21836
80013ac8:	3c028001 	lui	v0,0x8001
80013acc:	24465aa0 	addiu	a2,v0,23200
80013ad0:	240501a5 	li	a1,421
80013ad4:	3c028001 	lui	v0,0x8001
80013ad8:	244454dc 	addiu	a0,v0,21724
80013adc:	0c004870 	jal	800121c0 <_panic>
80013ae0:	00000000 	nop
/home/git/21373271/21373271/kern/pmap.c:422
80013ae4:	8fc20020 	lw	v0,32(s8)
80013ae8:	00000000 	nop
80013aec:	8c420000 	lw	v0,0(v0)
80013af0:	00000000 	nop
80013af4:	afc20020 	sw	v0,32(s8)
/home/git/21373271/21373271/kern/pmap.c:419
80013af8:	8fc20020 	lw	v0,32(s8)
80013afc:	00000000 	nop
80013b00:	1440ffdc 	bnez	v0,80013a74 <physical_memory_manage_check+0x780>
80013b04:	00000000 	nop
/home/git/21373271/21373271/kern/pmap.c:425
80013b08:	3c028001 	lui	v0,0x8001
80013b0c:	244456b8 	addiu	a0,v0,22200
80013b10:	0c005289 	jal	80014a24 <printk>
80013b14:	00000000 	nop
/home/git/21373271/21373271/kern/pmap.c:426
80013b18:	00000000 	nop
80013b1c:	03c0e825 	move	sp,s8
80013b20:	8fbf00a4 	lw	ra,164(sp)
80013b24:	8fbe00a0 	lw	s8,160(sp)
80013b28:	27bd00a8 	addiu	sp,sp,168
80013b2c:	03e00008 	jr	ra
80013b30:	00000000 	nop

80013b34 <page_check>:
page_check():
/home/git/21373271/21373271/kern/pmap.c:428
80013b34:	27bdffc0 	addiu	sp,sp,-64
80013b38:	afbf003c 	sw	ra,60(sp)
80013b3c:	afbe0038 	sw	s8,56(sp)
80013b40:	afb00034 	sw	s0,52(sp)
80013b44:	03a0f025 	move	s8,sp
/home/git/21373271/21373271/kern/pmap.c:429
80013b48:	24060001 	li	a2,1
80013b4c:	24051000 	li	a1,4096
80013b50:	24041000 	li	a0,4096
80013b54:	0c0049b0 	jal	800126c0 <alloc>
80013b58:	00000000 	nop
80013b5c:	afc20018 	sw	v0,24(s8)
/home/git/21373271/21373271/kern/pmap.c:434
80013b60:	afc00028 	sw	zero,40(s8)
80013b64:	8fc20028 	lw	v0,40(s8)
80013b68:	00000000 	nop
80013b6c:	afc20024 	sw	v0,36(s8)
80013b70:	8fc20024 	lw	v0,36(s8)
80013b74:	00000000 	nop
80013b78:	afc20020 	sw	v0,32(s8)
/home/git/21373271/21373271/kern/pmap.c:435
80013b7c:	27c20020 	addiu	v0,s8,32
80013b80:	00402025 	move	a0,v0
80013b84:	0c004ae0 	jal	80012b80 <page_alloc>
80013b88:	00000000 	nop
80013b8c:	1040000d 	beqz	v0,80013bc4 <page_check+0x90>
80013b90:	00000000 	nop
/home/git/21373271/21373271/kern/pmap.c:435 (discriminator 1)
80013b94:	3c028001 	lui	v0,0x8001
80013b98:	24425584 	addiu	v0,v0,21892
80013b9c:	afa20010 	sw	v0,16(sp)
80013ba0:	3c028001 	lui	v0,0x8001
80013ba4:	2447554c 	addiu	a3,v0,21836
80013ba8:	3c028001 	lui	v0,0x8001
80013bac:	24465ac0 	addiu	a2,v0,23232
80013bb0:	240501b3 	li	a1,435
80013bb4:	3c028001 	lui	v0,0x8001
80013bb8:	244454dc 	addiu	a0,v0,21724
80013bbc:	0c004870 	jal	800121c0 <_panic>
80013bc0:	00000000 	nop
/home/git/21373271/21373271/kern/pmap.c:436
80013bc4:	27c20024 	addiu	v0,s8,36
80013bc8:	00402025 	move	a0,v0
80013bcc:	0c004ae0 	jal	80012b80 <page_alloc>
80013bd0:	00000000 	nop
80013bd4:	1040000d 	beqz	v0,80013c0c <page_check+0xd8>
80013bd8:	00000000 	nop
/home/git/21373271/21373271/kern/pmap.c:436 (discriminator 1)
80013bdc:	3c028001 	lui	v0,0x8001
80013be0:	2442559c 	addiu	v0,v0,21916
80013be4:	afa20010 	sw	v0,16(sp)
80013be8:	3c028001 	lui	v0,0x8001
80013bec:	2447554c 	addiu	a3,v0,21836
80013bf0:	3c028001 	lui	v0,0x8001
80013bf4:	24465ac0 	addiu	a2,v0,23232
80013bf8:	240501b4 	li	a1,436
80013bfc:	3c028001 	lui	v0,0x8001
80013c00:	244454dc 	addiu	a0,v0,21724
80013c04:	0c004870 	jal	800121c0 <_panic>
80013c08:	00000000 	nop
/home/git/21373271/21373271/kern/pmap.c:437
80013c0c:	27c20028 	addiu	v0,s8,40
80013c10:	00402025 	move	a0,v0
80013c14:	0c004ae0 	jal	80012b80 <page_alloc>
80013c18:	00000000 	nop
80013c1c:	1040000d 	beqz	v0,80013c54 <page_check+0x120>
80013c20:	00000000 	nop
/home/git/21373271/21373271/kern/pmap.c:437 (discriminator 1)
80013c24:	3c028001 	lui	v0,0x8001
80013c28:	244255b4 	addiu	v0,v0,21940
80013c2c:	afa20010 	sw	v0,16(sp)
80013c30:	3c028001 	lui	v0,0x8001
80013c34:	2447554c 	addiu	a3,v0,21836
80013c38:	3c028001 	lui	v0,0x8001
80013c3c:	24465ac0 	addiu	a2,v0,23232
80013c40:	240501b5 	li	a1,437
80013c44:	3c028001 	lui	v0,0x8001
80013c48:	244454dc 	addiu	a0,v0,21724
80013c4c:	0c004870 	jal	800121c0 <_panic>
80013c50:	00000000 	nop
/home/git/21373271/21373271/kern/pmap.c:439
80013c54:	8fc20020 	lw	v0,32(s8)
80013c58:	00000000 	nop
80013c5c:	1440000d 	bnez	v0,80013c94 <page_check+0x160>
80013c60:	00000000 	nop
/home/git/21373271/21373271/kern/pmap.c:439 (discriminator 1)
80013c64:	3c028001 	lui	v0,0x8001
80013c68:	244255cc 	addiu	v0,v0,21964
80013c6c:	afa20010 	sw	v0,16(sp)
80013c70:	3c028001 	lui	v0,0x8001
80013c74:	2447554c 	addiu	a3,v0,21836
80013c78:	3c028001 	lui	v0,0x8001
80013c7c:	24465ac0 	addiu	a2,v0,23232
80013c80:	240501b7 	li	a1,439
80013c84:	3c028001 	lui	v0,0x8001
80013c88:	244454dc 	addiu	a0,v0,21724
80013c8c:	0c004870 	jal	800121c0 <_panic>
80013c90:	00000000 	nop
/home/git/21373271/21373271/kern/pmap.c:440
80013c94:	8fc20024 	lw	v0,36(s8)
80013c98:	00000000 	nop
80013c9c:	10400006 	beqz	v0,80013cb8 <page_check+0x184>
80013ca0:	00000000 	nop
/home/git/21373271/21373271/kern/pmap.c:440 (discriminator 2)
80013ca4:	8fc30024 	lw	v1,36(s8)
80013ca8:	8fc20020 	lw	v0,32(s8)
80013cac:	00000000 	nop
80013cb0:	1462000d 	bne	v1,v0,80013ce8 <page_check+0x1b4>
80013cb4:	00000000 	nop
/home/git/21373271/21373271/kern/pmap.c:440 (discriminator 3)
80013cb8:	3c028001 	lui	v0,0x8001
80013cbc:	244255d0 	addiu	v0,v0,21968
80013cc0:	afa20010 	sw	v0,16(sp)
80013cc4:	3c028001 	lui	v0,0x8001
80013cc8:	2447554c 	addiu	a3,v0,21836
80013ccc:	3c028001 	lui	v0,0x8001
80013cd0:	24465ac0 	addiu	a2,v0,23232
80013cd4:	240501b8 	li	a1,440
80013cd8:	3c028001 	lui	v0,0x8001
80013cdc:	244454dc 	addiu	a0,v0,21724
80013ce0:	0c004870 	jal	800121c0 <_panic>
80013ce4:	00000000 	nop
/home/git/21373271/21373271/kern/pmap.c:441
80013ce8:	8fc20028 	lw	v0,40(s8)
80013cec:	00000000 	nop
80013cf0:	1040000b 	beqz	v0,80013d20 <page_check+0x1ec>
80013cf4:	00000000 	nop
/home/git/21373271/21373271/kern/pmap.c:441 (discriminator 2)
80013cf8:	8fc30028 	lw	v1,40(s8)
80013cfc:	8fc20024 	lw	v0,36(s8)
80013d00:	00000000 	nop
80013d04:	10620006 	beq	v1,v0,80013d20 <page_check+0x1ec>
80013d08:	00000000 	nop
/home/git/21373271/21373271/kern/pmap.c:441 (discriminator 4)
80013d0c:	8fc30028 	lw	v1,40(s8)
80013d10:	8fc20020 	lw	v0,32(s8)
80013d14:	00000000 	nop
80013d18:	1462000d 	bne	v1,v0,80013d50 <page_check+0x21c>
80013d1c:	00000000 	nop
/home/git/21373271/21373271/kern/pmap.c:441 (discriminator 5)
80013d20:	3c028001 	lui	v0,0x8001
80013d24:	244255e4 	addiu	v0,v0,21988
80013d28:	afa20010 	sw	v0,16(sp)
80013d2c:	3c028001 	lui	v0,0x8001
80013d30:	2447554c 	addiu	a3,v0,21836
80013d34:	3c028001 	lui	v0,0x8001
80013d38:	24465ac0 	addiu	a2,v0,23232
80013d3c:	240501b9 	li	a1,441
80013d40:	3c028001 	lui	v0,0x8001
80013d44:	244454dc 	addiu	a0,v0,21724
80013d48:	0c004870 	jal	800121c0 <_panic>
80013d4c:	00000000 	nop
/home/git/21373271/21373271/kern/pmap.c:444
80013d50:	3c028001 	lui	v0,0x8001
80013d54:	8c425c3c 	lw	v0,23612(v0)
80013d58:	00000000 	nop
80013d5c:	afc2002c 	sw	v0,44(s8)
/home/git/21373271/21373271/kern/pmap.c:446
80013d60:	3c028001 	lui	v0,0x8001
80013d64:	ac405c3c 	sw	zero,23612(v0)
/home/git/21373271/21373271/kern/pmap.c:449
80013d68:	27c2001c 	addiu	v0,s8,28
80013d6c:	00402025 	move	a0,v0
80013d70:	0c004ae0 	jal	80012b80 <page_alloc>
80013d74:	00000000 	nop
80013d78:	00401825 	move	v1,v0
80013d7c:	2402fffc 	li	v0,-4
80013d80:	1062000d 	beq	v1,v0,80013db8 <page_check+0x284>
80013d84:	00000000 	nop
/home/git/21373271/21373271/kern/pmap.c:449 (discriminator 1)
80013d88:	3c028001 	lui	v0,0x8001
80013d8c:	24425604 	addiu	v0,v0,22020
80013d90:	afa20010 	sw	v0,16(sp)
80013d94:	3c028001 	lui	v0,0x8001
80013d98:	2447554c 	addiu	a3,v0,21836
80013d9c:	3c028001 	lui	v0,0x8001
80013da0:	24465ac0 	addiu	a2,v0,23232
80013da4:	240501c1 	li	a1,449
80013da8:	3c028001 	lui	v0,0x8001
80013dac:	244454dc 	addiu	a0,v0,21724
80013db0:	0c004870 	jal	800121c0 <_panic>
80013db4:	00000000 	nop
/home/git/21373271/21373271/kern/pmap.c:452
80013db8:	8fc20024 	lw	v0,36(s8)
80013dbc:	afa00010 	sw	zero,16(sp)
80013dc0:	00003825 	move	a3,zero
80013dc4:	00403025 	move	a2,v0
80013dc8:	00002825 	move	a1,zero
80013dcc:	8fc40018 	lw	a0,24(s8)
80013dd0:	0c004bb6 	jal	80012ed8 <page_insert>
80013dd4:	00000000 	nop
80013dd8:	0440000d 	bltz	v0,80013e10 <page_check+0x2dc>
80013ddc:	00000000 	nop
/home/git/21373271/21373271/kern/pmap.c:452 (discriminator 1)
80013de0:	3c028001 	lui	v0,0x8001
80013de4:	24425738 	addiu	v0,v0,22328
80013de8:	afa20010 	sw	v0,16(sp)
80013dec:	3c028001 	lui	v0,0x8001
80013df0:	2447554c 	addiu	a3,v0,21836
80013df4:	3c028001 	lui	v0,0x8001
80013df8:	24465ac0 	addiu	a2,v0,23232
80013dfc:	240501c4 	li	a1,452
80013e00:	3c028001 	lui	v0,0x8001
80013e04:	244454dc 	addiu	a0,v0,21724
80013e08:	0c004870 	jal	800121c0 <_panic>
80013e0c:	00000000 	nop
/home/git/21373271/21373271/kern/pmap.c:455
80013e10:	8fc20020 	lw	v0,32(s8)
80013e14:	00000000 	nop
80013e18:	00402025 	move	a0,v0
80013e1c:	0c004b1a 	jal	80012c68 <page_free>
80013e20:	00000000 	nop
/home/git/21373271/21373271/kern/pmap.c:456
80013e24:	8fc20024 	lw	v0,36(s8)
80013e28:	afa00010 	sw	zero,16(sp)
80013e2c:	00003825 	move	a3,zero
80013e30:	00403025 	move	a2,v0
80013e34:	00002825 	move	a1,zero
80013e38:	8fc40018 	lw	a0,24(s8)
80013e3c:	0c004bb6 	jal	80012ed8 <page_insert>
80013e40:	00000000 	nop
80013e44:	1040000d 	beqz	v0,80013e7c <page_check+0x348>
80013e48:	00000000 	nop
/home/git/21373271/21373271/kern/pmap.c:456 (discriminator 1)
80013e4c:	3c028001 	lui	v0,0x8001
80013e50:	24425764 	addiu	v0,v0,22372
80013e54:	afa20010 	sw	v0,16(sp)
80013e58:	3c028001 	lui	v0,0x8001
80013e5c:	2447554c 	addiu	a3,v0,21836
80013e60:	3c028001 	lui	v0,0x8001
80013e64:	24465ac0 	addiu	a2,v0,23232
80013e68:	240501c8 	li	a1,456
80013e6c:	3c028001 	lui	v0,0x8001
80013e70:	244454dc 	addiu	a0,v0,21724
80013e74:	0c004870 	jal	800121c0 <_panic>
80013e78:	00000000 	nop
/home/git/21373271/21373271/kern/pmap.c:457
80013e7c:	8fc20018 	lw	v0,24(s8)
80013e80:	00000000 	nop
80013e84:	8c430000 	lw	v1,0(v0)
80013e88:	2402f000 	li	v0,-4096
80013e8c:	00628024 	and	s0,v1,v0
80013e90:	8fc20020 	lw	v0,32(s8)
80013e94:	00000000 	nop
80013e98:	00402025 	move	a0,v0
80013e9c:	0c0048cd 	jal	80012334 <page2pa>
80013ea0:	00000000 	nop
80013ea4:	1202000d 	beq	s0,v0,80013edc <page_check+0x3a8>
80013ea8:	00000000 	nop
/home/git/21373271/21373271/kern/pmap.c:457 (discriminator 1)
80013eac:	3c028001 	lui	v0,0x8001
80013eb0:	24425794 	addiu	v0,v0,22420
80013eb4:	afa20010 	sw	v0,16(sp)
80013eb8:	3c028001 	lui	v0,0x8001
80013ebc:	2447554c 	addiu	a3,v0,21836
80013ec0:	3c028001 	lui	v0,0x8001
80013ec4:	24465ac0 	addiu	a2,v0,23232
80013ec8:	240501c9 	li	a1,457
80013ecc:	3c028001 	lui	v0,0x8001
80013ed0:	244454dc 	addiu	a0,v0,21724
80013ed4:	0c004870 	jal	800121c0 <_panic>
80013ed8:	00000000 	nop
/home/git/21373271/21373271/kern/pmap.c:459
80013edc:	00002825 	move	a1,zero
80013ee0:	8fc40018 	lw	a0,24(s8)
80013ee4:	0c004930 	jal	800124c0 <va2pa>
80013ee8:	00000000 	nop
80013eec:	00402825 	move	a1,v0
80013ef0:	3c028001 	lui	v0,0x8001
80013ef4:	244457bc 	addiu	a0,v0,22460
80013ef8:	0c005289 	jal	80014a24 <printk>
80013efc:	00000000 	nop
/home/git/21373271/21373271/kern/pmap.c:460
80013f00:	8fc20024 	lw	v0,36(s8)
80013f04:	00000000 	nop
80013f08:	00402025 	move	a0,v0
80013f0c:	0c0048cd 	jal	80012334 <page2pa>
80013f10:	00000000 	nop
80013f14:	00402825 	move	a1,v0
80013f18:	3c028001 	lui	v0,0x8001
80013f1c:	244457dc 	addiu	a0,v0,22492
80013f20:	0c005289 	jal	80014a24 <printk>
80013f24:	00000000 	nop
/home/git/21373271/21373271/kern/pmap.c:462
80013f28:	00002825 	move	a1,zero
80013f2c:	8fc40018 	lw	a0,24(s8)
80013f30:	0c004930 	jal	800124c0 <va2pa>
80013f34:	00000000 	nop
80013f38:	00408025 	move	s0,v0
80013f3c:	8fc20024 	lw	v0,36(s8)
80013f40:	00000000 	nop
80013f44:	00402025 	move	a0,v0
80013f48:	0c0048cd 	jal	80012334 <page2pa>
80013f4c:	00000000 	nop
80013f50:	1202000d 	beq	s0,v0,80013f88 <page_check+0x454>
80013f54:	00000000 	nop
/home/git/21373271/21373271/kern/pmap.c:462 (discriminator 1)
80013f58:	3c028001 	lui	v0,0x8001
80013f5c:	244257f0 	addiu	v0,v0,22512
80013f60:	afa20010 	sw	v0,16(sp)
80013f64:	3c028001 	lui	v0,0x8001
80013f68:	2447554c 	addiu	a3,v0,21836
80013f6c:	3c028001 	lui	v0,0x8001
80013f70:	24465ac0 	addiu	a2,v0,23232
80013f74:	240501ce 	li	a1,462
80013f78:	3c028001 	lui	v0,0x8001
80013f7c:	244454dc 	addiu	a0,v0,21724
80013f80:	0c004870 	jal	800121c0 <_panic>
80013f84:	00000000 	nop
/home/git/21373271/21373271/kern/pmap.c:463
80013f88:	8fc20024 	lw	v0,36(s8)
80013f8c:	00000000 	nop
80013f90:	94430008 	lhu	v1,8(v0)
80013f94:	24020001 	li	v0,1
80013f98:	1062000d 	beq	v1,v0,80013fd0 <page_check+0x49c>
80013f9c:	00000000 	nop
/home/git/21373271/21373271/kern/pmap.c:463 (discriminator 1)
80013fa0:	3c028001 	lui	v0,0x8001
80013fa4:	24425818 	addiu	v0,v0,22552
80013fa8:	afa20010 	sw	v0,16(sp)
80013fac:	3c028001 	lui	v0,0x8001
80013fb0:	2447554c 	addiu	a3,v0,21836
80013fb4:	3c028001 	lui	v0,0x8001
80013fb8:	24465ac0 	addiu	a2,v0,23232
80013fbc:	240501cf 	li	a1,463
80013fc0:	3c028001 	lui	v0,0x8001
80013fc4:	244454dc 	addiu	a0,v0,21724
80013fc8:	0c004870 	jal	800121c0 <_panic>
80013fcc:	00000000 	nop
/home/git/21373271/21373271/kern/pmap.c:466
80013fd0:	8fc20028 	lw	v0,40(s8)
80013fd4:	afa00010 	sw	zero,16(sp)
80013fd8:	24071000 	li	a3,4096
80013fdc:	00403025 	move	a2,v0
80013fe0:	00002825 	move	a1,zero
80013fe4:	8fc40018 	lw	a0,24(s8)
80013fe8:	0c004bb6 	jal	80012ed8 <page_insert>
80013fec:	00000000 	nop
80013ff0:	1040000d 	beqz	v0,80014028 <page_check+0x4f4>
80013ff4:	00000000 	nop
/home/git/21373271/21373271/kern/pmap.c:466 (discriminator 1)
80013ff8:	3c028001 	lui	v0,0x8001
80013ffc:	2442582c 	addiu	v0,v0,22572
80014000:	afa20010 	sw	v0,16(sp)
80014004:	3c028001 	lui	v0,0x8001
80014008:	2447554c 	addiu	a3,v0,21836
8001400c:	3c028001 	lui	v0,0x8001
80014010:	24465ac0 	addiu	a2,v0,23232
80014014:	240501d2 	li	a1,466
80014018:	3c028001 	lui	v0,0x8001
8001401c:	244454dc 	addiu	a0,v0,21724
80014020:	0c004870 	jal	800121c0 <_panic>
80014024:	00000000 	nop
/home/git/21373271/21373271/kern/pmap.c:467
80014028:	24051000 	li	a1,4096
8001402c:	8fc40018 	lw	a0,24(s8)
80014030:	0c004930 	jal	800124c0 <va2pa>
80014034:	00000000 	nop
80014038:	00408025 	move	s0,v0
8001403c:	8fc20028 	lw	v0,40(s8)
80014040:	00000000 	nop
80014044:	00402025 	move	a0,v0
80014048:	0c0048cd 	jal	80012334 <page2pa>
8001404c:	00000000 	nop
80014050:	1202000d 	beq	s0,v0,80014088 <page_check+0x554>
80014054:	00000000 	nop
/home/git/21373271/21373271/kern/pmap.c:467 (discriminator 1)
80014058:	3c028001 	lui	v0,0x8001
8001405c:	2442585c 	addiu	v0,v0,22620
80014060:	afa20010 	sw	v0,16(sp)
80014064:	3c028001 	lui	v0,0x8001
80014068:	2447554c 	addiu	a3,v0,21836
8001406c:	3c028001 	lui	v0,0x8001
80014070:	24465ac0 	addiu	a2,v0,23232
80014074:	240501d3 	li	a1,467
80014078:	3c028001 	lui	v0,0x8001
8001407c:	244454dc 	addiu	a0,v0,21724
80014080:	0c004870 	jal	800121c0 <_panic>
80014084:	00000000 	nop
/home/git/21373271/21373271/kern/pmap.c:468
80014088:	8fc20028 	lw	v0,40(s8)
8001408c:	00000000 	nop
80014090:	94430008 	lhu	v1,8(v0)
80014094:	24020001 	li	v0,1
80014098:	1062000d 	beq	v1,v0,800140d0 <page_check+0x59c>
8001409c:	00000000 	nop
/home/git/21373271/21373271/kern/pmap.c:468 (discriminator 1)
800140a0:	3c028001 	lui	v0,0x8001
800140a4:	24425888 	addiu	v0,v0,22664
800140a8:	afa20010 	sw	v0,16(sp)
800140ac:	3c028001 	lui	v0,0x8001
800140b0:	2447554c 	addiu	a3,v0,21836
800140b4:	3c028001 	lui	v0,0x8001
800140b8:	24465ac0 	addiu	a2,v0,23232
800140bc:	240501d4 	li	a1,468
800140c0:	3c028001 	lui	v0,0x8001
800140c4:	244454dc 	addiu	a0,v0,21724
800140c8:	0c004870 	jal	800121c0 <_panic>
800140cc:	00000000 	nop
/home/git/21373271/21373271/kern/pmap.c:471
800140d0:	27c2001c 	addiu	v0,s8,28
800140d4:	00402025 	move	a0,v0
800140d8:	0c004ae0 	jal	80012b80 <page_alloc>
800140dc:	00000000 	nop
800140e0:	00401825 	move	v1,v0
800140e4:	2402fffc 	li	v0,-4
800140e8:	1062000d 	beq	v1,v0,80014120 <page_check+0x5ec>
800140ec:	00000000 	nop
/home/git/21373271/21373271/kern/pmap.c:471 (discriminator 1)
800140f0:	3c028001 	lui	v0,0x8001
800140f4:	24425604 	addiu	v0,v0,22020
800140f8:	afa20010 	sw	v0,16(sp)
800140fc:	3c028001 	lui	v0,0x8001
80014100:	2447554c 	addiu	a3,v0,21836
80014104:	3c028001 	lui	v0,0x8001
80014108:	24465ac0 	addiu	a2,v0,23232
8001410c:	240501d7 	li	a1,471
80014110:	3c028001 	lui	v0,0x8001
80014114:	244454dc 	addiu	a0,v0,21724
80014118:	0c004870 	jal	800121c0 <_panic>
8001411c:	00000000 	nop
/home/git/21373271/21373271/kern/pmap.c:473
80014120:	3c028001 	lui	v0,0x8001
80014124:	2444589c 	addiu	a0,v0,22684
80014128:	0c005289 	jal	80014a24 <printk>
8001412c:	00000000 	nop
/home/git/21373271/21373271/kern/pmap.c:475
80014130:	8fc20028 	lw	v0,40(s8)
80014134:	afa00010 	sw	zero,16(sp)
80014138:	24071000 	li	a3,4096
8001413c:	00403025 	move	a2,v0
80014140:	00002825 	move	a1,zero
80014144:	8fc40018 	lw	a0,24(s8)
80014148:	0c004bb6 	jal	80012ed8 <page_insert>
8001414c:	00000000 	nop
80014150:	1040000d 	beqz	v0,80014188 <page_check+0x654>
80014154:	00000000 	nop
/home/git/21373271/21373271/kern/pmap.c:475 (discriminator 1)
80014158:	3c028001 	lui	v0,0x8001
8001415c:	2442582c 	addiu	v0,v0,22572
80014160:	afa20010 	sw	v0,16(sp)
80014164:	3c028001 	lui	v0,0x8001
80014168:	2447554c 	addiu	a3,v0,21836
8001416c:	3c028001 	lui	v0,0x8001
80014170:	24465ac0 	addiu	a2,v0,23232
80014174:	240501db 	li	a1,475
80014178:	3c028001 	lui	v0,0x8001
8001417c:	244454dc 	addiu	a0,v0,21724
80014180:	0c004870 	jal	800121c0 <_panic>
80014184:	00000000 	nop
/home/git/21373271/21373271/kern/pmap.c:476
80014188:	24051000 	li	a1,4096
8001418c:	8fc40018 	lw	a0,24(s8)
80014190:	0c004930 	jal	800124c0 <va2pa>
80014194:	00000000 	nop
80014198:	00408025 	move	s0,v0
8001419c:	8fc20028 	lw	v0,40(s8)
800141a0:	00000000 	nop
800141a4:	00402025 	move	a0,v0
800141a8:	0c0048cd 	jal	80012334 <page2pa>
800141ac:	00000000 	nop
800141b0:	1202000d 	beq	s0,v0,800141e8 <page_check+0x6b4>
800141b4:	00000000 	nop
/home/git/21373271/21373271/kern/pmap.c:476 (discriminator 1)
800141b8:	3c028001 	lui	v0,0x8001
800141bc:	2442585c 	addiu	v0,v0,22620
800141c0:	afa20010 	sw	v0,16(sp)
800141c4:	3c028001 	lui	v0,0x8001
800141c8:	2447554c 	addiu	a3,v0,21836
800141cc:	3c028001 	lui	v0,0x8001
800141d0:	24465ac0 	addiu	a2,v0,23232
800141d4:	240501dc 	li	a1,476
800141d8:	3c028001 	lui	v0,0x8001
800141dc:	244454dc 	addiu	a0,v0,21724
800141e0:	0c004870 	jal	800121c0 <_panic>
800141e4:	00000000 	nop
/home/git/21373271/21373271/kern/pmap.c:477
800141e8:	8fc20028 	lw	v0,40(s8)
800141ec:	00000000 	nop
800141f0:	94430008 	lhu	v1,8(v0)
800141f4:	24020001 	li	v0,1
800141f8:	1062000d 	beq	v1,v0,80014230 <page_check+0x6fc>
800141fc:	00000000 	nop
/home/git/21373271/21373271/kern/pmap.c:477 (discriminator 1)
80014200:	3c028001 	lui	v0,0x8001
80014204:	24425888 	addiu	v0,v0,22664
80014208:	afa20010 	sw	v0,16(sp)
8001420c:	3c028001 	lui	v0,0x8001
80014210:	2447554c 	addiu	a3,v0,21836
80014214:	3c028001 	lui	v0,0x8001
80014218:	24465ac0 	addiu	a2,v0,23232
8001421c:	240501dd 	li	a1,477
80014220:	3c028001 	lui	v0,0x8001
80014224:	244454dc 	addiu	a0,v0,21724
80014228:	0c004870 	jal	800121c0 <_panic>
8001422c:	00000000 	nop
/home/git/21373271/21373271/kern/pmap.c:481
80014230:	27c2001c 	addiu	v0,s8,28
80014234:	00402025 	move	a0,v0
80014238:	0c004ae0 	jal	80012b80 <page_alloc>
8001423c:	00000000 	nop
80014240:	00401825 	move	v1,v0
80014244:	2402fffc 	li	v0,-4
80014248:	1062000d 	beq	v1,v0,80014280 <page_check+0x74c>
8001424c:	00000000 	nop
/home/git/21373271/21373271/kern/pmap.c:481 (discriminator 1)
80014250:	3c028001 	lui	v0,0x8001
80014254:	24425604 	addiu	v0,v0,22020
80014258:	afa20010 	sw	v0,16(sp)
8001425c:	3c028001 	lui	v0,0x8001
80014260:	2447554c 	addiu	a3,v0,21836
80014264:	3c028001 	lui	v0,0x8001
80014268:	24465ac0 	addiu	a2,v0,23232
8001426c:	240501e1 	li	a1,481
80014270:	3c028001 	lui	v0,0x8001
80014274:	244454dc 	addiu	a0,v0,21724
80014278:	0c004870 	jal	800121c0 <_panic>
8001427c:	00000000 	nop
/home/git/21373271/21373271/kern/pmap.c:484
80014280:	8fc20020 	lw	v0,32(s8)
80014284:	afa00010 	sw	zero,16(sp)
80014288:	3c070040 	lui	a3,0x40
8001428c:	00403025 	move	a2,v0
80014290:	00002825 	move	a1,zero
80014294:	8fc40018 	lw	a0,24(s8)
80014298:	0c004bb6 	jal	80012ed8 <page_insert>
8001429c:	00000000 	nop
800142a0:	0440000d 	bltz	v0,800142d8 <page_check+0x7a4>
800142a4:	00000000 	nop
/home/git/21373271/21373271/kern/pmap.c:484 (discriminator 1)
800142a8:	3c028001 	lui	v0,0x8001
800142ac:	244258b0 	addiu	v0,v0,22704
800142b0:	afa20010 	sw	v0,16(sp)
800142b4:	3c028001 	lui	v0,0x8001
800142b8:	2447554c 	addiu	a3,v0,21836
800142bc:	3c028001 	lui	v0,0x8001
800142c0:	24465ac0 	addiu	a2,v0,23232
800142c4:	240501e4 	li	a1,484
800142c8:	3c028001 	lui	v0,0x8001
800142cc:	244454dc 	addiu	a0,v0,21724
800142d0:	0c004870 	jal	800121c0 <_panic>
800142d4:	00000000 	nop
/home/git/21373271/21373271/kern/pmap.c:487
800142d8:	8fc20024 	lw	v0,36(s8)
800142dc:	afa00010 	sw	zero,16(sp)
800142e0:	24071000 	li	a3,4096
800142e4:	00403025 	move	a2,v0
800142e8:	00002825 	move	a1,zero
800142ec:	8fc40018 	lw	a0,24(s8)
800142f0:	0c004bb6 	jal	80012ed8 <page_insert>
800142f4:	00000000 	nop
800142f8:	1040000d 	beqz	v0,80014330 <page_check+0x7fc>
800142fc:	00000000 	nop
/home/git/21373271/21373271/kern/pmap.c:487 (discriminator 1)
80014300:	3c028001 	lui	v0,0x8001
80014304:	244258e0 	addiu	v0,v0,22752
80014308:	afa20010 	sw	v0,16(sp)
8001430c:	3c028001 	lui	v0,0x8001
80014310:	2447554c 	addiu	a3,v0,21836
80014314:	3c028001 	lui	v0,0x8001
80014318:	24465ac0 	addiu	a2,v0,23232
8001431c:	240501e7 	li	a1,487
80014320:	3c028001 	lui	v0,0x8001
80014324:	244454dc 	addiu	a0,v0,21724
80014328:	0c004870 	jal	800121c0 <_panic>
8001432c:	00000000 	nop
/home/git/21373271/21373271/kern/pmap.c:490
80014330:	00002825 	move	a1,zero
80014334:	8fc40018 	lw	a0,24(s8)
80014338:	0c004930 	jal	800124c0 <va2pa>
8001433c:	00000000 	nop
80014340:	00408025 	move	s0,v0
80014344:	8fc20024 	lw	v0,36(s8)
80014348:	00000000 	nop
8001434c:	00402025 	move	a0,v0
80014350:	0c0048cd 	jal	80012334 <page2pa>
80014354:	00000000 	nop
80014358:	1202000d 	beq	s0,v0,80014390 <page_check+0x85c>
8001435c:	00000000 	nop
/home/git/21373271/21373271/kern/pmap.c:490 (discriminator 1)
80014360:	3c028001 	lui	v0,0x8001
80014364:	244257f0 	addiu	v0,v0,22512
80014368:	afa20010 	sw	v0,16(sp)
8001436c:	3c028001 	lui	v0,0x8001
80014370:	2447554c 	addiu	a3,v0,21836
80014374:	3c028001 	lui	v0,0x8001
80014378:	24465ac0 	addiu	a2,v0,23232
8001437c:	240501ea 	li	a1,490
80014380:	3c028001 	lui	v0,0x8001
80014384:	244454dc 	addiu	a0,v0,21724
80014388:	0c004870 	jal	800121c0 <_panic>
8001438c:	00000000 	nop
/home/git/21373271/21373271/kern/pmap.c:491
80014390:	24051000 	li	a1,4096
80014394:	8fc40018 	lw	a0,24(s8)
80014398:	0c004930 	jal	800124c0 <va2pa>
8001439c:	00000000 	nop
800143a0:	00408025 	move	s0,v0
800143a4:	8fc20024 	lw	v0,36(s8)
800143a8:	00000000 	nop
800143ac:	00402025 	move	a0,v0
800143b0:	0c0048cd 	jal	80012334 <page2pa>
800143b4:	00000000 	nop
800143b8:	1202000d 	beq	s0,v0,800143f0 <page_check+0x8bc>
800143bc:	00000000 	nop
/home/git/21373271/21373271/kern/pmap.c:491 (discriminator 1)
800143c0:	3c028001 	lui	v0,0x8001
800143c4:	24425910 	addiu	v0,v0,22800
800143c8:	afa20010 	sw	v0,16(sp)
800143cc:	3c028001 	lui	v0,0x8001
800143d0:	2447554c 	addiu	a3,v0,21836
800143d4:	3c028001 	lui	v0,0x8001
800143d8:	24465ac0 	addiu	a2,v0,23232
800143dc:	240501eb 	li	a1,491
800143e0:	3c028001 	lui	v0,0x8001
800143e4:	244454dc 	addiu	a0,v0,21724
800143e8:	0c004870 	jal	800121c0 <_panic>
800143ec:	00000000 	nop
/home/git/21373271/21373271/kern/pmap.c:493
800143f0:	8fc20024 	lw	v0,36(s8)
800143f4:	00000000 	nop
800143f8:	94430008 	lhu	v1,8(v0)
800143fc:	24020002 	li	v0,2
80014400:	1062000d 	beq	v1,v0,80014438 <page_check+0x904>
80014404:	00000000 	nop
/home/git/21373271/21373271/kern/pmap.c:493 (discriminator 1)
80014408:	3c028001 	lui	v0,0x8001
8001440c:	2442593c 	addiu	v0,v0,22844
80014410:	afa20010 	sw	v0,16(sp)
80014414:	3c028001 	lui	v0,0x8001
80014418:	2447554c 	addiu	a3,v0,21836
8001441c:	3c028001 	lui	v0,0x8001
80014420:	24465ac0 	addiu	a2,v0,23232
80014424:	240501ed 	li	a1,493
80014428:	3c028001 	lui	v0,0x8001
8001442c:	244454dc 	addiu	a0,v0,21724
80014430:	0c004870 	jal	800121c0 <_panic>
80014434:	00000000 	nop
/home/git/21373271/21373271/kern/pmap.c:494
80014438:	8fc20028 	lw	v0,40(s8)
8001443c:	00000000 	nop
80014440:	94420008 	lhu	v0,8(v0)
80014444:	00000000 	nop
80014448:	00402825 	move	a1,v0
8001444c:	3c028001 	lui	v0,0x8001
80014450:	24445950 	addiu	a0,v0,22864
80014454:	0c005289 	jal	80014a24 <printk>
80014458:	00000000 	nop
/home/git/21373271/21373271/kern/pmap.c:495
8001445c:	8fc20028 	lw	v0,40(s8)
80014460:	00000000 	nop
80014464:	94420008 	lhu	v0,8(v0)
80014468:	00000000 	nop
8001446c:	1040000d 	beqz	v0,800144a4 <page_check+0x970>
80014470:	00000000 	nop
/home/git/21373271/21373271/kern/pmap.c:495 (discriminator 1)
80014474:	3c028001 	lui	v0,0x8001
80014478:	24425960 	addiu	v0,v0,22880
8001447c:	afa20010 	sw	v0,16(sp)
80014480:	3c028001 	lui	v0,0x8001
80014484:	2447554c 	addiu	a3,v0,21836
80014488:	3c028001 	lui	v0,0x8001
8001448c:	24465ac0 	addiu	a2,v0,23232
80014490:	240501ef 	li	a1,495
80014494:	3c028001 	lui	v0,0x8001
80014498:	244454dc 	addiu	a0,v0,21724
8001449c:	0c004870 	jal	800121c0 <_panic>
800144a0:	00000000 	nop
/home/git/21373271/21373271/kern/pmap.c:496
800144a4:	3c028001 	lui	v0,0x8001
800144a8:	24445974 	addiu	a0,v0,22900
800144ac:	0c005289 	jal	80014a24 <printk>
800144b0:	00000000 	nop
/home/git/21373271/21373271/kern/pmap.c:499
800144b4:	27c2001c 	addiu	v0,s8,28
800144b8:	00402025 	move	a0,v0
800144bc:	0c004ae0 	jal	80012b80 <page_alloc>
800144c0:	00000000 	nop
800144c4:	14400006 	bnez	v0,800144e0 <page_check+0x9ac>
800144c8:	00000000 	nop
/home/git/21373271/21373271/kern/pmap.c:499 (discriminator 2)
800144cc:	8fc3001c 	lw	v1,28(s8)
800144d0:	8fc20028 	lw	v0,40(s8)
800144d4:	00000000 	nop
800144d8:	1062000d 	beq	v1,v0,80014510 <page_check+0x9dc>
800144dc:	00000000 	nop
/home/git/21373271/21373271/kern/pmap.c:499 (discriminator 3)
800144e0:	3c028001 	lui	v0,0x8001
800144e4:	24425988 	addiu	v0,v0,22920
800144e8:	afa20010 	sw	v0,16(sp)
800144ec:	3c028001 	lui	v0,0x8001
800144f0:	2447554c 	addiu	a3,v0,21836
800144f4:	3c028001 	lui	v0,0x8001
800144f8:	24465ac0 	addiu	a2,v0,23232
800144fc:	240501f3 	li	a1,499
80014500:	3c028001 	lui	v0,0x8001
80014504:	244454dc 	addiu	a0,v0,21724
80014508:	0c004870 	jal	800121c0 <_panic>
8001450c:	00000000 	nop
/home/git/21373271/21373271/kern/pmap.c:502
80014510:	00003025 	move	a2,zero
80014514:	00002825 	move	a1,zero
80014518:	8fc40018 	lw	a0,24(s8)
8001451c:	0c004c81 	jal	80013204 <page_remove>
80014520:	00000000 	nop
/home/git/21373271/21373271/kern/pmap.c:503
80014524:	00002825 	move	a1,zero
80014528:	8fc40018 	lw	a0,24(s8)
8001452c:	0c004930 	jal	800124c0 <va2pa>
80014530:	00000000 	nop
80014534:	00401825 	move	v1,v0
80014538:	2402ffff 	li	v0,-1
8001453c:	1062000d 	beq	v1,v0,80014574 <page_check+0xa40>
80014540:	00000000 	nop
/home/git/21373271/21373271/kern/pmap.c:503 (discriminator 1)
80014544:	3c028001 	lui	v0,0x8001
80014548:	244259ac 	addiu	v0,v0,22956
8001454c:	afa20010 	sw	v0,16(sp)
80014550:	3c028001 	lui	v0,0x8001
80014554:	2447554c 	addiu	a3,v0,21836
80014558:	3c028001 	lui	v0,0x8001
8001455c:	24465ac0 	addiu	a2,v0,23232
80014560:	240501f7 	li	a1,503
80014564:	3c028001 	lui	v0,0x8001
80014568:	244454dc 	addiu	a0,v0,21724
8001456c:	0c004870 	jal	800121c0 <_panic>
80014570:	00000000 	nop
/home/git/21373271/21373271/kern/pmap.c:504
80014574:	24051000 	li	a1,4096
80014578:	8fc40018 	lw	a0,24(s8)
8001457c:	0c004930 	jal	800124c0 <va2pa>
80014580:	00000000 	nop
80014584:	00408025 	move	s0,v0
80014588:	8fc20024 	lw	v0,36(s8)
8001458c:	00000000 	nop
80014590:	00402025 	move	a0,v0
80014594:	0c0048cd 	jal	80012334 <page2pa>
80014598:	00000000 	nop
8001459c:	1202000d 	beq	s0,v0,800145d4 <page_check+0xaa0>
800145a0:	00000000 	nop
/home/git/21373271/21373271/kern/pmap.c:504 (discriminator 1)
800145a4:	3c028001 	lui	v0,0x8001
800145a8:	24425910 	addiu	v0,v0,22800
800145ac:	afa20010 	sw	v0,16(sp)
800145b0:	3c028001 	lui	v0,0x8001
800145b4:	2447554c 	addiu	a3,v0,21836
800145b8:	3c028001 	lui	v0,0x8001
800145bc:	24465ac0 	addiu	a2,v0,23232
800145c0:	240501f8 	li	a1,504
800145c4:	3c028001 	lui	v0,0x8001
800145c8:	244454dc 	addiu	a0,v0,21724
800145cc:	0c004870 	jal	800121c0 <_panic>
800145d0:	00000000 	nop
/home/git/21373271/21373271/kern/pmap.c:505
800145d4:	8fc20024 	lw	v0,36(s8)
800145d8:	00000000 	nop
800145dc:	94430008 	lhu	v1,8(v0)
800145e0:	24020001 	li	v0,1
800145e4:	1062000d 	beq	v1,v0,8001461c <page_check+0xae8>
800145e8:	00000000 	nop
/home/git/21373271/21373271/kern/pmap.c:505 (discriminator 1)
800145ec:	3c028001 	lui	v0,0x8001
800145f0:	24425818 	addiu	v0,v0,22552
800145f4:	afa20010 	sw	v0,16(sp)
800145f8:	3c028001 	lui	v0,0x8001
800145fc:	2447554c 	addiu	a3,v0,21836
80014600:	3c028001 	lui	v0,0x8001
80014604:	24465ac0 	addiu	a2,v0,23232
80014608:	240501f9 	li	a1,505
8001460c:	3c028001 	lui	v0,0x8001
80014610:	244454dc 	addiu	a0,v0,21724
80014614:	0c004870 	jal	800121c0 <_panic>
80014618:	00000000 	nop
/home/git/21373271/21373271/kern/pmap.c:506
8001461c:	8fc20028 	lw	v0,40(s8)
80014620:	00000000 	nop
80014624:	94420008 	lhu	v0,8(v0)
80014628:	00000000 	nop
8001462c:	1040000d 	beqz	v0,80014664 <page_check+0xb30>
80014630:	00000000 	nop
/home/git/21373271/21373271/kern/pmap.c:506 (discriminator 1)
80014634:	3c028001 	lui	v0,0x8001
80014638:	24425960 	addiu	v0,v0,22880
8001463c:	afa20010 	sw	v0,16(sp)
80014640:	3c028001 	lui	v0,0x8001
80014644:	2447554c 	addiu	a3,v0,21836
80014648:	3c028001 	lui	v0,0x8001
8001464c:	24465ac0 	addiu	a2,v0,23232
80014650:	240501fa 	li	a1,506
80014654:	3c028001 	lui	v0,0x8001
80014658:	244454dc 	addiu	a0,v0,21724
8001465c:	0c004870 	jal	800121c0 <_panic>
80014660:	00000000 	nop
/home/git/21373271/21373271/kern/pmap.c:509
80014664:	24061000 	li	a2,4096
80014668:	00002825 	move	a1,zero
8001466c:	8fc40018 	lw	a0,24(s8)
80014670:	0c004c81 	jal	80013204 <page_remove>
80014674:	00000000 	nop
/home/git/21373271/21373271/kern/pmap.c:510
80014678:	00002825 	move	a1,zero
8001467c:	8fc40018 	lw	a0,24(s8)
80014680:	0c004930 	jal	800124c0 <va2pa>
80014684:	00000000 	nop
80014688:	00401825 	move	v1,v0
8001468c:	2402ffff 	li	v0,-1
80014690:	1062000d 	beq	v1,v0,800146c8 <page_check+0xb94>
80014694:	00000000 	nop
/home/git/21373271/21373271/kern/pmap.c:510 (discriminator 1)
80014698:	3c028001 	lui	v0,0x8001
8001469c:	244259ac 	addiu	v0,v0,22956
800146a0:	afa20010 	sw	v0,16(sp)
800146a4:	3c028001 	lui	v0,0x8001
800146a8:	2447554c 	addiu	a3,v0,21836
800146ac:	3c028001 	lui	v0,0x8001
800146b0:	24465ac0 	addiu	a2,v0,23232
800146b4:	240501fe 	li	a1,510
800146b8:	3c028001 	lui	v0,0x8001
800146bc:	244454dc 	addiu	a0,v0,21724
800146c0:	0c004870 	jal	800121c0 <_panic>
800146c4:	00000000 	nop
/home/git/21373271/21373271/kern/pmap.c:511
800146c8:	24051000 	li	a1,4096
800146cc:	8fc40018 	lw	a0,24(s8)
800146d0:	0c004930 	jal	800124c0 <va2pa>
800146d4:	00000000 	nop
800146d8:	00401825 	move	v1,v0
800146dc:	2402ffff 	li	v0,-1
800146e0:	1062000d 	beq	v1,v0,80014718 <page_check+0xbe4>
800146e4:	00000000 	nop
/home/git/21373271/21373271/kern/pmap.c:511 (discriminator 1)
800146e8:	3c028001 	lui	v0,0x8001
800146ec:	244259cc 	addiu	v0,v0,22988
800146f0:	afa20010 	sw	v0,16(sp)
800146f4:	3c028001 	lui	v0,0x8001
800146f8:	2447554c 	addiu	a3,v0,21836
800146fc:	3c028001 	lui	v0,0x8001
80014700:	24465ac0 	addiu	a2,v0,23232
80014704:	240501ff 	li	a1,511
80014708:	3c028001 	lui	v0,0x8001
8001470c:	244454dc 	addiu	a0,v0,21724
80014710:	0c004870 	jal	800121c0 <_panic>
80014714:	00000000 	nop
/home/git/21373271/21373271/kern/pmap.c:512
80014718:	8fc20024 	lw	v0,36(s8)
8001471c:	00000000 	nop
80014720:	94420008 	lhu	v0,8(v0)
80014724:	00000000 	nop
80014728:	1040000d 	beqz	v0,80014760 <page_check+0xc2c>
8001472c:	00000000 	nop
/home/git/21373271/21373271/kern/pmap.c:512 (discriminator 1)
80014730:	3c028001 	lui	v0,0x8001
80014734:	244259ec 	addiu	v0,v0,23020
80014738:	afa20010 	sw	v0,16(sp)
8001473c:	3c028001 	lui	v0,0x8001
80014740:	2447554c 	addiu	a3,v0,21836
80014744:	3c028001 	lui	v0,0x8001
80014748:	24465ac0 	addiu	a2,v0,23232
8001474c:	24050200 	li	a1,512
80014750:	3c028001 	lui	v0,0x8001
80014754:	244454dc 	addiu	a0,v0,21724
80014758:	0c004870 	jal	800121c0 <_panic>
8001475c:	00000000 	nop
/home/git/21373271/21373271/kern/pmap.c:513
80014760:	8fc20028 	lw	v0,40(s8)
80014764:	00000000 	nop
80014768:	94420008 	lhu	v0,8(v0)
8001476c:	00000000 	nop
80014770:	1040000d 	beqz	v0,800147a8 <page_check+0xc74>
80014774:	00000000 	nop
/home/git/21373271/21373271/kern/pmap.c:513 (discriminator 1)
80014778:	3c028001 	lui	v0,0x8001
8001477c:	24425960 	addiu	v0,v0,22880
80014780:	afa20010 	sw	v0,16(sp)
80014784:	3c028001 	lui	v0,0x8001
80014788:	2447554c 	addiu	a3,v0,21836
8001478c:	3c028001 	lui	v0,0x8001
80014790:	24465ac0 	addiu	a2,v0,23232
80014794:	24050201 	li	a1,513
80014798:	3c028001 	lui	v0,0x8001
8001479c:	244454dc 	addiu	a0,v0,21724
800147a0:	0c004870 	jal	800121c0 <_panic>
800147a4:	00000000 	nop
/home/git/21373271/21373271/kern/pmap.c:516
800147a8:	27c2001c 	addiu	v0,s8,28
800147ac:	00402025 	move	a0,v0
800147b0:	0c004ae0 	jal	80012b80 <page_alloc>
800147b4:	00000000 	nop
800147b8:	14400006 	bnez	v0,800147d4 <page_check+0xca0>
800147bc:	00000000 	nop
/home/git/21373271/21373271/kern/pmap.c:516 (discriminator 2)
800147c0:	8fc3001c 	lw	v1,28(s8)
800147c4:	8fc20024 	lw	v0,36(s8)
800147c8:	00000000 	nop
800147cc:	1062000d 	beq	v1,v0,80014804 <page_check+0xcd0>
800147d0:	00000000 	nop
/home/git/21373271/21373271/kern/pmap.c:516 (discriminator 3)
800147d4:	3c028001 	lui	v0,0x8001
800147d8:	24425a00 	addiu	v0,v0,23040
800147dc:	afa20010 	sw	v0,16(sp)
800147e0:	3c028001 	lui	v0,0x8001
800147e4:	2447554c 	addiu	a3,v0,21836
800147e8:	3c028001 	lui	v0,0x8001
800147ec:	24465ac0 	addiu	a2,v0,23232
800147f0:	24050204 	li	a1,516
800147f4:	3c028001 	lui	v0,0x8001
800147f8:	244454dc 	addiu	a0,v0,21724
800147fc:	0c004870 	jal	800121c0 <_panic>
80014800:	00000000 	nop
/home/git/21373271/21373271/kern/pmap.c:519
80014804:	27c2001c 	addiu	v0,s8,28
80014808:	00402025 	move	a0,v0
8001480c:	0c004ae0 	jal	80012b80 <page_alloc>
80014810:	00000000 	nop
80014814:	00401825 	move	v1,v0
80014818:	2402fffc 	li	v0,-4
8001481c:	1062000d 	beq	v1,v0,80014854 <page_check+0xd20>
80014820:	00000000 	nop
/home/git/21373271/21373271/kern/pmap.c:519 (discriminator 1)
80014824:	3c028001 	lui	v0,0x8001
80014828:	24425604 	addiu	v0,v0,22020
8001482c:	afa20010 	sw	v0,16(sp)
80014830:	3c028001 	lui	v0,0x8001
80014834:	2447554c 	addiu	a3,v0,21836
80014838:	3c028001 	lui	v0,0x8001
8001483c:	24465ac0 	addiu	a2,v0,23232
80014840:	24050207 	li	a1,519
80014844:	3c028001 	lui	v0,0x8001
80014848:	244454dc 	addiu	a0,v0,21724
8001484c:	0c004870 	jal	800121c0 <_panic>
80014850:	00000000 	nop
/home/git/21373271/21373271/kern/pmap.c:522
80014854:	8fc20018 	lw	v0,24(s8)
80014858:	00000000 	nop
8001485c:	8c430000 	lw	v1,0(v0)
80014860:	2402f000 	li	v0,-4096
80014864:	00628024 	and	s0,v1,v0
80014868:	8fc20020 	lw	v0,32(s8)
8001486c:	00000000 	nop
80014870:	00402025 	move	a0,v0
80014874:	0c0048cd 	jal	80012334 <page2pa>
80014878:	00000000 	nop
8001487c:	1202000d 	beq	s0,v0,800148b4 <page_check+0xd80>
80014880:	00000000 	nop
/home/git/21373271/21373271/kern/pmap.c:522 (discriminator 1)
80014884:	3c028001 	lui	v0,0x8001
80014888:	24425794 	addiu	v0,v0,22420
8001488c:	afa20010 	sw	v0,16(sp)
80014890:	3c028001 	lui	v0,0x8001
80014894:	2447554c 	addiu	a3,v0,21836
80014898:	3c028001 	lui	v0,0x8001
8001489c:	24465ac0 	addiu	a2,v0,23232
800148a0:	2405020a 	li	a1,522
800148a4:	3c028001 	lui	v0,0x8001
800148a8:	244454dc 	addiu	a0,v0,21724
800148ac:	0c004870 	jal	800121c0 <_panic>
800148b0:	00000000 	nop
/home/git/21373271/21373271/kern/pmap.c:523
800148b4:	8fc20018 	lw	v0,24(s8)
800148b8:	00000000 	nop
800148bc:	ac400000 	sw	zero,0(v0)
/home/git/21373271/21373271/kern/pmap.c:524
800148c0:	8fc20020 	lw	v0,32(s8)
800148c4:	00000000 	nop
800148c8:	94430008 	lhu	v1,8(v0)
800148cc:	24020001 	li	v0,1
800148d0:	1062000d 	beq	v1,v0,80014908 <page_check+0xdd4>
800148d4:	00000000 	nop
/home/git/21373271/21373271/kern/pmap.c:524 (discriminator 1)
800148d8:	3c028001 	lui	v0,0x8001
800148dc:	24425a24 	addiu	v0,v0,23076
800148e0:	afa20010 	sw	v0,16(sp)
800148e4:	3c028001 	lui	v0,0x8001
800148e8:	2447554c 	addiu	a3,v0,21836
800148ec:	3c028001 	lui	v0,0x8001
800148f0:	24465ac0 	addiu	a2,v0,23232
800148f4:	2405020c 	li	a1,524
800148f8:	3c028001 	lui	v0,0x8001
800148fc:	244454dc 	addiu	a0,v0,21724
80014900:	0c004870 	jal	800121c0 <_panic>
80014904:	00000000 	nop
/home/git/21373271/21373271/kern/pmap.c:525
80014908:	8fc20020 	lw	v0,32(s8)
8001490c:	00000000 	nop
80014910:	a4400008 	sh	zero,8(v0)
/home/git/21373271/21373271/kern/pmap.c:528
80014914:	3c028001 	lui	v0,0x8001
80014918:	8fc3002c 	lw	v1,44(s8)
8001491c:	00000000 	nop
80014920:	ac435c3c 	sw	v1,23612(v0)
/home/git/21373271/21373271/kern/pmap.c:531
80014924:	8fc20020 	lw	v0,32(s8)
80014928:	00000000 	nop
8001492c:	00402025 	move	a0,v0
80014930:	0c004b1a 	jal	80012c68 <page_free>
80014934:	00000000 	nop
/home/git/21373271/21373271/kern/pmap.c:532
80014938:	8fc20024 	lw	v0,36(s8)
8001493c:	00000000 	nop
80014940:	00402025 	move	a0,v0
80014944:	0c004b1a 	jal	80012c68 <page_free>
80014948:	00000000 	nop
/home/git/21373271/21373271/kern/pmap.c:533
8001494c:	8fc20028 	lw	v0,40(s8)
80014950:	00000000 	nop
80014954:	00402025 	move	a0,v0
80014958:	0c004b1a 	jal	80012c68 <page_free>
8001495c:	00000000 	nop
/home/git/21373271/21373271/kern/pmap.c:535
80014960:	3c028001 	lui	v0,0x8001
80014964:	24445a38 	addiu	a0,v0,23096
80014968:	0c005289 	jal	80014a24 <printk>
8001496c:	00000000 	nop
/home/git/21373271/21373271/kern/pmap.c:536
80014970:	00000000 	nop
80014974:	03c0e825 	move	sp,s8
80014978:	8fbf003c 	lw	ra,60(sp)
8001497c:	8fbe0038 	lw	s8,56(sp)
80014980:	8fb00034 	lw	s0,52(sp)
80014984:	27bd0040 	addiu	sp,sp,64
80014988:	03e00008 	jr	ra
8001498c:	00000000 	nop

80014990 <outputk>:
outputk():
/home/git/21373271/21373271/kern/printk.c:6
#include <drivers/dev_cons.h>
#include <print.h>
#include <printk.h>
#include <trap.h>

void outputk(void *data, const char *buf, size_t len) {
80014990:	27bdffe0 	addiu	sp,sp,-32
80014994:	afbf001c 	sw	ra,28(sp)
80014998:	afbe0018 	sw	s8,24(sp)
8001499c:	03a0f025 	move	s8,sp
800149a0:	afc40020 	sw	a0,32(s8)
800149a4:	afc50024 	sw	a1,36(s8)
800149a8:	afc60028 	sw	a2,40(s8)
/home/git/21373271/21373271/kern/printk.c:7
	for (int i = 0; i < len; i++) {
800149ac:	afc00010 	sw	zero,16(s8)
800149b0:	1000000e 	b	800149ec <outputk+0x5c>
800149b4:	00000000 	nop
/home/git/21373271/21373271/kern/printk.c:8 (discriminator 3)
		printcharc(buf[i]);
800149b8:	8fc20010 	lw	v0,16(s8)
800149bc:	8fc30024 	lw	v1,36(s8)
800149c0:	00000000 	nop
800149c4:	00621021 	addu	v0,v1,v0
800149c8:	80420000 	lb	v0,0(v0)
800149cc:	00000000 	nop
800149d0:	00402025 	move	a0,v0
800149d4:	0c004848 	jal	80012120 <printcharc>
800149d8:	00000000 	nop
/home/git/21373271/21373271/kern/printk.c:7 (discriminator 3)
	for (int i = 0; i < len; i++) {
800149dc:	8fc20010 	lw	v0,16(s8)
800149e0:	00000000 	nop
800149e4:	24420001 	addiu	v0,v0,1
800149e8:	afc20010 	sw	v0,16(s8)
/home/git/21373271/21373271/kern/printk.c:7 (discriminator 1)
800149ec:	8fc20010 	lw	v0,16(s8)
800149f0:	8fc30028 	lw	v1,40(s8)
800149f4:	00000000 	nop
800149f8:	0043102b 	sltu	v0,v0,v1
800149fc:	1440ffee 	bnez	v0,800149b8 <outputk+0x28>
80014a00:	00000000 	nop
	...
/home/git/21373271/21373271/kern/printk.c:10
	}
}
80014a0c:	03c0e825 	move	sp,s8
80014a10:	8fbf001c 	lw	ra,28(sp)
80014a14:	8fbe0018 	lw	s8,24(sp)
80014a18:	27bd0020 	addiu	sp,sp,32
80014a1c:	03e00008 	jr	ra
80014a20:	00000000 	nop

80014a24 <printk>:
printk():
/home/git/21373271/21373271/kern/printk.c:12

void printk(const char *fmt, ...) {
80014a24:	27bdffe0 	addiu	sp,sp,-32
80014a28:	afbf001c 	sw	ra,28(sp)
80014a2c:	afbe0018 	sw	s8,24(sp)
80014a30:	03a0f025 	move	s8,sp
80014a34:	afc40020 	sw	a0,32(s8)
80014a38:	afc50024 	sw	a1,36(s8)
80014a3c:	afc60028 	sw	a2,40(s8)
80014a40:	afc7002c 	sw	a3,44(s8)
/home/git/21373271/21373271/kern/printk.c:14
	va_list ap;
	va_start(ap, fmt);
80014a44:	27c20024 	addiu	v0,s8,36
80014a48:	afc20010 	sw	v0,16(s8)
/home/git/21373271/21373271/kern/printk.c:15
	vprintfmt(outputk, NULL, fmt, ap);
80014a4c:	8fc20010 	lw	v0,16(s8)
80014a50:	00000000 	nop
80014a54:	00403825 	move	a3,v0
80014a58:	8fc60020 	lw	a2,32(s8)
80014a5c:	00002825 	move	a1,zero
80014a60:	3c028001 	lui	v0,0x8001
80014a64:	24444990 	addiu	a0,v0,18832
80014a68:	0c004104 	jal	80010410 <vprintfmt>
80014a6c:	00000000 	nop
/home/git/21373271/21373271/kern/printk.c:17
	va_end(ap);
}
80014a70:	00000000 	nop
80014a74:	03c0e825 	move	sp,s8
80014a78:	8fbf001c 	lw	ra,28(sp)
80014a7c:	8fbe0018 	lw	s8,24(sp)
80014a80:	27bd0020 	addiu	sp,sp,32
80014a84:	03e00008 	jr	ra
80014a88:	00000000 	nop

80014a8c <print_tf>:
print_tf():
/home/git/21373271/21373271/kern/printk.c:19

void print_tf(struct Trapframe *tf) {
80014a8c:	27bdffe0 	addiu	sp,sp,-32
80014a90:	afbf001c 	sw	ra,28(sp)
80014a94:	afbe0018 	sw	s8,24(sp)
80014a98:	03a0f025 	move	s8,sp
80014a9c:	afc40020 	sw	a0,32(s8)
/home/git/21373271/21373271/kern/printk.c:20
	for (int i = 0; i < sizeof(tf->regs) / sizeof(tf->regs[0]); i++) {
80014aa0:	afc00010 	sw	zero,16(s8)
80014aa4:	10000012 	b	80014af0 <print_tf+0x64>
80014aa8:	00000000 	nop
/home/git/21373271/21373271/kern/printk.c:21 (discriminator 3)
		printk("$%2d = %08x\n", i, tf->regs[i]);
80014aac:	8fc30020 	lw	v1,32(s8)
80014ab0:	8fc20010 	lw	v0,16(s8)
80014ab4:	00000000 	nop
80014ab8:	00021080 	sll	v0,v0,0x2
80014abc:	00621021 	addu	v0,v1,v0
80014ac0:	8c420000 	lw	v0,0(v0)
80014ac4:	00000000 	nop
80014ac8:	00403025 	move	a2,v0
80014acc:	8fc50010 	lw	a1,16(s8)
80014ad0:	3c028001 	lui	v0,0x8001
80014ad4:	24445ae0 	addiu	a0,v0,23264
80014ad8:	0c005289 	jal	80014a24 <printk>
80014adc:	00000000 	nop
/home/git/21373271/21373271/kern/printk.c:20 (discriminator 3)
	for (int i = 0; i < sizeof(tf->regs) / sizeof(tf->regs[0]); i++) {
80014ae0:	8fc20010 	lw	v0,16(s8)
80014ae4:	00000000 	nop
80014ae8:	24420001 	addiu	v0,v0,1
80014aec:	afc20010 	sw	v0,16(s8)
/home/git/21373271/21373271/kern/printk.c:20 (discriminator 1)
80014af0:	8fc20010 	lw	v0,16(s8)
80014af4:	00000000 	nop
80014af8:	2c420020 	sltiu	v0,v0,32
80014afc:	1440ffeb 	bnez	v0,80014aac <print_tf+0x20>
80014b00:	00000000 	nop
/home/git/21373271/21373271/kern/printk.c:23
	}
	printk("HI  = %08x\n", tf->hi);
80014b04:	8fc20020 	lw	v0,32(s8)
80014b08:	00000000 	nop
80014b0c:	8c420084 	lw	v0,132(v0)
80014b10:	00000000 	nop
80014b14:	00402825 	move	a1,v0
80014b18:	3c028001 	lui	v0,0x8001
80014b1c:	24445af0 	addiu	a0,v0,23280
80014b20:	0c005289 	jal	80014a24 <printk>
80014b24:	00000000 	nop
/home/git/21373271/21373271/kern/printk.c:24
	printk("LO  = %08x\n\n", tf->lo);
80014b28:	8fc20020 	lw	v0,32(s8)
80014b2c:	00000000 	nop
80014b30:	8c420088 	lw	v0,136(v0)
80014b34:	00000000 	nop
80014b38:	00402825 	move	a1,v0
80014b3c:	3c028001 	lui	v0,0x8001
80014b40:	24445afc 	addiu	a0,v0,23292
80014b44:	0c005289 	jal	80014a24 <printk>
80014b48:	00000000 	nop
/home/git/21373271/21373271/kern/printk.c:25
	printk("CP0.SR    = %08x\n", tf->cp0_status);
80014b4c:	8fc20020 	lw	v0,32(s8)
80014b50:	00000000 	nop
80014b54:	8c420080 	lw	v0,128(v0)
80014b58:	00000000 	nop
80014b5c:	00402825 	move	a1,v0
80014b60:	3c028001 	lui	v0,0x8001
80014b64:	24445b0c 	addiu	a0,v0,23308
80014b68:	0c005289 	jal	80014a24 <printk>
80014b6c:	00000000 	nop
/home/git/21373271/21373271/kern/printk.c:26
	printk("CP0.BadV  = %08x\n", tf->cp0_badvaddr);
80014b70:	8fc20020 	lw	v0,32(s8)
80014b74:	00000000 	nop
80014b78:	8c42008c 	lw	v0,140(v0)
80014b7c:	00000000 	nop
80014b80:	00402825 	move	a1,v0
80014b84:	3c028001 	lui	v0,0x8001
80014b88:	24445b20 	addiu	a0,v0,23328
80014b8c:	0c005289 	jal	80014a24 <printk>
80014b90:	00000000 	nop
/home/git/21373271/21373271/kern/printk.c:27
	printk("CP0.Cause = %08x\n", tf->cp0_cause);
80014b94:	8fc20020 	lw	v0,32(s8)
80014b98:	00000000 	nop
80014b9c:	8c420090 	lw	v0,144(v0)
80014ba0:	00000000 	nop
80014ba4:	00402825 	move	a1,v0
80014ba8:	3c028001 	lui	v0,0x8001
80014bac:	24445b34 	addiu	a0,v0,23348
80014bb0:	0c005289 	jal	80014a24 <printk>
80014bb4:	00000000 	nop
/home/git/21373271/21373271/kern/printk.c:28
	printk("CP0.EPC   = %08x\n", tf->cp0_epc);
80014bb8:	8fc20020 	lw	v0,32(s8)
80014bbc:	00000000 	nop
80014bc0:	8c420094 	lw	v0,148(v0)
80014bc4:	00000000 	nop
80014bc8:	00402825 	move	a1,v0
80014bcc:	3c028001 	lui	v0,0x8001
80014bd0:	24445b48 	addiu	a0,v0,23368
80014bd4:	0c005289 	jal	80014a24 <printk>
80014bd8:	00000000 	nop
/home/git/21373271/21373271/kern/printk.c:29
}
80014bdc:	00000000 	nop
80014be0:	03c0e825 	move	sp,s8
80014be4:	8fbf001c 	lw	ra,28(sp)
80014be8:	8fbe0018 	lw	s8,24(sp)
80014bec:	27bd0020 	addiu	sp,sp,32
80014bf0:	03e00008 	jr	ra
80014bf4:	00000000 	nop
	...

80014c00 <tlb_out>:
tlb_out():
/home/git/21373271/21373271/kern/tlb_asm.S:5
80014c00:	40085000 	mfc0	t0,c0_entryhi
/home/git/21373271/21373271/kern/tlb_asm.S:6
80014c04:	40845000 	mtc0	a0,c0_entryhi
/home/git/21373271/21373271/kern/tlb_asm.S:7
80014c08:	00000000 	nop
/home/git/21373271/21373271/kern/tlb_asm.S:10
80014c0c:	42000008 	tlbp
/home/git/21373271/21373271/kern/tlb_asm.S:11
80014c10:	00000000 	nop
/home/git/21373271/21373271/kern/tlb_asm.S:13
80014c14:	40090000 	mfc0	t1,c0_index
80014c18:	00000000 	nop
/home/git/21373271/21373271/kern/tlb_asm.S:15
80014c1c:	05200006 	bltz	t1,80014c38 <NO_SUCH_ENTRY>
80014c20:	00000000 	nop
/home/git/21373271/21373271/kern/tlb_asm.S:17
80014c24:	40805000 	mtc0	zero,c0_entryhi
/home/git/21373271/21373271/kern/tlb_asm.S:18
80014c28:	40801000 	mtc0	zero,c0_entrylo
/home/git/21373271/21373271/kern/tlb_asm.S:19
80014c2c:	00000000 	nop
/home/git/21373271/21373271/kern/tlb_asm.S:22
80014c30:	42000002 	tlbwi
/home/git/21373271/21373271/kern/tlb_asm.S:23
80014c34:	00000000 	nop

80014c38 <NO_SUCH_ENTRY>:
/home/git/21373271/21373271/kern/tlb_asm.S:27
80014c38:	40885000 	mtc0	t0,c0_entryhi
/home/git/21373271/21373271/kern/tlb_asm.S:28
80014c3c:	03e00008 	jr	ra
80014c40:	00000000 	nop

80014c44 <do_tlb_refill>:
do_tlb_refill():
/home/git/21373271/21373271/kern/tlb_asm.S:36
80014c44:	40044000 	mfc0	a0,c0_badvaddr
/home/git/21373271/21373271/kern/tlb_asm.S:37
80014c48:	40055000 	mfc0	a1,c0_entryhi
80014c4c:	00000000 	nop
/home/git/21373271/21373271/kern/tlb_asm.S:38
80014c50:	00052982 	srl	a1,a1,0x6
/home/git/21373271/21373271/kern/tlb_asm.S:39
80014c54:	30a5003f 	andi	a1,a1,0x3f
/home/git/21373271/21373271/kern/tlb_asm.S:40
80014c58:	3c018001 	lui	at,0x8001
80014c5c:	ac3f5c20 	sw	ra,23584(at)
/home/git/21373271/21373271/kern/tlb_asm.S:41
80014c60:	0c0053bc 	jal	80014ef0 <_do_tlb_refill>
80014c64:	00000000 	nop
/home/git/21373271/21373271/kern/tlb_asm.S:42
80014c68:	3c1f8001 	lui	ra,0x8001
80014c6c:	8fff5c20 	lw	ra,23584(ra)
/home/git/21373271/21373271/kern/tlb_asm.S:43
80014c70:	40821000 	mtc0	v0,c0_entrylo
/home/git/21373271/21373271/kern/tlb_asm.S:45
80014c74:	00000000 	nop
/home/git/21373271/21373271/kern/tlb_asm.S:48
80014c78:	42000006 	tlbwr
/home/git/21373271/21373271/kern/tlb_asm.S:49
80014c7c:	00000000 	nop
/home/git/21373271/21373271/kern/tlb_asm.S:50
80014c80:	03e00008 	jr	ra
80014c84:	00000000 	nop
	...

80014c90 <passive_alloc>:
passive_alloc():
/home/git/21373271/21373271/kern/tlbex.c:4
80014c90:	27bdffd0 	addiu	sp,sp,-48
80014c94:	afbf002c 	sw	ra,44(sp)
80014c98:	afbe0028 	sw	s8,40(sp)
80014c9c:	03a0f025 	move	s8,sp
80014ca0:	afc40030 	sw	a0,48(s8)
80014ca4:	afc50034 	sw	a1,52(s8)
80014ca8:	afc60038 	sw	a2,56(s8)
/home/git/21373271/21373271/kern/tlbex.c:5
80014cac:	afc00020 	sw	zero,32(s8)
/home/git/21373271/21373271/kern/tlbex.c:7
80014cb0:	8fc30030 	lw	v1,48(s8)
80014cb4:	3c02003f 	lui	v0,0x3f
80014cb8:	3442e000 	ori	v0,v0,0xe000
80014cbc:	0062102b 	sltu	v0,v1,v0
80014cc0:	1040000a 	beqz	v0,80014cec <passive_alloc+0x5c>
80014cc4:	00000000 	nop
/home/git/21373271/21373271/kern/tlbex.c:8
80014cc8:	3c028001 	lui	v0,0x8001
80014ccc:	24475b60 	addiu	a3,v0,23392
80014cd0:	3c028001 	lui	v0,0x8001
80014cd4:	24465c10 	addiu	a2,v0,23568
80014cd8:	24050008 	li	a1,8
80014cdc:	3c028001 	lui	v0,0x8001
80014ce0:	24445b70 	addiu	a0,v0,23408
80014ce4:	0c004870 	jal	800121c0 <_panic>
80014ce8:	00000000 	nop
/home/git/21373271/21373271/kern/tlbex.c:11
80014cec:	8fc30030 	lw	v1,48(s8)
80014cf0:	3c027f3f 	lui	v0,0x7f3f
80014cf4:	3442e000 	ori	v0,v0,0xe000
80014cf8:	0062102b 	sltu	v0,v1,v0
80014cfc:	14400010 	bnez	v0,80014d40 <passive_alloc+0xb0>
80014d00:	00000000 	nop
/home/git/21373271/21373271/kern/tlbex.c:11 (discriminator 1)
80014d04:	8fc30030 	lw	v1,48(s8)
80014d08:	3c027f3f 	lui	v0,0x7f3f
80014d0c:	3442f000 	ori	v0,v0,0xf000
80014d10:	0062102b 	sltu	v0,v1,v0
80014d14:	1040000a 	beqz	v0,80014d40 <passive_alloc+0xb0>
80014d18:	00000000 	nop
/home/git/21373271/21373271/kern/tlbex.c:12
80014d1c:	3c028001 	lui	v0,0x8001
80014d20:	24475b78 	addiu	a3,v0,23416
80014d24:	3c028001 	lui	v0,0x8001
80014d28:	24465c10 	addiu	a2,v0,23568
80014d2c:	2405000c 	li	a1,12
80014d30:	3c028001 	lui	v0,0x8001
80014d34:	24445b70 	addiu	a0,v0,23408
80014d38:	0c004870 	jal	800121c0 <_panic>
80014d3c:	00000000 	nop
/home/git/21373271/21373271/kern/tlbex.c:15
80014d40:	8fc30030 	lw	v1,48(s8)
80014d44:	3c027f40 	lui	v0,0x7f40
80014d48:	0062102b 	sltu	v0,v1,v0
80014d4c:	1440000f 	bnez	v0,80014d8c <passive_alloc+0xfc>
80014d50:	00000000 	nop
/home/git/21373271/21373271/kern/tlbex.c:15 (discriminator 1)
80014d54:	8fc30030 	lw	v1,48(s8)
80014d58:	3c027f80 	lui	v0,0x7f80
80014d5c:	0062102b 	sltu	v0,v1,v0
80014d60:	1040000a 	beqz	v0,80014d8c <passive_alloc+0xfc>
80014d64:	00000000 	nop
/home/git/21373271/21373271/kern/tlbex.c:16
80014d68:	3c028001 	lui	v0,0x8001
80014d6c:	24475b88 	addiu	a3,v0,23432
80014d70:	3c028001 	lui	v0,0x8001
80014d74:	24465c10 	addiu	a2,v0,23568
80014d78:	24050010 	li	a1,16
80014d7c:	3c028001 	lui	v0,0x8001
80014d80:	24445b70 	addiu	a0,v0,23408
80014d84:	0c004870 	jal	800121c0 <_panic>
80014d88:	00000000 	nop
/home/git/21373271/21373271/kern/tlbex.c:19
80014d8c:	8fc30030 	lw	v1,48(s8)
80014d90:	3c027f80 	lui	v0,0x7f80
80014d94:	0062102b 	sltu	v0,v1,v0
80014d98:	1440000f 	bnez	v0,80014dd8 <passive_alloc+0x148>
80014d9c:	00000000 	nop
/home/git/21373271/21373271/kern/tlbex.c:19 (discriminator 1)
80014da0:	8fc30030 	lw	v1,48(s8)
80014da4:	3c027fc0 	lui	v0,0x7fc0
80014da8:	0062102b 	sltu	v0,v1,v0
80014dac:	1040000a 	beqz	v0,80014dd8 <passive_alloc+0x148>
80014db0:	00000000 	nop
/home/git/21373271/21373271/kern/tlbex.c:20
80014db4:	3c028001 	lui	v0,0x8001
80014db8:	24475b94 	addiu	a3,v0,23444
80014dbc:	3c028001 	lui	v0,0x8001
80014dc0:	24465c10 	addiu	a2,v0,23568
80014dc4:	24050014 	li	a1,20
80014dc8:	3c028001 	lui	v0,0x8001
80014dcc:	24445b70 	addiu	a0,v0,23408
80014dd0:	0c004870 	jal	800121c0 <_panic>
80014dd4:	00000000 	nop
/home/git/21373271/21373271/kern/tlbex.c:23
80014dd8:	8fc20030 	lw	v0,48(s8)
80014ddc:	00000000 	nop
80014de0:	0441000a 	bgez	v0,80014e0c <passive_alloc+0x17c>
80014de4:	00000000 	nop
/home/git/21373271/21373271/kern/tlbex.c:24
80014de8:	3c028001 	lui	v0,0x8001
80014dec:	24475ba0 	addiu	a3,v0,23456
80014df0:	3c028001 	lui	v0,0x8001
80014df4:	24465c10 	addiu	a2,v0,23568
80014df8:	24050018 	li	a1,24
80014dfc:	3c028001 	lui	v0,0x8001
80014e00:	24445b70 	addiu	a0,v0,23408
80014e04:	0c004870 	jal	800121c0 <_panic>
80014e08:	00000000 	nop
/home/git/21373271/21373271/kern/tlbex.c:27
80014e0c:	27c20020 	addiu	v0,s8,32
80014e10:	00402025 	move	a0,v0
80014e14:	0c004ae0 	jal	80012b80 <page_alloc>
80014e18:	00000000 	nop
80014e1c:	afc20018 	sw	v0,24(s8)
80014e20:	8fc20018 	lw	v0,24(s8)
80014e24:	00000000 	nop
80014e28:	1040000d 	beqz	v0,80014e60 <passive_alloc+0x1d0>
80014e2c:	00000000 	nop
/home/git/21373271/21373271/kern/tlbex.c:27 (discriminator 1)
80014e30:	8fc20018 	lw	v0,24(s8)
80014e34:	00000000 	nop
80014e38:	afa20010 	sw	v0,16(sp)
80014e3c:	3c028001 	lui	v0,0x8001
80014e40:	24475bb0 	addiu	a3,v0,23472
80014e44:	3c028001 	lui	v0,0x8001
80014e48:	24465c10 	addiu	a2,v0,23568
80014e4c:	2405001b 	li	a1,27
80014e50:	3c028001 	lui	v0,0x8001
80014e54:	24445b70 	addiu	a0,v0,23408
80014e58:	0c004870 	jal	800121c0 <_panic>
80014e5c:	00000000 	nop
/home/git/21373271/21373271/kern/tlbex.c:28
80014e60:	8fc40020 	lw	a0,32(s8)
80014e64:	8fc30030 	lw	v1,48(s8)
80014e68:	2402f000 	li	v0,-4096
80014e6c:	00621824 	and	v1,v1,v0
80014e70:	24020400 	li	v0,1024
80014e74:	afa20010 	sw	v0,16(sp)
80014e78:	00603825 	move	a3,v1
80014e7c:	00803025 	move	a2,a0
80014e80:	8fc50038 	lw	a1,56(s8)
80014e84:	8fc40034 	lw	a0,52(s8)
80014e88:	0c004bb6 	jal	80012ed8 <page_insert>
80014e8c:	00000000 	nop
80014e90:	afc2001c 	sw	v0,28(s8)
80014e94:	8fc2001c 	lw	v0,28(s8)
80014e98:	00000000 	nop
80014e9c:	1040000d 	beqz	v0,80014ed4 <passive_alloc+0x244>
80014ea0:	00000000 	nop
/home/git/21373271/21373271/kern/tlbex.c:28 (discriminator 1)
80014ea4:	8fc2001c 	lw	v0,28(s8)
80014ea8:	00000000 	nop
80014eac:	afa20010 	sw	v0,16(sp)
80014eb0:	3c028001 	lui	v0,0x8001
80014eb4:	24475bd0 	addiu	a3,v0,23504
80014eb8:	3c028001 	lui	v0,0x8001
80014ebc:	24465c10 	addiu	a2,v0,23568
80014ec0:	2405001c 	li	a1,28
80014ec4:	3c028001 	lui	v0,0x8001
80014ec8:	24445b70 	addiu	a0,v0,23408
80014ecc:	0c004870 	jal	800121c0 <_panic>
80014ed0:	00000000 	nop
/home/git/21373271/21373271/kern/tlbex.c:29
80014ed4:	00000000 	nop
80014ed8:	03c0e825 	move	sp,s8
80014edc:	8fbf002c 	lw	ra,44(sp)
80014ee0:	8fbe0028 	lw	s8,40(sp)
80014ee4:	27bd0030 	addiu	sp,sp,48
80014ee8:	03e00008 	jr	ra
80014eec:	00000000 	nop

80014ef0 <_do_tlb_refill>:
_do_tlb_refill():
/home/git/21373271/21373271/kern/tlbex.c:34
80014ef0:	27bdffe0 	addiu	sp,sp,-32
80014ef4:	afbf001c 	sw	ra,28(sp)
80014ef8:	afbe0018 	sw	s8,24(sp)
80014efc:	03a0f025 	move	s8,sp
80014f00:	afc40020 	sw	a0,32(s8)
80014f04:	afc50024 	sw	a1,36(s8)
/home/git/21373271/21373271/kern/tlbex.c:45
80014f08:	10000008 	b	80014f2c <_do_tlb_refill+0x3c>
80014f0c:	00000000 	nop
/home/git/21373271/21373271/kern/tlbex.c:47
80014f10:	3c028001 	lui	v0,0x8001
80014f14:	8c425c34 	lw	v0,23604(v0)
80014f18:	8fc60024 	lw	a2,36(s8)
80014f1c:	00402825 	move	a1,v0
80014f20:	8fc40020 	lw	a0,32(s8)
80014f24:	0c005324 	jal	80014c90 <passive_alloc>
80014f28:	00000000 	nop
/home/git/21373271/21373271/kern/tlbex.c:45
80014f2c:	3c028001 	lui	v0,0x8001
80014f30:	8c425c34 	lw	v0,23604(v0)
80014f34:	27c30010 	addiu	v1,s8,16
80014f38:	00603025 	move	a2,v1
80014f3c:	8fc50020 	lw	a1,32(s8)
80014f40:	00402025 	move	a0,v0
80014f44:	0c004c1e 	jal	80013078 <page_lookup>
80014f48:	00000000 	nop
80014f4c:	1040fff0 	beqz	v0,80014f10 <_do_tlb_refill+0x20>
80014f50:	00000000 	nop
/home/git/21373271/21373271/kern/tlbex.c:49
80014f54:	8fc20010 	lw	v0,16(s8)
80014f58:	00000000 	nop
80014f5c:	8c420000 	lw	v0,0(v0)
/home/git/21373271/21373271/kern/tlbex.c:50
80014f60:	03c0e825 	move	sp,s8
80014f64:	8fbf001c 	lw	ra,28(sp)
80014f68:	8fbe0018 	lw	s8,24(sp)
80014f6c:	27bd0020 	addiu	sp,sp,32
80014f70:	03e00008 	jr	ra
80014f74:	00000000 	nop
	...
